 driver_test_slrt

 Timestamp is 5c04eca4 (Mon Dec  3 19:43:16 2018)

 Preferred load address is 10000000

 Start         Length     Name                   Class
 0001:00000000 00061098H .text$mn                CODE
 0002:00000000 00000104H .CRT$XCA                DATA
 0002:00000104 00000104H .CRT$XCZ                DATA
 0002:00000208 00000104H .CRT$XIA                DATA
 0002:0000030c 00000110H .CRT$XIC                DATA
 0002:0000041c 00000104H .CRT$XIZ                DATA
 0002:00000520 00000104H .CRT$XPA                DATA
 0002:00000624 0000010cH .CRT$XPX                DATA
 0002:00000730 00000104H .CRT$XPXA               DATA
 0002:00000834 00000104H .CRT$XPZ                DATA
 0002:00000938 00000104H .CRT$XTA                DATA
 0002:00000a3c 00000104H .CRT$XTZ                DATA
 0002:00000b40 0000c9e4H .rdata                  DATA
 0002:0000d524 0000038cH .rdata$r                DATA
 0002:0000d8b0 00000110H .rdata$sxdata           DATA
 0002:0000d9c0 000001acH .rdata$zzzdbg           DATA
 0002:0000db6c 00000104H .rtc$IAA                DATA
 0002:0000dc70 00000104H .rtc$IZZ                DATA
 0002:0000dd74 00000104H .rtc$TAA                DATA
 0002:0000de78 00000108H .rtc$TZZ                DATA
 0002:0000df80 00000ac0H .xdata$x                DATA
 0002:0000ea40 00000204H .edata                  DATA
 0003:00000000 00000e84H .data                   DATA
 0003:00000e84 000001dcH .data$r                 DATA
 0003:00001060 000138c8H .bss                    DATA
 0004:00000000 000001d4H .idata$5                DATA
 0004:000001d4 00000014H .idata$2                DATA
 0004:000001e8 00000014H .idata$3                DATA
 0004:000001fc 000001d4H .idata$4                DATA
 0004:000003d0 00000843H .idata$6                DATA
 0005:00000000 00000224H .gfids$x                DATA
 0005:00000224 000001a5H .gfids$y                DATA
 0006:00000000 00000104H .00cfg                  DATA

  Address         Publics by Value              Rva+Base       Lib:Object

 0000:00000000       __except_list              00000000     <absolute>
 0000:00000000       ___guard_longjmp_table     00000000     <absolute>
 0000:00000000       ___guard_iat_count         00000000     <absolute>
 0000:00000000       ___guard_iat_table         00000000     <absolute>
 0000:00000000       ___guard_longjmp_count     00000000     <absolute>
 0000:00000000       ___guard_fids_count        00000000     <absolute>
 0000:00000000       ___dynamic_value_reloc_table 00000000     <absolute>
 0000:00000000       ___guard_fids_table        00000000     <absolute>
 0000:00000003       ___safe_se_handler_count   00000003     <absolute>
 0000:00000100       ___guard_flags             00000100     <absolute>
 0000:00000000       ___ImageBase               10000000     <linker-defined>
 0001:00005f40       _MdlInitialize             10006f40 f   driver_test.obj
 0001:00005f50       _MdlInitializeSampleTimes  10006f50 f   driver_test.obj
 0001:00005f60       _MdlInitializeSizes        10006f60 f   driver_test.obj
 0001:00005f70       _MdlOutputs                10006f70 f   driver_test.obj
 0001:00005fb0       _MdlStart                  10006fb0 f   driver_test.obj
 0001:00005fd0       _MdlTerminate              10006fd0 f   driver_test.obj
 0001:00005ff0       _MdlUpdate                 10006ff0 f   driver_test.obj
 0001:00006080       _driver_test               10007080 f   driver_test.obj
 0001:00006850       _rt_mxCreateCharMatrixFromStrings 10007850 f   rt_matrx.obj
 0001:000069b0       _rt_mxCreateDoubleMatrix   100079b0 f   rt_matrx.obj
 0001:00006a10       _rt_mxCreateNumericArray   10007a10 f   rt_matrx.obj
 0001:00006a90       _rt_mxCreateString         10007a90 f   rt_matrx.obj
 0001:00006b20       _rt_mxDuplicateArray       10007b20 f   rt_matrx.obj
 0001:00006b80       _rt_mxGetDimensions        10007b80 f   rt_matrx.obj
 0001:00006bc0       _rt_mxGetEps               10007bc0 f   rt_matrx.obj
 0001:00006bd0       _rt_mxGetString            10007bd0 f   rt_matrx.obj
 0001:00006c50       _rtPrintfNoOp              10007c50 f   rt_printf.obj
 0001:00006c60       ___local_stdio_printf_options 10007c60 f i rt_logging.obj
 0001:00006c70       __vfprintf_l               10007c70 f i rt_logging.obj
 0001:00006ca0       __vsnprintf_l              10007ca0 f i rt_logging.obj
 0001:00006ce0       __vsprintf_l               10007ce0 f i rt_logging.obj
 0001:00006d20       _fprintf                   10007d20 f i rt_logging.obj
 0001:00007630       _printf                    10008630 f i rt_logging.obj
 0001:00007670       _rt_CreateLogVar           10008670 f   rt_logging.obj
 0001:00007700       _rt_CreateLogVarWithConvert 10008700 f   rt_logging.obj
 0001:00008080       _rt_CreateStructLogVar     10009080 f   rt_logging.obj
 0001:00008de0       _rt_GetMxIdFromDTypeId     10009de0 f   rt_logging.obj
 0001:00008e10       _rt_GetMxIdFromDTypeIdForRSim 10009e10 f   rt_logging.obj
 0001:0000b6f0       _rt_StartDataLogging       1000c6f0 f   rt_logging.obj
 0001:0000bbb0       _rt_StartDataLoggingWithStartTime 1000cbb0 f   rt_logging.obj
 0001:0000c510       _rt_StopDataLogging        1000d510 f   rt_logging.obj
 0001:0000c530       _rt_StopDataLoggingImpl    1000d530 f   rt_logging.obj
 0001:0000c860       _rt_UpdateLogVar           1000d860 f   rt_logging.obj
 0001:0000d980       _rt_UpdateStructLogVar     1000e980 f   rt_logging.obj
 0001:0000da10       _rt_UpdateTXXFYLogVars     1000ea10 f   rt_logging.obj
 0001:0000de70       _rt_UpdateTXYLogVars       1000ee70 f   rt_logging.obj
 0001:0000e0c0       _rt_getTempMemory          1000f0c0 f   rt_logging.obj
 0001:0000e110       _sprintf                   1000f110 f i rt_logging.obj
 0001:0000e150       _driver_test_GetCAPIStaticMap 1000f150 f   driver_test_capi.obj
 0001:0000e160       _driver_test_InitializeDataMapInfo 1000f160 f   driver_test_capi.obj
 0001:0000e230       _mdlXcp_GetMdlXcpInfo      1000f230 f   driver_test_xcp.obj
 0001:0000e240       _SLRT_update_TET           1000f240 f   driver_test_xcp_TET.obj
 0001:0000e310       _rtGetInf                  1000f310 f   rtGetInf.obj
 0001:0000e340       _rtGetInfF                 1000f340 f   rtGetInf.obj
 0001:0000e360       _rtGetMinusInf             1000f360 f   rtGetInf.obj
 0001:0000e390       _rtGetMinusInfF            1000f390 f   rtGetInf.obj
 0001:0000e3b0       _rtGetNaN                  1000f3b0 f   rtGetNaN.obj
 0001:0000e3e0       _rtGetNaNF                 1000f3e0 f   rtGetNaN.obj
 0001:0000e400       _rtIsInf                   1000f400 f   rt_nonfinite.obj
 0001:0000e440       _rtIsInfF                  1000f440 f   rt_nonfinite.obj
 0001:0000e480       _rtIsNaN                   1000f480 f   rt_nonfinite.obj
 0001:0000e4a0       _rtIsNaNF                  1000f4a0 f   rt_nonfinite.obj
 0001:0000e4c0       _rt_InitInfAndNaN          1000f4c0 f   rt_nonfinite.obj
 0001:0000e520       _rt_CleanUpForStateLogWithMMI 1000f520 f   rt_logging_mmi.obj
 0001:0000e630       _rt_FillStateSigInfoFromMMI 1000f630 f   rt_logging_mmi.obj
 0001:0000e9d0       _rtwCAPI_CountSysRan       1000f9d0 f   rtw_modelmap_utils.obj
 0001:0000ea70       _rtwCAPI_EncodePath        1000fa70 f   rtw_modelmap_utils.obj
 0001:0000eb70       _rtwCAPI_FillSysRan        1000fb70 f   rtw_modelmap_utils.obj
 0001:0000ec60       _rtwCAPI_FreeFullPaths     1000fc60 f   rtw_modelmap_utils.obj
 0001:0000ecf0       _rtwCAPI_GetFullStateBlockPath 1000fcf0 f   rtw_modelmap_utils.obj
 0001:0000eea0       _rtwCAPI_GetNumContStateRecords 1000fea0 f   rtw_modelmap_utils.obj
 0001:0000ef60       _rtwCAPI_GetNumSigLogRecords 1000ff60 f   rtw_modelmap_utils.obj
 0001:0000efb0       _rtwCAPI_GetNumSigLogRecordsForRTWLogging 1000ffb0 f   rtw_modelmap_utils.obj
 0001:0000f050       _rtwCAPI_GetNumStateRecords 10010050 f   rtw_modelmap_utils.obj
 0001:0000f0a0       _rtwCAPI_GetNumStateRecordsForRTWLogging 100100a0 f   rtw_modelmap_utils.obj
 0001:0000f140       _rtwCAPI_GetSigAddrFromMap 10010140 f   rtw_modelmap_utils.obj
 0001:0000f200       _rtwCAPI_GetSigLogRecordInfo 10010200 f   rtw_modelmap_utils.obj
 0001:0000f630       _rtwCAPI_GetStateRecordInfo 10010630 f   rtw_modelmap_utils.obj
 0001:0000fae0       _rtwCAPI_GetStateWidth     10010ae0 f   rtw_modelmap_utils.obj
 0001:0000fb40       _rtwCAPI_HasStates         10010b40 f   rtw_modelmap_utils.obj
 0001:0000fbb0       _rtwCAPI_UpdateFullPaths   10010bb0 f   rtw_modelmap_utils.obj
 0001:0000fd90       _timestamp_x86             10010d90 f   host_timer_x86.obj
 0001:0000fda0       _taskTimeEnd               10010da0 f   xpc_code_profiling_utility_functions.obj
 0001:0000fdb0       _taskTimeEnd_              10010db0 f   xpc_code_profiling_utility_functions.obj
 0001:0000fdc0       _taskTimeStart             10010dc0 f   xpc_code_profiling_utility_functions.obj
 0001:0000fdd0       _taskTimeStart_            10010dd0 f   xpc_code_profiling_utility_functions.obj
 0001:0000fde0       _xilProfilingTimerFreeze   10010de0 f   xpc_code_profiling_utility_functions.obj
 0001:0000fdf0       _xilProfilingTimerUnFreeze 10010df0 f   xpc_code_profiling_utility_functions.obj
 0001:0000fe00       _xilUploadProfilingData    10010e00 f   xpc_code_profiling_utility_functions.obj
 0001:0000fe10       _DllMain@12                10010e10 f   xpctarget.obj
 0001:0000fe20       _SLRTSetErrorStatus        10010e20 f   xpctarget.obj
 0001:0000fe40       _changeStepSize            10010e40 f   xpctarget.obj
 0001:0000fe90       _driver_test_ChangeStepSize 10010e90 f   xpctarget.obj
 0001:0000fee0       _getDLMVersion             10010ee0 f   xpctarget.obj
 0001:0000fef0       _getRefMdlPath             10010ef0 f   xpctarget.obj
 0001:0000ff70       _getRefMdlSignalNumber     10010f70 f   xpctarget.obj
 0001:00010020       _getrlmdlinfo              10011020 f   xpctarget.obj
 0001:00010180       _updateDiscreteEvents      10011180 f   xpctarget.obj
 0001:00010190       _getNumRef                 10011190 f   appmappingData.obj
 0001:000101a0       _vprintf                   100111a0 f i legacy_stdio.obj
 0001:000101e0       _advantechpci1723          100111e0 f   advantechpci1723.obj
 0001:000109b0       _GetPCIDeviceFull          100119b0 f   xpcruntime:xpcimports.obj
 0001:00010a00       _GetPCIDeviceFunction      10011a00 f   xpcruntime:xpcimports.obj
 0001:00010a40       _ShowPCIDevice             10011a40 f   xpcruntime:xpcimports.obj
 0001:00011070       _slrtGetPciConfigAtFunction 10012070 f   xpcruntime:xpcimports.obj
 0001:000113e0       _xpcGetPciConfigAtSlot     100123e0 f   xpcruntime:xpcimports.obj
 0001:00011400       _xpcInitProcs              10012400 f   xpcruntime:xpcimports.obj
 0001:00012930       _xpceuploadevent           10013930 f   xpcruntime:xpcimports.obj
 0001:00012940       __ftoui3                   10013940 f   LIBCMT:_ftol3_.obj
 0001:0001294f       __ftoul3                   1001394f f   LIBCMT:_ftol3_.obj
 0001:0001295e       __ftol3                    1001395e f   LIBCMT:_ftol3_.obj
 0001:0001296b       __ftol3_NaN                1001396b f   LIBCMT:_ftol3_.obj
 0001:00012983       __ftol3_work               10013983 f   LIBCMT:_ftol3_.obj
 0001:00012a09       __ftol3_common             10013a09 f   LIBCMT:_ftol3_.obj
 0001:00012acb       __ftol3_arg_error          10013acb f   LIBCMT:_ftol3_.obj
 0001:00012add       __ftol3_except             10013add f   LIBCMT:_ftol3_.obj
 0001:00012b21       __dtoui3                   10013b21 f   LIBCMT:_ftol3_.obj
 0001:00012b30       __dtoul3                   10013b30 f   LIBCMT:_ftol3_.obj
 0001:00012b3f       __dtol3                    10013b3f f   LIBCMT:_ftol3_.obj
 0001:00012b4c       __dtol3_NaN                10013b4c f   LIBCMT:_ftol3_.obj
 0001:00012b69       __dtol3_work               10013b69 f   LIBCMT:_ftol3_.obj
 0001:00012c50       __ultod3                   10013c50 f   LIBCMT:_ftol3_.obj
 0001:00012c90       __ltod3                    10013c90 f   LIBCMT:_ftol3_.obj
 0001:00012d94       ___raise_securityfailure   10013d94 f   LIBCMT:gs_report.obj
 0001:00012dc6       ___report_gsfailure        10013dc6 f   LIBCMT:gs_report.obj
 0001:00012eff       ___report_rangecheckfailure 10013eff f   LIBCMT:gs_report.obj
 0001:00012f0e       ___report_securityfailure  10013f0e f   LIBCMT:gs_report.obj
 0001:00013012       ___report_securityfailureEx 10014012 f   LIBCMT:gs_report.obj
 0001:0001316d       @__security_check_cookie@4 1001416d f   LIBCMT:_secchk_.obj
 0001:00013182       ___isa_available_init      10014182 f   LIBCMT:_cpu_disp_.obj
 0001:0001374a       __CRT_INIT@12              1001474a f   LIBCMT:dll_dllmain.obj
 0001:00013755       __DllMainCRTStartup@12     10014755 f   LIBCMT:dll_dllmain.obj
 0001:00013780       ??$__crt_fast_decode_pointer@PAP6AXXZ@@YAPAP6AXXZQAP6AXXZ@Z 10014780 f i LIBCMT:utility.obj
 0001:00013799       ??$__crt_fast_encode_pointer@PAP6AXXZ@@YAPAP6AXXZQAP6AXXZ@Z 10014799 f i LIBCMT:utility.obj
 0001:000137bd       ?__crt_rotate_pointer_value@@YAIIH@Z 100147bd f i LIBCMT:utility.obj
 0001:000137cd       ?configure_argv@__scrt_narrow_argv_policy@@SAHXZ 100147cd f i LIBCMT:utility.obj
 0001:00013871       _NtCurrentTeb              10014871 f i LIBCMT:utility.obj
 0001:00013878       ___scrt_acquire_startup_lock 10014878 f   LIBCMT:utility.obj
 0001:000138ba       ___scrt_dllmain_after_initialize_c 100148ba f   LIBCMT:utility.obj
 0001:000138ef       ___scrt_dllmain_before_initialize_c 100148ef f   LIBCMT:utility.obj
 0001:00013900       ___scrt_dllmain_crt_thread_attach 10014900 f   LIBCMT:utility.obj
 0001:00013926       ___scrt_dllmain_crt_thread_detach 10014926 f   LIBCMT:utility.obj
 0001:00013936       ___scrt_dllmain_exception_filter 10014936 f   LIBCMT:utility.obj
 0001:00013975       ___scrt_dllmain_uninitialize_c 10014975 f   LIBCMT:utility.obj
 0001:000139a0       ___scrt_dllmain_uninitialize_critical 100149a0 f   LIBCMT:utility.obj
 0001:000139b0       ___scrt_initialize_crt     100149b0 f   LIBCMT:utility.obj
 0001:000139f7       ___scrt_initialize_onexit_tables 100149f7 f   LIBCMT:utility.obj
 0001:00013ab3       ___scrt_is_nonwritable_in_current_image 10014ab3 f   LIBCMT:utility.obj
 0001:00013b5f       ___scrt_release_startup_lock 10014b5f f   LIBCMT:utility.obj
 0001:00013b83       ___scrt_uninitialize_crt   10014b83 f   LIBCMT:utility.obj
 0001:00013bb5       __onexit                   10014bb5 f   LIBCMT:utility.obj
 0001:00013bfe       _at_quick_exit             10014bfe f   LIBCMT:utility.obj
 0001:00013c3b       _atexit                    10014c3b f   LIBCMT:utility.obj
 0001:00013c55       ___security_init_cookie    10014c55 f   LIBCMT:gs_support.obj
 0001:00013d18       ?__scrt_initialize_type_info@@YAXXZ 10014d18 f   LIBCMT:tncleanup.obj
 0001:00013d27       ?__scrt_uninitialize_type_info@@YAXXZ 10014d27 f   LIBCMT:tncleanup.obj
 0001:00013d36       ___local_stdio_scanf_options 10014d36 f i LIBCMT:default_local_stdio_options.obj
 0001:00013d3c       ___scrt_initialize_default_local_stdio_options 10014d3c f   LIBCMT:default_local_stdio_options.obj
 0001:00013d60       ___scrt_get_dyn_tls_init_callback 10014d60 f   LIBCMT:dyn_tls_init.obj
 0001:00013d66       ___scrt_fastfail           10014d66 f   LIBCMT:utility_desktop.obj
 0001:00013ec7       ___scrt_get_show_window_mode 10014ec7 f   LIBCMT:utility_desktop.obj
 0001:00013f06       ___scrt_initialize_winrt   10014f06 f   LIBCMT:utility_desktop.obj
 0001:00013f09       ___scrt_is_managed_app     10014f09 f   LIBCMT:utility_desktop.obj
 0001:00013f5e       ___scrt_set_unhandled_exception_filter 10014f5e f   LIBCMT:utility_desktop.obj
 0001:00013f6d       ___scrt_unhandled_exception_filter@4 10014f6d f   LIBCMT:utility_desktop.obj
 0001:00013fbe       __crt_debugger_hook        10014fbe f   LIBCMT:utility_desktop.obj
 0001:00013fc8       __RTC_Initialize           10014fc8 f   LIBCMT:_initsect_.obj
 0001:00013ffd       __RTC_Terminate            10014ffd f   LIBCMT:_initsect_.obj
 0001:00014032       @_guard_check_icall@4      10015032 f i LIBCMT:checkcfg.obj
 0001:00014040       __SEH_prolog4              10015040 f   LIBCMT:_sehprolg4_.obj
 0001:00014086       __SEH_epilog4              10015086 f   LIBCMT:_sehprolg4_.obj
 0001:000140b1       __get_startup_argv_mode    100150b1 f   LIBCMT:argv_mode.obj
 0001:000140b5       ___scrt_is_ucrt_dll_in_use 100150b5 f   LIBCMT:ucrt_detection.obj
 0001:000140c4       @_guard_check_icall_nop@4  100150c4 f i LIBCMT:guard_support.obj
 0001:000140c5       __guard_icall_checks_enforced 100150c5 f i LIBCMT:guard_support.obj
 0001:000140dc       _GetModuleHandleA@4        100150dc f   kernel32:KERNEL32.dll
 0001:000140e2       _GetProcAddress@8          100150e2 f   kernel32:KERNEL32.dll
 0001:000140e8       _UnhandledExceptionFilter@4 100150e8 f   kernel32:KERNEL32.dll
 0001:000140ee       _SetUnhandledExceptionFilter@4 100150ee f   kernel32:KERNEL32.dll
 0001:000140f4       _GetCurrentProcess@0       100150f4 f   kernel32:KERNEL32.dll
 0001:000140fa       _TerminateProcess@8        100150fa f   kernel32:KERNEL32.dll
 0001:00014100       _IsProcessorFeaturePresent@4 10015100 f   kernel32:KERNEL32.dll
 0001:00014106       _QueryPerformanceCounter@4 10015106 f   kernel32:KERNEL32.dll
 0001:0001410c       _GetCurrentProcessId@0     1001510c f   kernel32:KERNEL32.dll
 0001:00014112       _GetCurrentThreadId@0      10015112 f   kernel32:KERNEL32.dll
 0001:00014118       _GetSystemTimeAsFileTime@4 10015118 f   kernel32:KERNEL32.dll
 0001:0001411e       _InitializeSListHead@4     1001511e f   kernel32:KERNEL32.dll
 0001:00014124       _IsDebuggerPresent@0       10015124 f   kernel32:KERNEL32.dll
 0001:0001412a       _GetStartupInfoW@4         1001512a f   kernel32:KERNEL32.dll
 0001:00014130       _GetModuleHandleW@4        10015130 f   kernel32:KERNEL32.dll
 0001:00014140       _memset                    10015140 f   libvcruntime:memset.obj
 0001:000142f0       _memcpy                    100152f0 f   libvcruntime:memcpy.obj
 0001:000149d0       _memmove                   100159d0 f   libvcruntime:memmove.obj
 0001:000150b0       _strchr                    100160b0 f   libvcruntime:strchr.obj
 0001:0001511e       ___from_strstr_to_strchr   1001611e     libvcruntime:strchr.obj
 0001:00015270       __except_handler4          10016270 f   libvcruntime:_chandler4_.obj
 0001:0001542f       ___vcrt_initialize         1001642f f   libvcruntime:initialization.obj
 0001:00015462       ___vcrt_thread_attach      10016462 f   libvcruntime:initialization.obj
 0001:0001546f       ___vcrt_thread_detach      1001646f f   libvcruntime:initialization.obj
 0001:0001547c       ___vcrt_uninitialize       1001647c f   libvcruntime:initialization.obj
 0001:000154a2       ___vcrt_uninitialize_critical 100164a2 f   libvcruntime:initialization.obj
 0001:000154bd       ??$?RD@__crt_internal_free_policy@@QBEXQBD@Z 100164bd f i libvcruntime:std_type_info.obj
 0001:000154d1       ??$?RX@__crt_internal_free_policy@@QBEXQBX@Z 100164d1 f i libvcruntime:std_type_info.obj
 0001:000154e5       ??$__crt_interlocked_compare_exchange_pointer@$$CBD$$T$$T@@YAPBDPDSBD$$T1@Z 100164e5 f i libvcruntime:std_type_info.obj
 0001:000154fb       ??$__crt_interlocked_compare_exchange_pointer@$$CBDPAD$$T@@YAPBDPDSBDQAD$$T@Z 100164fb f i libvcruntime:std_type_info.obj
 0001:00015511       ??$__crt_interlocked_read_pointer@$$CBD@@YAPBDPDSBD@Z 10016511 f i libvcruntime:std_type_info.obj
 0001:00015525       ??0?$__crt_unique_heap_ptr@DU__crt_internal_free_policy@@@@QAE@QAD@Z 10016525 f i libvcruntime:std_type_info.obj
 0001:00015536       ??0?$__crt_unique_heap_ptr@XU__crt_internal_free_policy@@@@QAE@QAX@Z 10016536 f i libvcruntime:std_type_info.obj
 0001:00015547       ??1?$__crt_unique_heap_ptr@DU__crt_internal_free_policy@@@@QAE@XZ 10016547 f i libvcruntime:std_type_info.obj
 0001:0001555b       ??1?$__crt_unique_heap_ptr@XU__crt_internal_free_policy@@@@QAE@XZ 1001655b f i libvcruntime:std_type_info.obj
 0001:0001557b       ??B?$__crt_unique_heap_ptr@DU__crt_internal_free_policy@@@@QBE_NXZ 1001657b f i libvcruntime:std_type_info.obj
 0001:00015582       ??B?$__crt_unique_heap_ptr@XU__crt_internal_free_policy@@@@QBE_NXZ 10016582 f i libvcruntime:std_type_info.obj
 0001:000155b1       ?detach@?$__crt_unique_heap_ptr@XU__crt_internal_free_policy@@@@QAEPAXXZ 100165b1 f i libvcruntime:std_type_info.obj
 0001:000155b7       ?get@?$__crt_unique_heap_ptr@DU__crt_internal_free_policy@@@@QBEPADXZ 100165b7 f i libvcruntime:std_type_info.obj
 0001:000155ba       ?get@?$__crt_unique_heap_ptr@XU__crt_internal_free_policy@@@@QBEPAXXZ 100165ba f i libvcruntime:std_type_info.obj
 0001:000155bd       ?is_valid@?$__crt_unique_heap_ptr@DU__crt_internal_free_policy@@@@QBE_NXZ 100165bd f i libvcruntime:std_type_info.obj
 0001:000155c4       ?is_valid@?$__crt_unique_heap_ptr@XU__crt_internal_free_policy@@@@QBE_NXZ 100165c4 f i libvcruntime:std_type_info.obj
 0001:000155cb       ?release@?$__crt_unique_heap_ptr@DU__crt_internal_free_policy@@@@QAEXXZ 100165cb f i libvcruntime:std_type_info.obj
 0001:000155df       ?release@?$__crt_unique_heap_ptr@XU__crt_internal_free_policy@@@@QAEXXZ 100165df f i libvcruntime:std_type_info.obj
 0001:000155f3       ___std_type_info_compare   100165f3 f   libvcruntime:std_type_info.obj
 0001:0001563e       ___std_type_info_destroy_list 1001663e f   libvcruntime:std_type_info.obj
 0001:00015669       ___std_type_info_hash      10016669 f   libvcruntime:std_type_info.obj
 0001:00015698       ___std_type_info_name      10016698 f   libvcruntime:std_type_info.obj
 0001:000157a0       __local_unwind4            100167a0 f   libvcruntime:_exsup4_.obj
 0001:00015876       __seh_longjmp_unwind4@4    10016876 f   libvcruntime:_exsup4_.obj
 0001:0001589e       @_EH4_CallFilterFunc@8     1001689e f   libvcruntime:_exsup4_.obj
 0001:000158b5       @_EH4_TransferToHandler@8  100168b5 f   libvcruntime:_exsup4_.obj
 0001:000158ce       @_EH4_GlobalUnwind2@8      100168ce f   libvcruntime:_exsup4_.obj
 0001:000158e7       @_EH4_LocalUnwind@16       100168e7 f   libvcruntime:_exsup4_.obj
 0001:00015955       ___except_validate_context_record 10016955 f   libvcruntime:jbcxrval.obj
 0001:00015956       ___except_validate_jump_buffer 10016956 f   libvcruntime:jbcxrval.obj
 0001:00015957       ??$?RU__vcrt_ptd@@@__crt_internal_free_policy@@QBEXQBU__vcrt_ptd@@@Z 10016957 f i libvcruntime:per_thread_data.obj
 0001:0001596b       ??0?$__crt_unique_heap_ptr@U__vcrt_ptd@@U__crt_internal_free_policy@@@@QAE@QAU__vcrt_ptd@@@Z 1001696b f i libvcruntime:per_thread_data.obj
 0001:0001598e       ??1?$__crt_unique_heap_ptr@U__vcrt_ptd@@U__crt_internal_free_policy@@@@QAE@XZ 1001698e f i libvcruntime:per_thread_data.obj
 0001:000159ad       ??B?$__crt_unique_heap_ptr@U__vcrt_ptd@@U__crt_internal_free_policy@@@@QBE_NXZ 100169ad f i libvcruntime:per_thread_data.obj
 0001:000159b4       ?detach@?$__crt_unique_heap_ptr@U__vcrt_ptd@@U__crt_internal_free_policy@@@@QAEPAU__vcrt_ptd@@XZ 100169b4 f i libvcruntime:per_thread_data.obj
 0001:000159ba       ?get@?$__crt_unique_heap_ptr@U__vcrt_ptd@@U__crt_internal_free_policy@@@@QBEPAU__vcrt_ptd@@XZ 100169ba f i libvcruntime:per_thread_data.obj
 0001:000159bd       ?is_valid@?$__crt_unique_heap_ptr@U__vcrt_ptd@@U__crt_internal_free_policy@@@@QBE_NXZ 100169bd f i libvcruntime:per_thread_data.obj
 0001:000159c4       ?release@?$__crt_unique_heap_ptr@U__vcrt_ptd@@U__crt_internal_free_policy@@@@QAEXXZ 100169c4 f i libvcruntime:per_thread_data.obj
 0001:000159f8       ___vcrt_freefls@4          100169f8 f   libvcruntime:per_thread_data.obj
 0001:00015a1b       ___vcrt_freeptd            10016a1b f   libvcruntime:per_thread_data.obj
 0001:00015a5e       ___vcrt_getptd             10016a5e f   libvcruntime:per_thread_data.obj
 0001:00015a6f       ___vcrt_getptd_noexit      10016a6f f   libvcruntime:per_thread_data.obj
 0001:00015b25       ___vcrt_initialize_ptd     10016b25 f   libvcruntime:per_thread_data.obj
 0001:00015b64       ___vcrt_uninitialize_ptd   10016b64 f   libvcruntime:per_thread_data.obj
 0001:00015b85       ___vcrt_initialize_locks   10016b85 f   libvcruntime:locks.obj
 0001:00015bd0       ___vcrt_lock               10016bd0 f   libvcruntime:locks.obj
 0001:00015bea       ___vcrt_uninitialize_locks 10016bea f   libvcruntime:locks.obj
 0001:00015c24       ___vcrt_unlock             10016c24 f   libvcruntime:locks.obj
 0001:00015c3e       ??$?BX@__crt_fast_encoded_nullptr_t@@QBEPAXXZ 10016c3e f i libvcruntime:winapi_downlevel.obj
 0001:00015c5c       ??$__crt_fast_decode_pointer@PAX@@YAPAXQAX@Z 10016c5c f i libvcruntime:winapi_downlevel.obj
 0001:00015c75       ??$__crt_fast_encode_pointer@PAX@@YAPAXQAX@Z 10016c75 f i libvcruntime:winapi_downlevel.obj
 0001:00015c99       ??$__crt_interlocked_compare_exchange_pointer@UHINSTANCE__@@$$T$$T@@YAPAUHINSTANCE__@@PDSAU0@$$T1@Z 10016c99 f i libvcruntime:winapi_downlevel.obj
 0001:00015caf       ??$__crt_interlocked_compare_exchange_pointer@X$$T$$T@@YAPAXPDSAX$$T1@Z 10016caf f i libvcruntime:winapi_downlevel.obj
 0001:00015cc5       ??$__crt_interlocked_exchange_pointer@UHINSTANCE__@@PAU1@@@YAPAUHINSTANCE__@@PDSAU0@QAU0@@Z 10016cc5 f i libvcruntime:winapi_downlevel.obj
 0001:00015cd5       ??$__crt_interlocked_exchange_pointer@UHINSTANCE__@@PAX@@YAPAUHINSTANCE__@@PDSAU0@QAX@Z 10016cd5 f i libvcruntime:winapi_downlevel.obj
 0001:00015ce5       ??$__crt_interlocked_exchange_pointer@XPAX@@YAPAXPDSAXQAX@Z 10016ce5 f i libvcruntime:winapi_downlevel.obj
 0001:00015cf5       ??$__crt_interlocked_read_pointer@UHINSTANCE__@@@@YAPAUHINSTANCE__@@PDSAU0@@Z 10016cf5 f i libvcruntime:winapi_downlevel.obj
 0001:00015d09       ??$__crt_interlocked_read_pointer@X@@YAPAXPDSAX@Z 10016d09 f i libvcruntime:winapi_downlevel.obj
 0001:00015d1d       ?__crt_fast_encode_pointer@@YA?AU__crt_fast_encoded_nullptr_t@@$$T@Z 10016d1d f i libvcruntime:winapi_downlevel.obj
 0001:00016061       ___vcrt_EventRegister      10017061 f   libvcruntime:winapi_downlevel.obj
 0001:000160b1       ___vcrt_EventSetInformation 100170b1 f   libvcruntime:winapi_downlevel.obj
 0001:00016104       ___vcrt_EventUnregister    10017104 f   libvcruntime:winapi_downlevel.obj
 0001:0001614c       ___vcrt_EventWriteTransfer 1001714c f   libvcruntime:winapi_downlevel.obj
 0001:000161a7       ___vcrt_FlsAlloc           100171a7 f   libvcruntime:winapi_downlevel.obj
 0001:000161ef       ___vcrt_FlsFree            100171ef f   libvcruntime:winapi_downlevel.obj
 0001:00016237       ___vcrt_FlsGetValue        10017237 f   libvcruntime:winapi_downlevel.obj
 0001:0001627f       ___vcrt_FlsSetValue        1001727f f   libvcruntime:winapi_downlevel.obj
 0001:000162cb       ___vcrt_InitializeCriticalSectionEx 100172cb f   libvcruntime:winapi_downlevel.obj
 0001:00016322       ___vcrt_initialize_winapi_thunks 10017322 f   libvcruntime:winapi_downlevel.obj
 0001:0001636a       ___vcrt_uninitialize_winapi_thunks 1001736a f   libvcruntime:winapi_downlevel.obj
 0001:000163a8       ??$?B$$A6AXXZ@__crt_fast_encoded_nullptr_t@@QBEP6AXXZXZ 100173a8 f i libvcruntime:purevirt_data.obj
 0001:000163c6       ??$__crt_fast_encode_pointer@P6AXXZ@@YAP6AXXZQ6AXXZ@Z 100173c6 f i libvcruntime:purevirt_data.obj
 0001:000163ea       ___vcrt_initialize_pure_virtual_call_handler 100173ea f   libvcruntime:purevirt_data.obj
 0001:0001640e       ??$__vcrt_va_start_verify_argument_type@QBD@@YAXXZ 1001740e f i libvcruntime:undname.obj
 0001:0001640f       ??0Block@_HeapManager@@QAE@XZ 1001740f f i libvcruntime:undname.obj
 0001:00016415       ??0DName@@QAE@AAPBDD@Z     10017415 f   libvcruntime:undname.obj
 0001:000164fc       ??0DName@@QAE@ABV0@@Z      100174fc f i libvcruntime:undname.obj
 0001:00016517       ??0DName@@QAE@D@Z          10017517 f   libvcruntime:undname.obj
 0001:0001654e       ??0DName@@QAE@PAV0@@Z      1001754e f   libvcruntime:undname.obj
 0001:000165ae       ??0DName@@QAE@PBD@Z        100175ae f   libvcruntime:undname.obj
 0001:000165f6       ??0DName@@QAE@W4DNameStatus@@@Z 100175f6 f   libvcruntime:undname.obj
 0001:00016649       ??0DName@@QAE@XZ           10017649 f i libvcruntime:undname.obj
 0001:0001665e       ??0DName@@QAE@_J@Z         1001765e f   libvcruntime:undname.obj
 0001:00016718       ??0DName@@QAE@_K@Z         10017718 f   libvcruntime:undname.obj
 0001:000167a2       ??0DNameNode@@IAE@XZ       100177a2 f   libvcruntime:undname.obj
 0001:000167ad       ??0DNameStatusNode@@AAE@W4DNameStatus@@@Z 100177ad f   libvcruntime:undname.obj
 0001:000167d8       ??0Replicator@@QAE@XZ      100177d8 f i libvcruntime:undname.obj
 0001:000167de       ??0UnDecorator@@QAE@PADPBDHP6APADJ@ZK@Z 100177de f i libvcruntime:undname.obj
 0001:00016861       ??0charNode@@QAE@D@Z       10017861 f   libvcruntime:undname.obj
 0001:0001687b       ??0pDNameNode@@QAE@PAVDName@@@Z 1001787b f   libvcruntime:undname.obj
 0001:000168ad       ??0pairNode@@QAE@PAVDNameNode@@0@Z 100178ad f   libvcruntime:undname.obj
 0001:000168d3       ??0pcharNode@@QAE@PBDH@Z   100178d3 f   libvcruntime:undname.obj
 0001:00016942       ??2@YAPAXIAAV_HeapManager@@H@Z 10017942 f i libvcruntime:undname.obj
 0001:0001695c       ??4DName@@QAEAAV0@ABV0@@Z  1001795c f   libvcruntime:undname.obj
 0001:00016977       ??4DName@@QAEAAV0@D@Z      10017977 f i libvcruntime:undname.obj
 0001:000169ae       ??4DName@@QAEAAV0@PAV0@@Z  100179ae f   libvcruntime:undname.obj
 0001:00016a09       ??4DName@@QAEAAV0@PBD@Z    10017a09 f   libvcruntime:undname.obj
 0001:00016a47       ??4DName@@QAEAAV0@W4DNameStatus@@@Z 10017a47 f   libvcruntime:undname.obj
 0001:00016a89       ??AReplicator@@QBE?AVDName@@H@Z 10017a89 f   libvcruntime:undname.obj
 0001:00016ad4       ??BUnDecorator@@QAEPADXZ   10017ad4 f i libvcruntime:undname.obj
 0001:00016cab       ??H@YA?AVDName@@DABV0@@Z   10017cab f i libvcruntime:undname.obj
 0001:00016cd8       ??H@YA?AVDName@@PBDABV0@@Z 10017cd8 f i libvcruntime:undname.obj
 0001:00016d05       ??H@YA?AVDName@@W4DNameStatus@@ABV0@@Z 10017d05 f i libvcruntime:undname.obj
 0001:00016d32       ??HDName@@QBE?AV0@ABV0@@Z  10017d32 f   libvcruntime:undname.obj
 0001:00016d5c       ??HDName@@QBE?AV0@D@Z      10017d5c f   libvcruntime:undname.obj
 0001:00016d86       ??HDName@@QBE?AV0@PAV0@@Z  10017d86 f   libvcruntime:undname.obj
 0001:00016db0       ??HDName@@QBE?AV0@PBD@Z    10017db0 f   libvcruntime:undname.obj
 0001:00016dda       ??HDName@@QBE?AV0@W4DNameStatus@@@Z 10017dda f   libvcruntime:undname.obj
 0001:00016e04       ??YDName@@QAEAAV0@ABV0@@Z  10017e04 f   libvcruntime:undname.obj
 0001:00016e57       ??YDName@@QAEAAV0@D@Z      10017e57 f   libvcruntime:undname.obj
 0001:00016ebb       ??YDName@@QAEAAV0@PAV0@@Z  10017ebb f   libvcruntime:undname.obj
 0001:00016f39       ??YDName@@QAEAAV0@PBD@Z    10017f39 f   libvcruntime:undname.obj
 0001:00016fb2       ??YDName@@QAEAAV0@W4DNameStatus@@@Z 10017fb2 f   libvcruntime:undname.obj
 0001:00017002       ??YReplicator@@QAEAAV0@ABVDName@@@Z 10018002 f   libvcruntime:undname.obj
 0001:0001705e       ??_5DName@@QAEAAV0@ABV0@@Z 1001805e f   libvcruntime:undname.obj
 0001:00017081       ?Constructor@_HeapManager@@QAEXP6APAXI@ZP6AXPAX@Z@Z 10018081 f i libvcruntime:undname.obj
 0001:000170a5       ?Destructor@_HeapManager@@QAEXXZ 100180a5 f i libvcruntime:undname.obj
 0001:000170ec       ?UScore@UnDecorator@@SAPBDW4Tokens@@@Z 100180ec f   libvcruntime:undname.obj
 0001:00017110       ?append@DName@@AAEXPAVDNameNode@@@Z 10018110 f   libvcruntime:undname.obj
 0001:00017167       ?composeDeclaration@UnDecorator@@CA?AVDName@@ABV2@@Z 10018167 f i libvcruntime:undname.obj
 0001:000181a2       ?doAccessSpecifiers@UnDecorator@@SAHXZ 100191a2 f i libvcruntime:undname.obj
 0001:000181b3       ?doAllocationLanguage@UnDecorator@@SAHXZ 100191b3 f i libvcruntime:undname.obj
 0001:000181c4       ?doAllocationModel@UnDecorator@@SAHXZ 100191c4 f i libvcruntime:undname.obj
 0001:000181d5       ?doEcsu@UnDecorator@@SAHXZ 100191d5 f i libvcruntime:undname.obj
 0001:000181e6       ?doEllipsis@UnDecorator@@SAHXZ 100191e6 f i libvcruntime:undname.obj
 0001:000181f7       ?doFunctionReturns@UnDecorator@@SAHXZ 100191f7 f i libvcruntime:undname.obj
 0001:00018208       ?doMSKeywords@UnDecorator@@SAHXZ 10019208 f i libvcruntime:undname.obj
 0001:00018218       ?doMemberTypes@UnDecorator@@SAHXZ 10019218 f i libvcruntime:undname.obj
 0001:00018229       ?doNameOnly@UnDecorator@@SAHXZ 10019229 f i libvcruntime:undname.obj
 0001:00018236       ?doNoIdentCharCheck@UnDecorator@@SAHXZ 10019236 f i libvcruntime:undname.obj
 0001:00018243       ?doPchar@DName@@AAEXPBDH@Z 10019243 f   libvcruntime:undname.obj
 0001:000182ef       ?doPtr64@UnDecorator@@SAHXZ 100192ef f i libvcruntime:undname.obj
 0001:00018300       ?doRestrictionSpec@UnDecorator@@SAHXZ 10019300 f i libvcruntime:undname.obj
 0001:00018311       ?doThisTypes@UnDecorator@@SAHXZ 10019311 f i libvcruntime:undname.obj
 0001:00018327       ?doThrowTypes@UnDecorator@@SAHXZ 10019327 f i libvcruntime:undname.obj
 0001:00018338       ?doTypeOnly@UnDecorator@@SAHXZ 10019338 f i libvcruntime:undname.obj
 0001:00018345       ?doUnderScore@UnDecorator@@SAHXZ 10019345 f i libvcruntime:undname.obj
 0001:00018352       ?getArgumentList@UnDecorator@@CA?AVDName@@XZ 10019352 f   libvcruntime:undname.obj
 0001:000184a1       ?getArgumentTypes@UnDecorator@@CA?AVDName@@XZ 100194a1 f   libvcruntime:undname.obj
 0001:000185b9       ?getArrayType@UnDecorator@@CA?AVDName@@ABV2@@Z 100195b9 f i libvcruntime:undname.obj
 0001:0001883b       ?getBasedType@UnDecorator@@CA?AVDName@@XZ 1001983b f   libvcruntime:undname.obj
 0001:000188fa       ?getBasicDataType@UnDecorator@@CA?AVDName@@ABV2@@Z 100198fa f   libvcruntime:undname.obj
 0001:00018de4       ?getCallIndex@UnDecorator@@CA?AVDName@@XZ 10019de4 f i libvcruntime:undname.obj
 0001:00018dfd       ?getCallingConvention@UnDecorator@@CA?AVDName@@XZ 10019dfd f   libvcruntime:undname.obj
 0001:00018eeb       ?getDataIndirectType@UnDecorator@@CA?AVDName@@ABV2@PBD0H@Z 10019eeb f   libvcruntime:undname.obj
 0001:00019696       ?getDataIndirectType@UnDecorator@@CA?AVDName@@XZ 1001a696 f i libvcruntime:undname.obj
 0001:000196dd       ?getDataType@UnDecorator@@CA?AVDName@@PAV2@@Z 1001a6dd f   libvcruntime:undname.obj
 0001:000197e3       ?getDecoratedName@UnDecorator@@CA?AVDName@@XZ 1001a7e3 f   libvcruntime:undname.obj
 0001:00019ac2       ?getDimension@UnDecorator@@CA?AVDName@@_N@Z 1001aac2 f   libvcruntime:undname.obj
 0001:00019c46       ?getDispatchTarget@UnDecorator@@CA?AVDName@@XZ 1001ac46 f   libvcruntime:undname.obj
 0001:00019cb7       ?getDisplacement@UnDecorator@@CA?AVDName@@XZ 1001acb7 f i libvcruntime:undname.obj
 0001:00019cd0       ?getECSUDataType@UnDecorator@@CA?AVDName@@XZ 1001acd0 f   libvcruntime:undname.obj
 0001:00019e34       ?getECSUName@UnDecorator@@CA?AVDName@@XZ 1001ae34 f i libvcruntime:undname.obj
 0001:00019e49       ?getEnumType@UnDecorator@@CA?AVDName@@XZ 1001ae49 f i libvcruntime:undname.obj
 0001:00019f70       ?getExtendedDataIndirectType@UnDecorator@@CA?AVDName@@AAPBDAA_NH@Z 1001af70 f   libvcruntime:undname.obj
 0001:0001a183       ?getExternalDataType@UnDecorator@@CA?AVDName@@ABV2@@Z 1001b183 f i libvcruntime:undname.obj
 0001:0001a21a       ?getFunctionIndirectType@UnDecorator@@CA?AVDName@@ABV2@@Z 1001b21a f   libvcruntime:undname.obj
 0001:0001a725       ?getGuardNumber@UnDecorator@@CA?AVDName@@XZ 1001b725 f i libvcruntime:undname.obj
 0001:0001a73e       ?getLastChar@DName@@QBEDXZ 1001b73e f i libvcruntime:undname.obj
 0001:0001a764       ?getLastChar@DNameStatusNode@@UBEDXZ 1001b764 f i libvcruntime:undname.obj
 0001:0001a773       ?getLastChar@charNode@@UBEDXZ 1001b773 f i libvcruntime:undname.obj
 0001:0001a777       ?getLastChar@pDNameNode@@UBEDXZ 1001b777 f i libvcruntime:undname.obj
 0001:0001a788       ?getLastChar@pairNode@@UBEDXZ 1001b788 f i libvcruntime:undname.obj
 0001:0001a7c7       ?getLastChar@pcharNode@@UBEDXZ 1001b7c7 f i libvcruntime:undname.obj
 0001:0001a7dd       ?getLexicalFrame@UnDecorator@@CA?AVDName@@XZ 1001b7dd f i libvcruntime:undname.obj
 0001:0001a829       ?getMemory@_HeapManager@@QAEPAXIH@Z 1001b829 f   libvcruntime:undname.obj
 0001:0001a8da       ?getNumberOfDimensions@UnDecorator@@CAHXZ 1001b8da f   libvcruntime:undname.obj
 0001:0001a953       ?getOperatorName@UnDecorator@@CA?AVDName@@_NPA_N@Z 1001b953 f i libvcruntime:undname.obj
 0001:0001b103       ?getPointerType@UnDecorator@@CA?AVDName@@ABV2@0@Z 1001c103 f i libvcruntime:undname.obj
 0001:0001b128       ?getPointerTypeArray@UnDecorator@@CA?AVDName@@ABV2@0@Z 1001c128 f i libvcruntime:undname.obj
 0001:0001b14d       ?getPrimaryDataType@UnDecorator@@CA?AVDName@@ABV2@@Z 1001c14d f   libvcruntime:undname.obj
 0001:0001b3be       ?getPtrRefDataType@UnDecorator@@CA?AVDName@@ABV2@H@Z 1001c3be f   libvcruntime:undname.obj
 0001:0001b500       ?getPtrRefType@UnDecorator@@CA?AVDName@@ABV2@0PBD@Z 1001c500 f   libvcruntime:undname.obj
 0001:0001b63b       ?getReferenceType@UnDecorator@@CA?AVDName@@ABV2@0PBD@Z 1001c63b f i libvcruntime:undname.obj
 0001:0001b65e       ?getRestrictionSpec@UnDecorator@@CA?AVDName@@XZ 1001c65e f   libvcruntime:undname.obj
 0001:0001b78c       ?getReturnType@UnDecorator@@CA?AVDName@@PAV2@@Z 1001c78c f   libvcruntime:undname.obj
 0001:0001b7c6       ?getScope@UnDecorator@@CA?AVDName@@XZ 1001c7c6 f   libvcruntime:undname.obj
 0001:0001bc9b       ?getScopedName@UnDecorator@@CA?AVDName@@XZ 1001cc9b f   libvcruntime:undname.obj
 0001:0001bdd4       ?getSignedDimension@UnDecorator@@CA?AVDName@@XZ 1001cdd4 f   libvcruntime:undname.obj
 0001:0001be3b       ?getStorageConvention@UnDecorator@@CA?AVDName@@XZ 1001ce3b f i libvcruntime:undname.obj
 0001:0001be50       ?getString@DName@@QBEPADPAD0@Z 1001ce50 f i libvcruntime:undname.obj
 0001:0001be87       ?getString@DName@@QBEPADPADH@Z 1001ce87 f i libvcruntime:undname.obj
 0001:0001bef2       ?getString@DNameStatusNode@@UBEPADPAD0@Z 1001cef2 f i libvcruntime:undname.obj
 0001:0001bf22       ?getString@charNode@@UBEPADPAD0@Z 1001cf22 f i libvcruntime:undname.obj
 0001:0001bf3c       ?getString@pDNameNode@@UBEPADPAD0@Z 1001cf3c f i libvcruntime:undname.obj
 0001:0001bf58       ?getString@pairNode@@UBEPADPAD0@Z 1001cf58 f i libvcruntime:undname.obj
 0001:0001bfad       ?getString@pcharNode@@UBEPADPAD0@Z 1001cfad f i libvcruntime:undname.obj
 0001:0001bfce       ?getStringEncoding@UnDecorator@@CA?AVDName@@PADH@Z 1001cfce f   libvcruntime:undname.obj
 0001:0001c099       ?getStringHelper@@YAPADPAD00H@Z 1001d099 f i libvcruntime:undname.obj
 0001:0001c0dd       ?getSymbolName@UnDecorator@@CA?AVDName@@XZ 1001d0dd f i libvcruntime:undname.obj
 0001:0001c137       ?getTemplateArgumentList@UnDecorator@@CA?AVDName@@XZ 1001d137 f   libvcruntime:undname.obj
 0001:0001c484       ?getTemplateConstant@UnDecorator@@CA?AVDName@@XZ 1001d484 f   libvcruntime:undname.obj
 0001:0001c899       ?getTemplateName@UnDecorator@@CA?AVDName@@_N@Z 1001d899 f   libvcruntime:undname.obj
 0001:0001ca44       ?getThisType@UnDecorator@@CA?AVDName@@XZ 1001da44 f i libvcruntime:undname.obj
 0001:0001ca8c       ?getThrowTypes@UnDecorator@@CA?AVDName@@XZ 1001da8c f   libvcruntime:undname.obj
 0001:0001cb38       ?getTypeEncoding@UnDecorator@@CAHXZ 1001db38 f i libvcruntime:undname.obj
 0001:0001cf34       ?getVCallThunkType@UnDecorator@@CA?AVDName@@XZ 1001df34 f i libvcruntime:undname.obj
 0001:0001cf7d       ?getVbTableType@UnDecorator@@CA?AVDName@@ABV2@@Z 1001df7d f i libvcruntime:undname.obj
 0001:0001cf97       ?getVdispMapType@UnDecorator@@CA?AVDName@@ABV2@@Z 1001df97 f i libvcruntime:undname.obj
 0001:0001d002       ?getVfTableType@UnDecorator@@CA?AVDName@@ABV2@@Z 1001e002 f i libvcruntime:undname.obj
 0001:0001d1c0       ?getZName@UnDecorator@@CA?AVDName@@_N0@Z 1001e1c0 f   libvcruntime:undname.obj
 0001:0001d490       ?haveTemplateParameters@UnDecorator@@SAHXZ 1001e490 f i libvcruntime:undname.obj
 0001:0001d49d       ?isArray@DName@@QBEHXZ     1001e49d f i libvcruntime:undname.obj
 0001:0001d4a9       ?isComArray@DName@@QBEHXZ  1001e4a9 f i libvcruntime:undname.obj
 0001:0001d4b5       ?isEmpty@DName@@QBEHXZ     1001e4b5 f i libvcruntime:undname.obj
 0001:0001d4bf       ?isFull@Replicator@@QBEHXZ 1001e4bf f i libvcruntime:undname.obj
 0001:0001d4ca       ?isNoTE@DName@@QBEHXZ      1001e4ca f i libvcruntime:undname.obj
 0001:0001d4d6       ?isPinPtr@DName@@QBEHXZ    1001e4d6 f i libvcruntime:undname.obj
 0001:0001d4e2       ?isPtrRef@DName@@QBEHXZ    1001e4e2 f i libvcruntime:undname.obj
 0001:0001d4ee       ?isUDC@DName@@QBEHXZ       1001e4ee f i libvcruntime:undname.obj
 0001:0001d503       ?isUDTThunk@DName@@QBEHXZ  1001e503 f i libvcruntime:undname.obj
 0001:0001d518       ?isVCallThunk@DName@@QBEHXZ 1001e518 f i libvcruntime:undname.obj
 0001:0001d524       ?isValid@DName@@QBEHXZ     1001e524 f i libvcruntime:undname.obj
 0001:0001d530       ?length@DName@@QBEHXZ      1001e530 f i libvcruntime:undname.obj
 0001:0001d555       ?length@DNameStatusNode@@UBEHXZ 1001e555 f i libvcruntime:undname.obj
 0001:0001d559       ?length@charNode@@UBEHXZ   1001e559 f i libvcruntime:undname.obj
 0001:0001d55d       ?length@pDNameNode@@UBEHXZ 1001e55d f i libvcruntime:undname.obj
 0001:0001d56e       ?length@pairNode@@UBEHXZ   1001e56e f i libvcruntime:undname.obj
 0001:0001d5ca       ?length@pcharNode@@UBEHXZ  1001e5ca f i libvcruntime:undname.obj
 0001:0001d5ce       ?make@DNameStatusNode@@SAPAV1@W4DNameStatus@@@Z 1001e5ce f i libvcruntime:undname.obj
 0001:0001d675       ?setIsArray@DName@@QAEXXZ  1001e675 f i libvcruntime:undname.obj
 0001:0001d67f       ?setIsComArray@DName@@QAEXXZ 1001e67f f i libvcruntime:undname.obj
 0001:0001d689       ?setIsNoTE@DName@@QAEXXZ   1001e689 f i libvcruntime:undname.obj
 0001:0001d693       ?setIsPinPtr@DName@@QAEXXZ 1001e693 f i libvcruntime:undname.obj
 0001:0001d69d       ?setIsUDC@DName@@QAEXXZ    1001e69d f i libvcruntime:undname.obj
 0001:0001d6ad       ?setIsVCallThunk@DName@@QAEXXZ 1001e6ad f i libvcruntime:undname.obj
 0001:0001d6b7       ?setPtrRef@DName@@QAEAAV1@XZ 1001e6b7 f i libvcruntime:undname.obj
 0001:0001d6c3       ?status@DName@@QBE?AW4DNameStatus@@XZ 1001e6c3 f i libvcruntime:undname.obj
 0001:0001d748       ___unDName                 1001e748 f   libvcruntime:undname.obj
 0001:0001d802       ___unDNameEx               1001e802 f   libvcruntime:undname.obj
 0001:0001d8bc       __vsprintf_s_l             1001e8bc f i libvcruntime:undname.obj
 0001:0001d8f4       _sprintf_s                 1001e8f4 f i libvcruntime:undname.obj
 0001:0001d920       __global_unwind2           1001e920 f   libvcruntime:_exsup_.obj
 0001:0001d985       __local_unwind2            1001e985 f   libvcruntime:_exsup_.obj
 0001:0001da09       __abnormal_termination     1001ea09 f   libvcruntime:_exsup_.obj
 0001:0001da2c       __NLG_Notify1              1001ea2c f   libvcruntime:_exsup_.obj
 0001:0001da35       __NLG_Notify               1001ea35 f   libvcruntime:_exsup_.obj
 0001:0001da4c       __NLG_Dispatch             1001ea4c     libvcruntime:_exsup_.obj
 0001:0001da4c       __NLG_Dispatch2            1001ea4c     libvcruntime:_exsup_.obj
 0001:0001da54       __NLG_Call                 1001ea54 f   libvcruntime:_exsup_.obj
 0001:0001da56       __NLG_Return2              1001ea56     libvcruntime:_exsup_.obj
 0001:0001daa4       ??$__crt_fast_decode_pointer@P6AXXZ@@YAP6AXXZQ6AXXZ@Z 1001eaa4 f i libvcruntime:purevirt.obj
 0001:0001dabd       ??$__crt_interlocked_compare_exchange_pointer@$$A6AXXZ$$T$$T@@YAP6AXXZPDS6AXXZ$$T1@Z 1001eabd f i libvcruntime:purevirt.obj
 0001:0001dad3       ??$__crt_interlocked_exchange_pointer@$$A6AXXZP6AXXZ@@YAP6AXXZPDS6AXXZQ6AXXZ@Z 1001ead3 f i libvcruntime:purevirt.obj
 0001:0001dae3       ??$__crt_interlocked_read_pointer@$$A6AXXZ@@YAP6AXXZPDS6AXXZ@Z 1001eae3 f i libvcruntime:purevirt.obj
 0001:0001daf7       __get_purecall_handler     1001eaf7 f   libvcruntime:purevirt.obj
 0001:0001db1d       __purecall                 1001eb1d f   libvcruntime:purevirt.obj
 0001:0001db3e       __set_purecall_handler     1001eb3e f   libvcruntime:purevirt.obj
 0001:0001db6c       _malloc                    1001eb6c f   libucrt:malloc.obj
 0001:0001db79       _calloc                    1001eb79 f   libucrt:calloc.obj
 0001:0001db86       _free                      1001eb86 f   libucrt:free.obj
 0001:0001db8b       _realloc                   1001eb8b f   libucrt:realloc.obj
 0001:0001db98       ??$?B$$A6GXPAXK0@Z@__crt_fast_encoded_nullptr_t@@QBEP6GXPAXK0@ZXZ 1001eb98 f i libucrt:exit.obj
 0001:0001dbb6       ??$__crt_fast_decode_pointer@P6GXPAXK0@Z@@YAP6GXPAXK0@ZQ6GX0K0@Z@Z 1001ebb6 f i libucrt:exit.obj
 0001:0001dbd1       ??$__crt_fast_encode_pointer@P6GXPAXK0@Z@@YAP6GXPAXK0@ZQ6GX0K0@Z@Z 1001ebd1 f i libucrt:exit.obj
 0001:0001dbf7       ??$__crt_get_proc_address@P6GXI@Z@@YAP6GXI@ZQAUHINSTANCE__@@QBD@Z 1001ebf7 f i libucrt:exit.obj
 0001:0001dc0e       ??$__crt_interlocked_read@J@@YAJPDJ@Z 1001ec0e f i libucrt:exit.obj
 0001:0001dc1d       ??0?$__crt_unique_handle_t@U__crt_hmodule_traits@@@@QAE@QAUHINSTANCE__@@@Z 1001ec1d f i libucrt:exit.obj
 0001:0001dc31       ??1?$__crt_unique_handle_t@U__crt_hmodule_traits@@@@QAE@XZ 1001ec31 f i libucrt:exit.obj
 0001:0001dc4d       ?__crt_interlocked_read_32@@YAHPDH@Z 1001ec4d f i libucrt:exit.obj
 0001:0001dc73       ?close@?$__crt_unique_handle_t@U__crt_hmodule_traits@@@@QAEXXZ 1001ec73 f i libucrt:exit.obj
 0001:0001dc8f       ?close@__crt_hmodule_traits@@SA_NPAUHINSTANCE__@@@Z 1001ec8f f i libucrt:exit.obj
 0001:0001de5a       ?get@?$__crt_unique_handle_t@U__crt_hmodule_traits@@@@QBEPAUHINSTANCE__@@XZ 1001ee5a f i libucrt:exit.obj
 0001:0001de5d       ?get_address_of@?$__crt_unique_handle_t@U__crt_hmodule_traits@@@@QAEPAPAUHINSTANCE__@@XZ 1001ee5d f i libucrt:exit.obj
 0001:0001de60       ?get_invalid_value@__crt_hmodule_traits@@SAPAUHINSTANCE__@@XZ 1001ee60 f i libucrt:exit.obj
 0001:0001df5d       __Exit                     1001ef5d f   libucrt:exit.obj
 0001:0001df78       ___acrt_initialize_thread_local_exit_callback 1001ef78 f   libucrt:exit.obj
 0001:0001df8a       __c_exit                   1001ef8a f   libucrt:exit.obj
 0001:0001df9c       __cexit                    1001ef9c f   libucrt:exit.obj
 0001:0001dfae       __exit                     1001efae f   libucrt:exit.obj
 0001:0001dfc9       __is_c_termination_complete 1001efc9 f   libucrt:exit.obj
 0001:0001dfcf       __register_thread_local_exe_atexit_callback 1001efcf f   libucrt:exit.obj
 0001:0001e015       _exit                      1001f015 f   libucrt:exit.obj
 0001:0001e030       _quick_exit                1001f030 f   libucrt:exit.obj
 0001:0001e050       _strncat                   1001f050 f   libucrt:strncat.obj
 0001:0001e1e0       _strncpy                   1001f1e0 f   libucrt:strncpy.obj
 0001:0001e34d       ??$?RPAU__crt_stdio_stream_data@@@__crt_internal_free_policy@@QBEXQBQAU__crt_stdio_stream_data@@@Z 1001f34d f i libucrt:_file.obj
 0001:0001e363       ??0?$__crt_unique_heap_ptr@PAU__crt_stdio_stream_data@@U__crt_internal_free_policy@@@@QAE@QAPAU__crt_stdio_stream_data@@@Z 1001f363 f i libucrt:_file.obj
 0001:0001e377       ??0__crt_stdio_stream@@QAE@QAU_iobuf@@@Z 1001f377 f i libucrt:_file.obj
 0001:0001e38b       ??1?$__crt_unique_heap_ptr@PAU__crt_stdio_stream_data@@U__crt_internal_free_policy@@@@QAE@XZ 1001f38b f i libucrt:_file.obj
 0001:0001e3a1       ??C__crt_stdio_stream@@QBEPAU__crt_stdio_stream_data@@XZ 1001f3a1 f i libucrt:_file.obj
 0001:0001e3a4       ?detach@?$__crt_unique_heap_ptr@PAU__crt_stdio_stream_data@@U__crt_internal_free_policy@@@@QAEPAPAU__crt_stdio_stream_data@@XZ 1001f3a4 f i libucrt:_file.obj
 0001:0001e3aa       ?release@?$__crt_unique_heap_ptr@PAU__crt_stdio_stream_data@@U__crt_internal_free_policy@@@@QAEXXZ 1001f3aa f i libucrt:_file.obj
 0001:0001e3c0       ___acrt_initialize_stdio   1001f3c0 f   libucrt:_file.obj
 0001:0001e4ba       ___acrt_iob_func           1001f4ba f   libucrt:_file.obj
 0001:0001e4ce       ___acrt_uninitialize_stdio 1001f4ce f   libucrt:_file.obj
 0001:0001e52d       __get_stream_buffer_pointers 1001f52d f   libucrt:_file.obj
 0001:0001e584       __lock_file                1001f584 f   libucrt:_file.obj
 0001:0001e59d       __unlock_file              1001f59d f   libucrt:_file.obj
 0001:0001e5b6       ?get_flags@__crt_stdio_stream@@QBEJXZ 1001f5b6 f i libucrt:fclose.obj
 0001:0001e5bc       ?is_in_use@__crt_stdio_stream@@QBE_NXZ 1001f5bc f i libucrt:fclose.obj
 0001:0001e5cb       ?is_string_backed@__crt_stdio_stream@@QBE_NXZ 1001f5cb f i libucrt:fclose.obj
 0001:0001e5da       ?public_stream@__crt_stdio_stream@@QBEPAU_iobuf@@XZ 1001f5da f i libucrt:fclose.obj
 0001:0001e5dd       ?valid@__crt_stdio_stream@@QBE_NXZ 1001f5dd f i libucrt:fclose.obj
 0001:0001e5e7       __fclose_nolock            1001f5e7 f   libucrt:fclose.obj
 0001:0001e67a       _fclose                    1001f67a f   libucrt:fclose.obj
 0001:0001e9ac       ??$open_file@ABQBDABQBDABHPAU_iobuf@@@?$__crt_char_traits@D@@SAPAU_iobuf@@ABQBD0ABH$$QAPAU1@@Z 1001f9ac f i libucrt:fopen.obj
 0001:0001e9d7       ??$open_file@ABQB_WABQB_WABHPAU_iobuf@@@?$__crt_char_traits@_W@@SAPAU_iobuf@@ABQB_W0ABH$$QAPAU1@@Z 1001f9d7 f i libucrt:fopen.obj
 0001:0001ea02       ?unlock@__crt_stdio_stream@@QBEXXZ 1001fa02 f i libucrt:fopen.obj
 0001:0001ea0d       __fsopen                   1001fa0d f   libucrt:fopen.obj
 0001:0001ea1a       __wfopen                   1001fa1a f   libucrt:fopen.obj
 0001:0001ea36       __wfopen_s                 1001fa36 f   libucrt:fopen.obj
 0001:0001ea8e       __wfsopen                  1001fa8e f   libucrt:fopen.obj
 0001:0001ea9b       _fopen                     1001fa9b f   libucrt:fopen.obj
 0001:0001eab7       _fopen_s                   1001fab7 f   libucrt:fopen.obj
 0001:0001eb0f       ?has_any_buffer@__crt_stdio_stream@@QBE_NXZ 1001fb0f f i libucrt:fread.obj
 0001:0001eb24       ?has_any_of@__crt_stdio_stream@@QBE_NJ@Z 1001fb24 f i libucrt:fread.obj
 0001:0001eb40       ?set_flags@__crt_stdio_stream@@QBE_NJ@Z 1001fb40 f i libucrt:fread.obj
 0001:0001eb70       __fread_nolock             1001fb70 f   libucrt:fread.obj
 0001:0001eb94       __fread_nolock_s           1001fb94 f   libucrt:fread.obj
 0001:0001edd3       _fread                     1001fdd3 f   libucrt:fread.obj
 0001:0001edf7       _fread_s                   1001fdf7 f   libucrt:fread.obj
 0001:0001ef4f       ??$?RV<lambda_11b4f7b0d3157825a5656a18eba1ae27>@@AAV<lambda_b51c0495177f500e782686251704ae76>@@V<lambda_cf89b47920b5017557bfe891e78aca36>@@@?$__crt_seh_guarded_call@I@@QAEI$$QAV<lambda_11b4f7b0d3157825a5656a18eba1ae27>@@AAV<lambda_b51c0495177f500e782686251704ae76>@@$$QAV<lambda_cf89b47920b5017557bfe891e78aca36>@@@Z 1001ff4f f i libucrt:fwrite.obj
 0001:0001efb4       ??$__acrt_lock_stream_and_call@V<lambda_b51c0495177f500e782686251704ae76>@@@@YAIQAU_iobuf@@$$QAV<lambda_b51c0495177f500e782686251704ae76>@@@Z 1001ffb4 f i libucrt:fwrite.obj
 0001:0001f03c       ??0__acrt_stdio_temporary_buffering_guard@@QAE@QAU_iobuf@@@Z 1002003c f i libucrt:fwrite.obj
 0001:0001f061       ??1__acrt_stdio_temporary_buffering_guard@@QAE@XZ 10020061 f i libucrt:fwrite.obj
 0001:0001f0e0       ?has_big_buffer@__crt_stdio_stream@@QBE_NXZ 100200e0 f i libucrt:fwrite.obj
 0001:0001f0f1       __fwrite_nolock            100200f1 f   libucrt:fwrite.obj
 0001:0001f2c8       _fwrite                    100202c8 f   libucrt:fwrite.obj
 0001:0001f336       ??$?R_W@__crt_internal_free_policy@@QBEXQB_W@Z 10020336 f i libucrt:unlink.obj
 0001:0001f34c       ??0?$__crt_unique_heap_ptr@_WU__crt_internal_free_policy@@@@QAE@QA_W@Z 1002034c f i libucrt:unlink.obj
 0001:0001f360       ??1?$__crt_unique_heap_ptr@_WU__crt_internal_free_policy@@@@QAE@XZ 10020360 f i libucrt:unlink.obj
 0001:0001f376       ?get@?$__crt_unique_heap_ptr@_WU__crt_internal_free_policy@@@@QBEPA_WXZ 10020376 f i libucrt:unlink.obj
 0001:0001f379       ?get_address_of@?$__crt_unique_heap_ptr@_WU__crt_internal_free_policy@@@@QAEPAPA_WXZ 10020379 f i libucrt:unlink.obj
 0001:0001f37c       ?release@?$__crt_unique_heap_ptr@_WU__crt_internal_free_policy@@@@QAEXXZ 1002037c f i libucrt:unlink.obj
 0001:0001f392       __unlink                   10020392 f   libucrt:unlink.obj
 0001:0001f39f       _remove                    1002039f f   libucrt:unlink.obj
 0001:0001f3ff       ?__acrt_stdio_reset_buffer@@YAXV__crt_stdio_stream@@@Z 100203ff f i libucrt:rewind.obj
 0001:0001f41a       ?has_all_of@__crt_stdio_stream@@QBE_NJ@Z 1002041a f i libucrt:rewind.obj
 0001:0001f439       ?unset_flags@__crt_stdio_stream@@QBE_NJ@Z 10020439 f i libucrt:rewind.obj
 0001:0001f46d       _rewind                    1002046d f   libucrt:rewind.obj
 0001:0001f56e       ??$?0ABV?$stream_output_adapter@D@__crt_stdio_output@@AB_KABQBDABQAU__crt_locale_pointers@@ABQAD@?$format_validation_base@DV?$stream_output_adapter@D@__crt_stdio_output@@@__crt_stdio_output@@IAE@ABV?$stream_output_adapter@D@1@AB_KABQBDABQAU__crt_locale_pointers@@ABQAD@Z 1002056e f i libucrt:output.obj
 0001:0001f599       ??$?0ABV?$stream_output_adapter@D@__crt_stdio_output@@AB_KABQBDABQAU__crt_locale_pointers@@ABQAD@?$positional_parameter_base@DV?$stream_output_adapter@D@__crt_stdio_output@@@__crt_stdio_output@@IAE@ABV?$stream_output_adapter@D@1@AB_KABQBDABQAU__crt_locale_pointers@@ABQAD@Z 10020599 f i libucrt:output.obj
 0001:0001f5f3       ??$?0ABV?$stream_output_adapter@D@__crt_stdio_output@@AB_KABQBDABQAU__crt_locale_pointers@@ABQAD@?$standard_base@DV?$stream_output_adapter@D@__crt_stdio_output@@@__crt_stdio_output@@IAE@ABV?$stream_output_adapter@D@1@AB_KABQBDABQAU__crt_locale_pointers@@ABQAD@Z 100205f3 f i libucrt:output.obj
 0001:0001f635       ??$?0ABV?$stream_output_adapter@_W@__crt_stdio_output@@AB_KABQB_WABQAU__crt_locale_pointers@@ABQAD@?$format_validation_base@_WV?$stream_output_adapter@_W@__crt_stdio_output@@@__crt_stdio_output@@IAE@ABV?$stream_output_adapter@_W@1@AB_KABQB_WABQAU__crt_locale_pointers@@ABQAD@Z 10020635 f i libucrt:output.obj
 0001:0001f660       ??$?0ABV?$stream_output_adapter@_W@__crt_stdio_output@@AB_KABQB_WABQAU__crt_locale_pointers@@ABQAD@?$positional_parameter_base@_WV?$stream_output_adapter@_W@__crt_stdio_output@@@__crt_stdio_output@@IAE@ABV?$stream_output_adapter@_W@1@AB_KABQB_WABQAU__crt_locale_pointers@@ABQAD@Z 10020660 f i libucrt:output.obj
 0001:0001f6ba       ??$?0ABV?$stream_output_adapter@_W@__crt_stdio_output@@AB_KABQB_WABQAU__crt_locale_pointers@@ABQAD@?$standard_base@_WV?$stream_output_adapter@_W@__crt_stdio_output@@@__crt_stdio_output@@IAE@ABV?$stream_output_adapter@_W@1@AB_KABQB_WABQAU__crt_locale_pointers@@ABQAD@Z 100206ba f i libucrt:output.obj
 0001:0001f6fc       ??$?0ABV?$string_output_adapter@D@__crt_stdio_output@@AB_KABQBDABQAU__crt_locale_pointers@@ABQAD@?$format_validation_base@DV?$string_output_adapter@D@__crt_stdio_output@@@__crt_stdio_output@@IAE@ABV?$string_output_adapter@D@1@AB_KABQBDABQAU__crt_locale_pointers@@ABQAD@Z 100206fc f i libucrt:output.obj
 0001:0001f727       ??$?0ABV?$string_output_adapter@D@__crt_stdio_output@@AB_KABQBDABQAU__crt_locale_pointers@@ABQAD@?$positional_parameter_base@DV?$string_output_adapter@D@__crt_stdio_output@@@__crt_stdio_output@@IAE@ABV?$string_output_adapter@D@1@AB_KABQBDABQAU__crt_locale_pointers@@ABQAD@Z 10020727 f i libucrt:output.obj
 0001:0001f781       ??$?0ABV?$string_output_adapter@D@__crt_stdio_output@@AB_KABQBDABQAU__crt_locale_pointers@@ABQAD@?$standard_base@DV?$string_output_adapter@D@__crt_stdio_output@@@__crt_stdio_output@@IAE@ABV?$string_output_adapter@D@1@AB_KABQBDABQAU__crt_locale_pointers@@ABQAD@Z 10020781 f i libucrt:output.obj
 0001:0001f7c3       ??$?0ABV?$string_output_adapter@_W@__crt_stdio_output@@AB_KABQB_WABQAU__crt_locale_pointers@@ABQAD@?$format_validation_base@_WV?$string_output_adapter@_W@__crt_stdio_output@@@__crt_stdio_output@@IAE@ABV?$string_output_adapter@_W@1@AB_KABQB_WABQAU__crt_locale_pointers@@ABQAD@Z 100207c3 f i libucrt:output.obj
 0001:0001f7ee       ??$?0ABV?$string_output_adapter@_W@__crt_stdio_output@@AB_KABQB_WABQAU__crt_locale_pointers@@ABQAD@?$positional_parameter_base@_WV?$string_output_adapter@_W@__crt_stdio_output@@@__crt_stdio_output@@IAE@ABV?$string_output_adapter@_W@1@AB_KABQB_WABQAU__crt_locale_pointers@@ABQAD@Z 100207ee f i libucrt:output.obj
 0001:0001f848       ??$?0ABV?$string_output_adapter@_W@__crt_stdio_output@@AB_KABQB_WABQAU__crt_locale_pointers@@ABQAD@?$standard_base@_WV?$string_output_adapter@_W@__crt_stdio_output@@@__crt_stdio_output@@IAE@ABV?$string_output_adapter@_W@1@AB_KABQB_WABQAU__crt_locale_pointers@@ABQAD@Z 10020848 f i libucrt:output.obj
 0001:0001f88a       ??$?RV<lambda_2293f24e3ce1ad6fe22ccfb9dec07671>@@AAV<lambda_2565fc715a641e539f44ad02d6823606>@@V<lambda_d3217f279b832965d9ca670dc2993570>@@@?$__crt_seh_guarded_call@H@@QAEH$$QAV<lambda_2293f24e3ce1ad6fe22ccfb9dec07671>@@AAV<lambda_2565fc715a641e539f44ad02d6823606>@@$$QAV<lambda_d3217f279b832965d9ca670dc2993570>@@@Z 1002088a f i libucrt:output.obj
 0001:0001f8ef       ??$?RV<lambda_4d4ac866be0fa3c441830420fabdd2cb>@@AAV<lambda_63a10c2dc8dbb9e4dd1890be52af7c93>@@V<lambda_002af9fa0f8fe472b648c51882d4fc32>@@@?$__crt_seh_guarded_call@H@@QAEH$$QAV<lambda_4d4ac866be0fa3c441830420fabdd2cb>@@AAV<lambda_63a10c2dc8dbb9e4dd1890be52af7c93>@@$$QAV<lambda_002af9fa0f8fe472b648c51882d4fc32>@@@Z 100208ef f i libucrt:output.obj
 0001:0001f954       ??$?RV<lambda_5be909dfbae0a631386585770cd7b676>@@AAV<lambda_e516058a9c289d98c8ca9fea99247804>@@V<lambda_afe2e0cdc5e0ecf6f0d6f5e2f8985e38>@@@?$__crt_seh_guarded_call@H@@QAEH$$QAV<lambda_5be909dfbae0a631386585770cd7b676>@@AAV<lambda_e516058a9c289d98c8ca9fea99247804>@@$$QAV<lambda_afe2e0cdc5e0ecf6f0d6f5e2f8985e38>@@@Z 10020954 f i libucrt:output.obj
 0001:0001f9b9       ??$?RV<lambda_823d65812123d985753d53e2a8c25d20>@@AAV<lambda_0a97c9e57da7be065955385c79108ff2>@@V<lambda_4d2973f3ad2d226f00468307185dca1b>@@@?$__crt_seh_guarded_call@H@@QAEH$$QAV<lambda_823d65812123d985753d53e2a8c25d20>@@AAV<lambda_0a97c9e57da7be065955385c79108ff2>@@$$QAV<lambda_4d2973f3ad2d226f00468307185dca1b>@@@Z 100209b9 f i libucrt:output.obj
 0001:0001fa1e       ??$?RV<lambda_ab9923ffb5d694ec0d78876dd103e44f>@@AAV<lambda_481dd5778c961fbcd3b60b650e9b9dc4>@@V<lambda_7923d86c9e3f319b415918ec4b39749c>@@@?$__crt_seh_guarded_call@H@@QAEH$$QAV<lambda_ab9923ffb5d694ec0d78876dd103e44f>@@AAV<lambda_481dd5778c961fbcd3b60b650e9b9dc4>@@$$QAV<lambda_7923d86c9e3f319b415918ec4b39749c>@@@Z 10020a1e f i libucrt:output.obj
 0001:0001fa83       ??$?RV<lambda_db08b09ef7aa9d4f8620ce68402612bc>@@AAV<lambda_4f2c1eaeead2a5fc776db5b62ea0fb9b>@@V<lambda_3ae262bc35d4ba6a3825c4f6bcaaf95c>@@@?$__crt_seh_guarded_call@H@@QAEH$$QAV<lambda_db08b09ef7aa9d4f8620ce68402612bc>@@AAV<lambda_4f2c1eaeead2a5fc776db5b62ea0fb9b>@@$$QAV<lambda_3ae262bc35d4ba6a3825c4f6bcaaf95c>@@@Z 10020a83 f i libucrt:output.obj
 0001:0001fae8       ??$__acrt_lock_stream_and_call@V<lambda_0a97c9e57da7be065955385c79108ff2>@@@@YAHQAU_iobuf@@$$QAV<lambda_0a97c9e57da7be065955385c79108ff2>@@@Z 10020ae8 f i libucrt:output.obj
 0001:0001fb1a       ??$__acrt_lock_stream_and_call@V<lambda_2565fc715a641e539f44ad02d6823606>@@@@YAHQAU_iobuf@@$$QAV<lambda_2565fc715a641e539f44ad02d6823606>@@@Z 10020b1a f i libucrt:output.obj
 0001:0001fb4c       ??$__acrt_lock_stream_and_call@V<lambda_481dd5778c961fbcd3b60b650e9b9dc4>@@@@YAHQAU_iobuf@@$$QAV<lambda_481dd5778c961fbcd3b60b650e9b9dc4>@@@Z 10020b4c f i libucrt:output.obj
 0001:0001fb7e       ??$__acrt_lock_stream_and_call@V<lambda_4f2c1eaeead2a5fc776db5b62ea0fb9b>@@@@YAHQAU_iobuf@@$$QAV<lambda_4f2c1eaeead2a5fc776db5b62ea0fb9b>@@@Z 10020b7e f i libucrt:output.obj
 0001:0001fbb0       ??$__acrt_lock_stream_and_call@V<lambda_63a10c2dc8dbb9e4dd1890be52af7c93>@@@@YAHQAU_iobuf@@$$QAV<lambda_63a10c2dc8dbb9e4dd1890be52af7c93>@@@Z 10020bb0 f i libucrt:output.obj
 0001:0001fbe2       ??$__acrt_lock_stream_and_call@V<lambda_e516058a9c289d98c8ca9fea99247804>@@@@YAHQAU_iobuf@@$$QAV<lambda_e516058a9c289d98c8ca9fea99247804>@@@Z 10020be2 f i libucrt:output.obj
 0001:00020e50       ??$count@D@formatting_buffer@__crt_stdio_output@@QBEIXZ 10021e50 f i libucrt:output.obj
 0001:00020e6e       ??$data@D@formatting_buffer@__crt_stdio_output@@QAEPADXZ 10021e6e f i libucrt:output.obj
 0001:00020e7e       ??$data@_W@formatting_buffer@__crt_stdio_output@@QAEPA_WXZ 10021e7e f i libucrt:output.obj
 0001:00020e8e       ??$ensure_buffer_is_big_enough@D@formatting_buffer@__crt_stdio_output@@QAE_NI@Z 10021e8e f i libucrt:output.obj
 0001:00020f35       ??$extract_argument_from_va_list@C_J@?$positional_parameter_base@DV?$stream_output_adapter@D@__crt_stdio_output@@@__crt_stdio_output@@IAE_NAA_J@Z 10021f35 f i libucrt:output.obj
 0001:00020fd3       ??$extract_argument_from_va_list@C_J@?$positional_parameter_base@DV?$string_output_adapter@D@__crt_stdio_output@@@__crt_stdio_output@@IAE_NAA_J@Z 10021fd3 f i libucrt:output.obj
 0001:00021071       ??$extract_argument_from_va_list@C_J@?$positional_parameter_base@_WV?$stream_output_adapter@_W@__crt_stdio_output@@@__crt_stdio_output@@IAE_NAA_J@Z 10022071 f i libucrt:output.obj
 0001:0002110f       ??$extract_argument_from_va_list@C_J@?$positional_parameter_base@_WV?$string_output_adapter@_W@__crt_stdio_output@@@__crt_stdio_output@@IAE_NAA_J@Z 1002210f f i libucrt:output.obj
 0001:000211ad       ??$extract_argument_from_va_list@C_J@?$standard_base@DV?$stream_output_adapter@D@__crt_stdio_output@@@__crt_stdio_output@@IAE_NAA_J@Z 100221ad f i libucrt:output.obj
 0001:000211d3       ??$extract_argument_from_va_list@C_J@?$standard_base@DV?$string_output_adapter@D@__crt_stdio_output@@@__crt_stdio_output@@IAE_NAA_J@Z 100221d3 f i libucrt:output.obj
 0001:000211f9       ??$extract_argument_from_va_list@C_J@?$standard_base@_WV?$stream_output_adapter@_W@__crt_stdio_output@@@__crt_stdio_output@@IAE_NAA_J@Z 100221f9 f i libucrt:output.obj
 0001:0002121f       ??$extract_argument_from_va_list@C_J@?$standard_base@_WV?$string_output_adapter@_W@__crt_stdio_output@@@__crt_stdio_output@@IAE_NAA_J@Z 1002221f f i libucrt:output.obj
 0001:00021245       ??$extract_argument_from_va_list@E_J@?$positional_parameter_base@DV?$stream_output_adapter@D@__crt_stdio_output@@@__crt_stdio_output@@IAE_NAA_J@Z 10022245 f i libucrt:output.obj
 0001:000212e3       ??$extract_argument_from_va_list@E_J@?$positional_parameter_base@DV?$string_output_adapter@D@__crt_stdio_output@@@__crt_stdio_output@@IAE_NAA_J@Z 100222e3 f i libucrt:output.obj
 0001:00021381       ??$extract_argument_from_va_list@E_J@?$positional_parameter_base@_WV?$stream_output_adapter@_W@__crt_stdio_output@@@__crt_stdio_output@@IAE_NAA_J@Z 10022381 f i libucrt:output.obj
 0001:0002141f       ??$extract_argument_from_va_list@E_J@?$positional_parameter_base@_WV?$string_output_adapter@_W@__crt_stdio_output@@@__crt_stdio_output@@IAE_NAA_J@Z 1002241f f i libucrt:output.obj
 0001:000214bd       ??$extract_argument_from_va_list@E_J@?$standard_base@DV?$stream_output_adapter@D@__crt_stdio_output@@@__crt_stdio_output@@IAE_NAA_J@Z 100224bd f i libucrt:output.obj
 0001:000214e3       ??$extract_argument_from_va_list@E_J@?$standard_base@DV?$string_output_adapter@D@__crt_stdio_output@@@__crt_stdio_output@@IAE_NAA_J@Z 100224e3 f i libucrt:output.obj
 0001:00021509       ??$extract_argument_from_va_list@E_J@?$standard_base@_WV?$stream_output_adapter@_W@__crt_stdio_output@@@__crt_stdio_output@@IAE_NAA_J@Z 10022509 f i libucrt:output.obj
 0001:0002152f       ??$extract_argument_from_va_list@E_J@?$standard_base@_WV?$string_output_adapter@_W@__crt_stdio_output@@@__crt_stdio_output@@IAE_NAA_J@Z 1002252f f i libucrt:output.obj
 0001:00021555       ??$extract_argument_from_va_list@F_J@?$positional_parameter_base@DV?$stream_output_adapter@D@__crt_stdio_output@@@__crt_stdio_output@@IAE_NAA_J@Z 10022555 f i libucrt:output.obj
 0001:000215f3       ??$extract_argument_from_va_list@F_J@?$positional_parameter_base@DV?$string_output_adapter@D@__crt_stdio_output@@@__crt_stdio_output@@IAE_NAA_J@Z 100225f3 f i libucrt:output.obj
 0001:00021691       ??$extract_argument_from_va_list@F_J@?$positional_parameter_base@_WV?$stream_output_adapter@_W@__crt_stdio_output@@@__crt_stdio_output@@IAE_NAA_J@Z 10022691 f i libucrt:output.obj
 0001:0002172f       ??$extract_argument_from_va_list@F_J@?$positional_parameter_base@_WV?$string_output_adapter@_W@__crt_stdio_output@@@__crt_stdio_output@@IAE_NAA_J@Z 1002272f f i libucrt:output.obj
 0001:000217cd       ??$extract_argument_from_va_list@F_J@?$standard_base@DV?$stream_output_adapter@D@__crt_stdio_output@@@__crt_stdio_output@@IAE_NAA_J@Z 100227cd f i libucrt:output.obj
 0001:000217f3       ??$extract_argument_from_va_list@F_J@?$standard_base@DV?$string_output_adapter@D@__crt_stdio_output@@@__crt_stdio_output@@IAE_NAA_J@Z 100227f3 f i libucrt:output.obj
 0001:00021819       ??$extract_argument_from_va_list@F_J@?$standard_base@_WV?$stream_output_adapter@_W@__crt_stdio_output@@@__crt_stdio_output@@IAE_NAA_J@Z 10022819 f i libucrt:output.obj
 0001:0002183f       ??$extract_argument_from_va_list@F_J@?$standard_base@_WV?$string_output_adapter@_W@__crt_stdio_output@@@__crt_stdio_output@@IAE_NAA_J@Z 1002283f f i libucrt:output.obj
 0001:00021865       ??$extract_argument_from_va_list@GD@?$positional_parameter_base@DV?$stream_output_adapter@D@__crt_stdio_output@@@__crt_stdio_output@@IAE_NAAD@Z 10022865 f i libucrt:output.obj
 0001:00021902       ??$extract_argument_from_va_list@GD@?$positional_parameter_base@DV?$string_output_adapter@D@__crt_stdio_output@@@__crt_stdio_output@@IAE_NAAD@Z 10022902 f i libucrt:output.obj
 0001:0002199f       ??$extract_argument_from_va_list@GD@?$standard_base@DV?$stream_output_adapter@D@__crt_stdio_output@@@__crt_stdio_output@@IAE_NAAD@Z 1002299f f i libucrt:output.obj
 0001:000219bf       ??$extract_argument_from_va_list@GD@?$standard_base@DV?$string_output_adapter@D@__crt_stdio_output@@@__crt_stdio_output@@IAE_NAAD@Z 100229bf f i libucrt:output.obj
 0001:000219df       ??$extract_argument_from_va_list@G_J@?$positional_parameter_base@DV?$stream_output_adapter@D@__crt_stdio_output@@@__crt_stdio_output@@IAE_NAA_J@Z 100229df f i libucrt:output.obj
 0001:00021a7d       ??$extract_argument_from_va_list@G_J@?$positional_parameter_base@DV?$string_output_adapter@D@__crt_stdio_output@@@__crt_stdio_output@@IAE_NAA_J@Z 10022a7d f i libucrt:output.obj
 0001:00021b1b       ??$extract_argument_from_va_list@G_J@?$positional_parameter_base@_WV?$stream_output_adapter@_W@__crt_stdio_output@@@__crt_stdio_output@@IAE_NAA_J@Z 10022b1b f i libucrt:output.obj
 0001:00021bb9       ??$extract_argument_from_va_list@G_J@?$positional_parameter_base@_WV?$string_output_adapter@_W@__crt_stdio_output@@@__crt_stdio_output@@IAE_NAA_J@Z 10022bb9 f i libucrt:output.obj
 0001:00021c57       ??$extract_argument_from_va_list@G_J@?$standard_base@DV?$stream_output_adapter@D@__crt_stdio_output@@@__crt_stdio_output@@IAE_NAA_J@Z 10022c57 f i libucrt:output.obj
 0001:00021c7d       ??$extract_argument_from_va_list@G_J@?$standard_base@DV?$string_output_adapter@D@__crt_stdio_output@@@__crt_stdio_output@@IAE_NAA_J@Z 10022c7d f i libucrt:output.obj
 0001:00021ca3       ??$extract_argument_from_va_list@G_J@?$standard_base@_WV?$stream_output_adapter@_W@__crt_stdio_output@@@__crt_stdio_output@@IAE_NAA_J@Z 10022ca3 f i libucrt:output.obj
 0001:00021cc9       ??$extract_argument_from_va_list@G_J@?$standard_base@_WV?$string_output_adapter@_W@__crt_stdio_output@@@__crt_stdio_output@@IAE_NAA_J@Z 10022cc9 f i libucrt:output.obj
 0001:00021cef       ??$extract_argument_from_va_list@H_J@?$positional_parameter_base@DV?$stream_output_adapter@D@__crt_stdio_output@@@__crt_stdio_output@@IAE_NAA_J@Z 10022cef f i libucrt:output.obj
 0001:00021d8b       ??$extract_argument_from_va_list@H_J@?$positional_parameter_base@DV?$string_output_adapter@D@__crt_stdio_output@@@__crt_stdio_output@@IAE_NAA_J@Z 10022d8b f i libucrt:output.obj
 0001:00021e27       ??$extract_argument_from_va_list@H_J@?$positional_parameter_base@_WV?$stream_output_adapter@_W@__crt_stdio_output@@@__crt_stdio_output@@IAE_NAA_J@Z 10022e27 f i libucrt:output.obj
 0001:00021ec3       ??$extract_argument_from_va_list@H_J@?$positional_parameter_base@_WV?$string_output_adapter@_W@__crt_stdio_output@@@__crt_stdio_output@@IAE_NAA_J@Z 10022ec3 f i libucrt:output.obj
 0001:00021f5f       ??$extract_argument_from_va_list@H_J@?$standard_base@DV?$stream_output_adapter@D@__crt_stdio_output@@@__crt_stdio_output@@IAE_NAA_J@Z 10022f5f f i libucrt:output.obj
 0001:00021f84       ??$extract_argument_from_va_list@H_J@?$standard_base@DV?$string_output_adapter@D@__crt_stdio_output@@@__crt_stdio_output@@IAE_NAA_J@Z 10022f84 f i libucrt:output.obj
 0001:00021fa9       ??$extract_argument_from_va_list@H_J@?$standard_base@_WV?$stream_output_adapter@_W@__crt_stdio_output@@@__crt_stdio_output@@IAE_NAA_J@Z 10022fa9 f i libucrt:output.obj
 0001:00021fce       ??$extract_argument_from_va_list@H_J@?$standard_base@_WV?$string_output_adapter@_W@__crt_stdio_output@@@__crt_stdio_output@@IAE_NAA_J@Z 10022fce f i libucrt:output.obj
 0001:00021ff3       ??$extract_argument_from_va_list@I_J@?$positional_parameter_base@DV?$stream_output_adapter@D@__crt_stdio_output@@@__crt_stdio_output@@IAE_NAA_J@Z 10022ff3 f i libucrt:output.obj
 0001:0002209a       ??$extract_argument_from_va_list@I_J@?$positional_parameter_base@DV?$string_output_adapter@D@__crt_stdio_output@@@__crt_stdio_output@@IAE_NAA_J@Z 1002309a f i libucrt:output.obj
 0001:00022141       ??$extract_argument_from_va_list@I_J@?$positional_parameter_base@_WV?$stream_output_adapter@_W@__crt_stdio_output@@@__crt_stdio_output@@IAE_NAA_J@Z 10023141 f i libucrt:output.obj
 0001:000221e8       ??$extract_argument_from_va_list@I_J@?$positional_parameter_base@_WV?$string_output_adapter@_W@__crt_stdio_output@@@__crt_stdio_output@@IAE_NAA_J@Z 100231e8 f i libucrt:output.obj
 0001:0002228f       ??$extract_argument_from_va_list@I_J@?$standard_base@DV?$stream_output_adapter@D@__crt_stdio_output@@@__crt_stdio_output@@IAE_NAA_J@Z 1002328f f i libucrt:output.obj
 0001:000222b4       ??$extract_argument_from_va_list@I_J@?$standard_base@DV?$string_output_adapter@D@__crt_stdio_output@@@__crt_stdio_output@@IAE_NAA_J@Z 100232b4 f i libucrt:output.obj
 0001:000222d9       ??$extract_argument_from_va_list@I_J@?$standard_base@_WV?$stream_output_adapter@_W@__crt_stdio_output@@@__crt_stdio_output@@IAE_NAA_J@Z 100232d9 f i libucrt:output.obj
 0001:000222fe       ??$extract_argument_from_va_list@I_J@?$standard_base@_WV?$string_output_adapter@_W@__crt_stdio_output@@@__crt_stdio_output@@IAE_NAA_J@Z 100232fe f i libucrt:output.obj
 0001:00022323       ??$extract_argument_from_va_list@PADPAD@?$positional_parameter_base@DV?$stream_output_adapter@D@__crt_stdio_output@@@__crt_stdio_output@@IAE_NAAPAD@Z 10023323 f i libucrt:output.obj
 0001:000223c0       ??$extract_argument_from_va_list@PADPAD@?$positional_parameter_base@DV?$string_output_adapter@D@__crt_stdio_output@@@__crt_stdio_output@@IAE_NAAPAD@Z 100233c0 f i libucrt:output.obj
 0001:0002245d       ??$extract_argument_from_va_list@PADPAD@?$positional_parameter_base@_WV?$stream_output_adapter@_W@__crt_stdio_output@@@__crt_stdio_output@@IAE_NAAPAD@Z 1002345d f i libucrt:output.obj
 0001:000224fa       ??$extract_argument_from_va_list@PADPAD@?$positional_parameter_base@_WV?$string_output_adapter@_W@__crt_stdio_output@@@__crt_stdio_output@@IAE_NAAPAD@Z 100234fa f i libucrt:output.obj
 0001:00022597       ??$extract_argument_from_va_list@PADPAD@?$standard_base@DV?$stream_output_adapter@D@__crt_stdio_output@@@__crt_stdio_output@@IAE_NAAPAD@Z 10023597 f i libucrt:output.obj
 0001:000225b7       ??$extract_argument_from_va_list@PADPAD@?$standard_base@DV?$string_output_adapter@D@__crt_stdio_output@@@__crt_stdio_output@@IAE_NAAPAD@Z 100235b7 f i libucrt:output.obj
 0001:000225d7       ??$extract_argument_from_va_list@PADPAD@?$standard_base@_WV?$stream_output_adapter@_W@__crt_stdio_output@@@__crt_stdio_output@@IAE_NAAPAD@Z 100235d7 f i libucrt:output.obj
 0001:000225f7       ??$extract_argument_from_va_list@PADPAD@?$standard_base@_WV?$string_output_adapter@_W@__crt_stdio_output@@@__crt_stdio_output@@IAE_NAAPAD@Z 100235f7 f i libucrt:output.obj
 0001:00022617       ??$extract_argument_from_va_list@PAUansi_string@?1??type_case_Z@?$output_processor@DV?$stream_output_adapter@D@__crt_stdio_output@@V?$format_validation_base@DV?$stream_output_adapter@D@__crt_stdio_output@@@2@@__crt_stdio_output@@AAE_NXZ@PAU1?1??234@AAE_NXZ@@?$standard_base@DV?$stream_output_adapter@D@__crt_stdio_output@@@__crt_stdio_output@@IAE_NAAPAUansi_string@?1??type_case_Z@?$output_processor@DV?$stream_output_adapter@D@__crt_stdio_output@@V?$format_validation_base@DV?$stream_output_adapter@D@__crt_stdio_output@@@2@@1@AAE_NXZ@@Z 10023617 f i libucrt:output.obj
 0001:00022637       ??$extract_argument_from_va_list@PAUansi_string@?1??type_case_Z@?$output_processor@DV?$stream_output_adapter@D@__crt_stdio_output@@V?$positional_parameter_base@DV?$stream_output_adapter@D@__crt_stdio_output@@@2@@__crt_stdio_output@@AAE_NXZ@PAU1?1??234@AAE_NXZ@@?$positional_parameter_base@DV?$stream_output_adapter@D@__crt_stdio_output@@@__crt_stdio_output@@IAE_NAAPAUansi_string@?1??type_case_Z@?$output_processor@DV?$stream_output_adapter@D@__crt_stdio_output@@V?$positional_parameter_base@DV?$stream_output_adapter@D@__crt_stdio_output@@@2@@1@AAE_NXZ@@Z 10023637 f i libucrt:output.obj
 0001:000226d4       ??$extract_argument_from_va_list@PAUansi_string@?1??type_case_Z@?$output_processor@DV?$stream_output_adapter@D@__crt_stdio_output@@V?$positional_parameter_base@DV?$stream_output_adapter@D@__crt_stdio_output@@@2@@__crt_stdio_output@@AAE_NXZ@PAU1?1??234@AAE_NXZ@@?$standard_base@DV?$stream_output_adapter@D@__crt_stdio_output@@@__crt_stdio_output@@IAE_NAAPAUansi_string@?1??type_case_Z@?$output_processor@DV?$stream_output_adapter@D@__crt_stdio_output@@V?$positional_parameter_base@DV?$stream_output_adapter@D@__crt_stdio_output@@@2@@1@AAE_NXZ@@Z 100236d4 f i libucrt:output.obj
 0001:000226f4       ??$extract_argument_from_va_list@PAUansi_string@?1??type_case_Z@?$output_processor@DV?$stream_output_adapter@D@__crt_stdio_output@@V?$standard_base@DV?$stream_output_adapter@D@__crt_stdio_output@@@2@@__crt_stdio_output@@AAE_NXZ@PAU1?1??234@AAE_NXZ@@?$standard_base@DV?$stream_output_adapter@D@__crt_stdio_output@@@__crt_stdio_output@@IAE_NAAPAUansi_string@?1??type_case_Z@?$output_processor@DV?$stream_output_adapter@D@__crt_stdio_output@@V?$standard_base@DV?$stream_output_adapter@D@__crt_stdio_output@@@2@@1@AAE_NXZ@@Z 100236f4 f i libucrt:output.obj
 0001:00022714       ??$extract_argument_from_va_list@PAUansi_string@?1??type_case_Z@?$output_processor@DV?$string_output_adapter@D@__crt_stdio_output@@V?$format_validation_base@DV?$string_output_adapter@D@__crt_stdio_output@@@2@@__crt_stdio_output@@AAE_NXZ@PAU1?1??234@AAE_NXZ@@?$standard_base@DV?$string_output_adapter@D@__crt_stdio_output@@@__crt_stdio_output@@IAE_NAAPAUansi_string@?1??type_case_Z@?$output_processor@DV?$string_output_adapter@D@__crt_stdio_output@@V?$format_validation_base@DV?$string_output_adapter@D@__crt_stdio_output@@@2@@1@AAE_NXZ@@Z 10023714 f i libucrt:output.obj
 0001:00022734       ??$extract_argument_from_va_list@PAUansi_string@?1??type_case_Z@?$output_processor@DV?$string_output_adapter@D@__crt_stdio_output@@V?$positional_parameter_base@DV?$string_output_adapter@D@__crt_stdio_output@@@2@@__crt_stdio_output@@AAE_NXZ@PAU1?1??234@AAE_NXZ@@?$positional_parameter_base@DV?$string_output_adapter@D@__crt_stdio_output@@@__crt_stdio_output@@IAE_NAAPAUansi_string@?1??type_case_Z@?$output_processor@DV?$string_output_adapter@D@__crt_stdio_output@@V?$positional_parameter_base@DV?$string_output_adapter@D@__crt_stdio_output@@@2@@1@AAE_NXZ@@Z 10023734 f i libucrt:output.obj
 0001:000227d1       ??$extract_argument_from_va_list@PAUansi_string@?1??type_case_Z@?$output_processor@DV?$string_output_adapter@D@__crt_stdio_output@@V?$positional_parameter_base@DV?$string_output_adapter@D@__crt_stdio_output@@@2@@__crt_stdio_output@@AAE_NXZ@PAU1?1??234@AAE_NXZ@@?$standard_base@DV?$string_output_adapter@D@__crt_stdio_output@@@__crt_stdio_output@@IAE_NAAPAUansi_string@?1??type_case_Z@?$output_processor@DV?$string_output_adapter@D@__crt_stdio_output@@V?$positional_parameter_base@DV?$string_output_adapter@D@__crt_stdio_output@@@2@@1@AAE_NXZ@@Z 100237d1 f i libucrt:output.obj
 0001:000227f1       ??$extract_argument_from_va_list@PAUansi_string@?1??type_case_Z@?$output_processor@DV?$string_output_adapter@D@__crt_stdio_output@@V?$standard_base@DV?$string_output_adapter@D@__crt_stdio_output@@@2@@__crt_stdio_output@@AAE_NXZ@PAU1?1??234@AAE_NXZ@@?$standard_base@DV?$string_output_adapter@D@__crt_stdio_output@@@__crt_stdio_output@@IAE_NAAPAUansi_string@?1??type_case_Z@?$output_processor@DV?$string_output_adapter@D@__crt_stdio_output@@V?$standard_base@DV?$string_output_adapter@D@__crt_stdio_output@@@2@@1@AAE_NXZ@@Z 100237f1 f i libucrt:output.obj
 0001:00022811       ??$extract_argument_from_va_list@PAUansi_string@?1??type_case_Z@?$output_processor@_WV?$stream_output_adapter@_W@__crt_stdio_output@@V?$format_validation_base@_WV?$stream_output_adapter@_W@__crt_stdio_output@@@2@@__crt_stdio_output@@AAE_NXZ@PAU1?1??234@AAE_NXZ@@?$standard_base@_WV?$stream_output_adapter@_W@__crt_stdio_output@@@__crt_stdio_output@@IAE_NAAPAUansi_string@?1??type_case_Z@?$output_processor@_WV?$stream_output_adapter@_W@__crt_stdio_output@@V?$format_validation_base@_WV?$stream_output_adapter@_W@__crt_stdio_output@@@2@@1@AAE_NXZ@@Z 10023811 f i libucrt:output.obj
 0001:00022831       ??$extract_argument_from_va_list@PAUansi_string@?1??type_case_Z@?$output_processor@_WV?$stream_output_adapter@_W@__crt_stdio_output@@V?$positional_parameter_base@_WV?$stream_output_adapter@_W@__crt_stdio_output@@@2@@__crt_stdio_output@@AAE_NXZ@PAU1?1??234@AAE_NXZ@@?$positional_parameter_base@_WV?$stream_output_adapter@_W@__crt_stdio_output@@@__crt_stdio_output@@IAE_NAAPAUansi_string@?1??type_case_Z@?$output_processor@_WV?$stream_output_adapter@_W@__crt_stdio_output@@V?$positional_parameter_base@_WV?$stream_output_adapter@_W@__crt_stdio_output@@@2@@1@AAE_NXZ@@Z 10023831 f i libucrt:output.obj
 0001:000228ce       ??$extract_argument_from_va_list@PAUansi_string@?1??type_case_Z@?$output_processor@_WV?$stream_output_adapter@_W@__crt_stdio_output@@V?$positional_parameter_base@_WV?$stream_output_adapter@_W@__crt_stdio_output@@@2@@__crt_stdio_output@@AAE_NXZ@PAU1?1??234@AAE_NXZ@@?$standard_base@_WV?$stream_output_adapter@_W@__crt_stdio_output@@@__crt_stdio_output@@IAE_NAAPAUansi_string@?1??type_case_Z@?$output_processor@_WV?$stream_output_adapter@_W@__crt_stdio_output@@V?$positional_parameter_base@_WV?$stream_output_adapter@_W@__crt_stdio_output@@@2@@1@AAE_NXZ@@Z 100238ce f i libucrt:output.obj
 0001:000228ee       ??$extract_argument_from_va_list@PAUansi_string@?1??type_case_Z@?$output_processor@_WV?$stream_output_adapter@_W@__crt_stdio_output@@V?$standard_base@_WV?$stream_output_adapter@_W@__crt_stdio_output@@@2@@__crt_stdio_output@@AAE_NXZ@PAU1?1??234@AAE_NXZ@@?$standard_base@_WV?$stream_output_adapter@_W@__crt_stdio_output@@@__crt_stdio_output@@IAE_NAAPAUansi_string@?1??type_case_Z@?$output_processor@_WV?$stream_output_adapter@_W@__crt_stdio_output@@V?$standard_base@_WV?$stream_output_adapter@_W@__crt_stdio_output@@@2@@1@AAE_NXZ@@Z 100238ee f i libucrt:output.obj
 0001:0002290e       ??$extract_argument_from_va_list@PAUansi_string@?1??type_case_Z@?$output_processor@_WV?$string_output_adapter@_W@__crt_stdio_output@@V?$format_validation_base@_WV?$string_output_adapter@_W@__crt_stdio_output@@@2@@__crt_stdio_output@@AAE_NXZ@PAU1?1??234@AAE_NXZ@@?$standard_base@_WV?$string_output_adapter@_W@__crt_stdio_output@@@__crt_stdio_output@@IAE_NAAPAUansi_string@?1??type_case_Z@?$output_processor@_WV?$string_output_adapter@_W@__crt_stdio_output@@V?$format_validation_base@_WV?$string_output_adapter@_W@__crt_stdio_output@@@2@@1@AAE_NXZ@@Z 1002390e f i libucrt:output.obj
 0001:0002292e       ??$extract_argument_from_va_list@PAUansi_string@?1??type_case_Z@?$output_processor@_WV?$string_output_adapter@_W@__crt_stdio_output@@V?$positional_parameter_base@_WV?$string_output_adapter@_W@__crt_stdio_output@@@2@@__crt_stdio_output@@AAE_NXZ@PAU1?1??234@AAE_NXZ@@?$positional_parameter_base@_WV?$string_output_adapter@_W@__crt_stdio_output@@@__crt_stdio_output@@IAE_NAAPAUansi_string@?1??type_case_Z@?$output_processor@_WV?$string_output_adapter@_W@__crt_stdio_output@@V?$positional_parameter_base@_WV?$string_output_adapter@_W@__crt_stdio_output@@@2@@1@AAE_NXZ@@Z 1002392e f i libucrt:output.obj
 0001:000229cb       ??$extract_argument_from_va_list@PAUansi_string@?1??type_case_Z@?$output_processor@_WV?$string_output_adapter@_W@__crt_stdio_output@@V?$positional_parameter_base@_WV?$string_output_adapter@_W@__crt_stdio_output@@@2@@__crt_stdio_output@@AAE_NXZ@PAU1?1??234@AAE_NXZ@@?$standard_base@_WV?$string_output_adapter@_W@__crt_stdio_output@@@__crt_stdio_output@@IAE_NAAPAUansi_string@?1??type_case_Z@?$output_processor@_WV?$string_output_adapter@_W@__crt_stdio_output@@V?$positional_parameter_base@_WV?$string_output_adapter@_W@__crt_stdio_output@@@2@@1@AAE_NXZ@@Z 100239cb f i libucrt:output.obj
 0001:000229eb       ??$extract_argument_from_va_list@PAUansi_string@?1??type_case_Z@?$output_processor@_WV?$string_output_adapter@_W@__crt_stdio_output@@V?$standard_base@_WV?$string_output_adapter@_W@__crt_stdio_output@@@2@@__crt_stdio_output@@AAE_NXZ@PAU1?1??234@AAE_NXZ@@?$standard_base@_WV?$string_output_adapter@_W@__crt_stdio_output@@@__crt_stdio_output@@IAE_NAAPAUansi_string@?1??type_case_Z@?$output_processor@_WV?$string_output_adapter@_W@__crt_stdio_output@@V?$standard_base@_WV?$string_output_adapter@_W@__crt_stdio_output@@@2@@1@AAE_NXZ@@Z 100239eb f i libucrt:output.obj
 0001:00022a0b       ??$extract_argument_from_va_list@PAXPAX@?$positional_parameter_base@DV?$stream_output_adapter@D@__crt_stdio_output@@@__crt_stdio_output@@IAE_NAAPAX@Z 10023a0b f i libucrt:output.obj
 0001:00022aa8       ??$extract_argument_from_va_list@PAXPAX@?$positional_parameter_base@DV?$string_output_adapter@D@__crt_stdio_output@@@__crt_stdio_output@@IAE_NAAPAX@Z 10023aa8 f i libucrt:output.obj
 0001:00022b45       ??$extract_argument_from_va_list@PAXPAX@?$positional_parameter_base@_WV?$stream_output_adapter@_W@__crt_stdio_output@@@__crt_stdio_output@@IAE_NAAPAX@Z 10023b45 f i libucrt:output.obj
 0001:00022be2       ??$extract_argument_from_va_list@PAXPAX@?$positional_parameter_base@_WV?$string_output_adapter@_W@__crt_stdio_output@@@__crt_stdio_output@@IAE_NAAPAX@Z 10023be2 f i libucrt:output.obj
 0001:00022c7f       ??$extract_argument_from_va_list@PAXPAX@?$standard_base@DV?$stream_output_adapter@D@__crt_stdio_output@@@__crt_stdio_output@@IAE_NAAPAX@Z 10023c7f f i libucrt:output.obj
 0001:00022c9f       ??$extract_argument_from_va_list@PAXPAX@?$standard_base@DV?$string_output_adapter@D@__crt_stdio_output@@@__crt_stdio_output@@IAE_NAAPAX@Z 10023c9f f i libucrt:output.obj
 0001:00022cbf       ??$extract_argument_from_va_list@PAXPAX@?$standard_base@_WV?$stream_output_adapter@_W@__crt_stdio_output@@@__crt_stdio_output@@IAE_NAAPAX@Z 10023cbf f i libucrt:output.obj
 0001:00022cdf       ??$extract_argument_from_va_list@PAXPAX@?$standard_base@_WV?$string_output_adapter@_W@__crt_stdio_output@@@__crt_stdio_output@@IAE_NAAPAX@Z 10023cdf f i libucrt:output.obj
 0001:00022cff       ??$extract_argument_from_va_list@U_CRT_DOUBLE@@U1@@?$positional_parameter_base@DV?$stream_output_adapter@D@__crt_stdio_output@@@__crt_stdio_output@@IAE_NAAU_CRT_DOUBLE@@@Z 10023cff f i libucrt:output.obj
 0001:00022db0       ??$extract_argument_from_va_list@U_CRT_DOUBLE@@U1@@?$positional_parameter_base@DV?$string_output_adapter@D@__crt_stdio_output@@@__crt_stdio_output@@IAE_NAAU_CRT_DOUBLE@@@Z 10023db0 f i libucrt:output.obj
 0001:00022e61       ??$extract_argument_from_va_list@U_CRT_DOUBLE@@U1@@?$positional_parameter_base@_WV?$stream_output_adapter@_W@__crt_stdio_output@@@__crt_stdio_output@@IAE_NAAU_CRT_DOUBLE@@@Z 10023e61 f i libucrt:output.obj
 0001:00022f12       ??$extract_argument_from_va_list@U_CRT_DOUBLE@@U1@@?$positional_parameter_base@_WV?$string_output_adapter@_W@__crt_stdio_output@@@__crt_stdio_output@@IAE_NAAU_CRT_DOUBLE@@@Z 10023f12 f i libucrt:output.obj
 0001:00022fc3       ??$extract_argument_from_va_list@U_CRT_DOUBLE@@U1@@?$standard_base@DV?$stream_output_adapter@D@__crt_stdio_output@@@__crt_stdio_output@@IAE_NAAU_CRT_DOUBLE@@@Z 10023fc3 f i libucrt:output.obj
 0001:00022feb       ??$extract_argument_from_va_list@U_CRT_DOUBLE@@U1@@?$standard_base@DV?$string_output_adapter@D@__crt_stdio_output@@@__crt_stdio_output@@IAE_NAAU_CRT_DOUBLE@@@Z 10023feb f i libucrt:output.obj
 0001:00023013       ??$extract_argument_from_va_list@U_CRT_DOUBLE@@U1@@?$standard_base@_WV?$stream_output_adapter@_W@__crt_stdio_output@@@__crt_stdio_output@@IAE_NAAU_CRT_DOUBLE@@@Z 10024013 f i libucrt:output.obj
 0001:0002303b       ??$extract_argument_from_va_list@U_CRT_DOUBLE@@U1@@?$standard_base@_WV?$string_output_adapter@_W@__crt_stdio_output@@@__crt_stdio_output@@IAE_NAAU_CRT_DOUBLE@@@Z 1002403b f i libucrt:output.obj
 0001:00023063       ??$extract_argument_from_va_list@_J_J@?$positional_parameter_base@DV?$stream_output_adapter@D@__crt_stdio_output@@@__crt_stdio_output@@IAE_NAA_J@Z 10024063 f i libucrt:output.obj
 0001:00023114       ??$extract_argument_from_va_list@_J_J@?$positional_parameter_base@DV?$string_output_adapter@D@__crt_stdio_output@@@__crt_stdio_output@@IAE_NAA_J@Z 10024114 f i libucrt:output.obj
 0001:000231c5       ??$extract_argument_from_va_list@_J_J@?$positional_parameter_base@_WV?$stream_output_adapter@_W@__crt_stdio_output@@@__crt_stdio_output@@IAE_NAA_J@Z 100241c5 f i libucrt:output.obj
 0001:00023276       ??$extract_argument_from_va_list@_J_J@?$positional_parameter_base@_WV?$string_output_adapter@_W@__crt_stdio_output@@@__crt_stdio_output@@IAE_NAA_J@Z 10024276 f i libucrt:output.obj
 0001:00023327       ??$extract_argument_from_va_list@_J_J@?$standard_base@DV?$stream_output_adapter@D@__crt_stdio_output@@@__crt_stdio_output@@IAE_NAA_J@Z 10024327 f i libucrt:output.obj
 0001:0002334f       ??$extract_argument_from_va_list@_J_J@?$standard_base@DV?$string_output_adapter@D@__crt_stdio_output@@@__crt_stdio_output@@IAE_NAA_J@Z 1002434f f i libucrt:output.obj
 0001:00023377       ??$extract_argument_from_va_list@_J_J@?$standard_base@_WV?$stream_output_adapter@_W@__crt_stdio_output@@@__crt_stdio_output@@IAE_NAA_J@Z 10024377 f i libucrt:output.obj
 0001:0002339f       ??$extract_argument_from_va_list@_J_J@?$standard_base@_WV?$string_output_adapter@_W@__crt_stdio_output@@@__crt_stdio_output@@IAE_NAA_J@Z 1002439f f i libucrt:output.obj
 0001:000233c7       ??$extract_argument_from_va_list@_K_J@?$positional_parameter_base@DV?$stream_output_adapter@D@__crt_stdio_output@@@__crt_stdio_output@@IAE_NAA_J@Z 100243c7 f i libucrt:output.obj
 0001:00023478       ??$extract_argument_from_va_list@_K_J@?$positional_parameter_base@DV?$string_output_adapter@D@__crt_stdio_output@@@__crt_stdio_output@@IAE_NAA_J@Z 10024478 f i libucrt:output.obj
 0001:00023529       ??$extract_argument_from_va_list@_K_J@?$positional_parameter_base@_WV?$stream_output_adapter@_W@__crt_stdio_output@@@__crt_stdio_output@@IAE_NAA_J@Z 10024529 f i libucrt:output.obj
 0001:000235da       ??$extract_argument_from_va_list@_K_J@?$positional_parameter_base@_WV?$string_output_adapter@_W@__crt_stdio_output@@@__crt_stdio_output@@IAE_NAA_J@Z 100245da f i libucrt:output.obj
 0001:0002368b       ??$extract_argument_from_va_list@_K_J@?$standard_base@DV?$stream_output_adapter@D@__crt_stdio_output@@@__crt_stdio_output@@IAE_NAA_J@Z 1002468b f i libucrt:output.obj
 0001:000236b3       ??$extract_argument_from_va_list@_K_J@?$standard_base@DV?$string_output_adapter@D@__crt_stdio_output@@@__crt_stdio_output@@IAE_NAA_J@Z 100246b3 f i libucrt:output.obj
 0001:000236db       ??$extract_argument_from_va_list@_K_J@?$standard_base@_WV?$stream_output_adapter@_W@__crt_stdio_output@@@__crt_stdio_output@@IAE_NAA_J@Z 100246db f i libucrt:output.obj
 0001:00023703       ??$extract_argument_from_va_list@_K_J@?$standard_base@_WV?$string_output_adapter@_W@__crt_stdio_output@@@__crt_stdio_output@@IAE_NAA_J@Z 10024703 f i libucrt:output.obj
 0001:0002372b       ??$extract_argument_from_va_list@_W_W@?$positional_parameter_base@DV?$stream_output_adapter@D@__crt_stdio_output@@@__crt_stdio_output@@IAE_NAA_W@Z 1002472b f i libucrt:output.obj
 0001:000237cd       ??$extract_argument_from_va_list@_W_W@?$positional_parameter_base@DV?$string_output_adapter@D@__crt_stdio_output@@@__crt_stdio_output@@IAE_NAA_W@Z 100247cd f i libucrt:output.obj
 0001:0002386f       ??$extract_argument_from_va_list@_W_W@?$positional_parameter_base@_WV?$stream_output_adapter@_W@__crt_stdio_output@@@__crt_stdio_output@@IAE_NAA_W@Z 1002486f f i libucrt:output.obj
 0001:00023911       ??$extract_argument_from_va_list@_W_W@?$positional_parameter_base@_WV?$string_output_adapter@_W@__crt_stdio_output@@@__crt_stdio_output@@IAE_NAA_W@Z 10024911 f i libucrt:output.obj
 0001:000239b3       ??$extract_argument_from_va_list@_W_W@?$standard_base@DV?$stream_output_adapter@D@__crt_stdio_output@@@__crt_stdio_output@@IAE_NAA_W@Z 100249b3 f i libucrt:output.obj
 0001:000239d6       ??$extract_argument_from_va_list@_W_W@?$standard_base@DV?$string_output_adapter@D@__crt_stdio_output@@@__crt_stdio_output@@IAE_NAA_W@Z 100249d6 f i libucrt:output.obj
 0001:000239f9       ??$extract_argument_from_va_list@_W_W@?$standard_base@_WV?$stream_output_adapter@_W@__crt_stdio_output@@@__crt_stdio_output@@IAE_NAA_W@Z 100249f9 f i libucrt:output.obj
 0001:00023a1c       ??$extract_argument_from_va_list@_W_W@?$standard_base@_WV?$string_output_adapter@_W@__crt_stdio_output@@@__crt_stdio_output@@IAE_NAA_W@Z 10024a1c f i libucrt:output.obj
 0001:00023a3f       ??$get_parameter_type@D@?$positional_parameter_base@DV?$stream_output_adapter@D@__crt_stdio_output@@@__crt_stdio_output@@CA?AW4parameter_type@01@PAD@Z 10024a3f f i libucrt:output.obj
 0001:00023a43       ??$get_parameter_type@D@?$positional_parameter_base@DV?$string_output_adapter@D@__crt_stdio_output@@@__crt_stdio_output@@CA?AW4parameter_type@01@PAD@Z 10024a43 f i libucrt:output.obj
 0001:00023a47       ??$get_parameter_type@D@?$positional_parameter_base@_WV?$stream_output_adapter@_W@__crt_stdio_output@@@__crt_stdio_output@@CA?AW4parameter_type@01@PAD@Z 10024a47 f i libucrt:output.obj
 0001:00023a4b       ??$get_parameter_type@D@?$positional_parameter_base@_WV?$string_output_adapter@_W@__crt_stdio_output@@@__crt_stdio_output@@CA?AW4parameter_type@01@PAD@Z 10024a4b f i libucrt:output.obj
 0001:00023a4f       ??$get_parameter_type@Uansi_string@?1??type_case_Z@?$output_processor@DV?$stream_output_adapter@D@__crt_stdio_output@@V?$positional_parameter_base@DV?$stream_output_adapter@D@__crt_stdio_output@@@2@@__crt_stdio_output@@AAE_NXZ@@?$positional_parameter_base@DV?$stream_output_adapter@D@__crt_stdio_output@@@__crt_stdio_output@@CA?AW4parameter_type@01@PAUansi_string@?1??type_case_Z@?$output_processor@DV?$stream_output_adapter@D@__crt_stdio_output@@V?$positional_parameter_base@DV?$stream_output_adapter@D@__crt_stdio_output@@@2@@1@AAE_NXZ@@Z 10024a4f f i libucrt:output.obj
 0001:00023a53       ??$get_parameter_type@Uansi_string@?1??type_case_Z@?$output_processor@DV?$string_output_adapter@D@__crt_stdio_output@@V?$positional_parameter_base@DV?$string_output_adapter@D@__crt_stdio_output@@@2@@__crt_stdio_output@@AAE_NXZ@@?$positional_parameter_base@DV?$string_output_adapter@D@__crt_stdio_output@@@__crt_stdio_output@@CA?AW4parameter_type@01@PAUansi_string@?1??type_case_Z@?$output_processor@DV?$string_output_adapter@D@__crt_stdio_output@@V?$positional_parameter_base@DV?$string_output_adapter@D@__crt_stdio_output@@@2@@1@AAE_NXZ@@Z 10024a53 f i libucrt:output.obj
 0001:00023a57       ??$get_parameter_type@Uansi_string@?1??type_case_Z@?$output_processor@_WV?$stream_output_adapter@_W@__crt_stdio_output@@V?$positional_parameter_base@_WV?$stream_output_adapter@_W@__crt_stdio_output@@@2@@__crt_stdio_output@@AAE_NXZ@@?$positional_parameter_base@_WV?$stream_output_adapter@_W@__crt_stdio_output@@@__crt_stdio_output@@CA?AW4parameter_type@01@PAUansi_string@?1??type_case_Z@?$output_processor@_WV?$stream_output_adapter@_W@__crt_stdio_output@@V?$positional_parameter_base@_WV?$stream_output_adapter@_W@__crt_stdio_output@@@2@@1@AAE_NXZ@@Z 10024a57 f i libucrt:output.obj
 0001:00023a5b       ??$get_parameter_type@Uansi_string@?1??type_case_Z@?$output_processor@_WV?$string_output_adapter@_W@__crt_stdio_output@@V?$positional_parameter_base@_WV?$string_output_adapter@_W@__crt_stdio_output@@@2@@__crt_stdio_output@@AAE_NXZ@@?$positional_parameter_base@_WV?$string_output_adapter@_W@__crt_stdio_output@@@__crt_stdio_output@@CA?AW4parameter_type@01@PAUansi_string@?1??type_case_Z@?$output_processor@_WV?$string_output_adapter@_W@__crt_stdio_output@@V?$positional_parameter_base@_WV?$string_output_adapter@_W@__crt_stdio_output@@@2@@1@AAE_NXZ@@Z 10024a5b f i libucrt:output.obj
 0001:00023a5f       ??$get_parameter_type@X@?$positional_parameter_base@DV?$stream_output_adapter@D@__crt_stdio_output@@@__crt_stdio_output@@CA?AW4parameter_type@01@PAX@Z 10024a5f f i libucrt:output.obj
 0001:00023a63       ??$get_parameter_type@X@?$positional_parameter_base@DV?$string_output_adapter@D@__crt_stdio_output@@@__crt_stdio_output@@CA?AW4parameter_type@01@PAX@Z 10024a63 f i libucrt:output.obj
 0001:00023a67       ??$get_parameter_type@X@?$positional_parameter_base@_WV?$stream_output_adapter@_W@__crt_stdio_output@@@__crt_stdio_output@@CA?AW4parameter_type@01@PAX@Z 10024a67 f i libucrt:output.obj
 0001:00023a6b       ??$get_parameter_type@X@?$positional_parameter_base@_WV?$string_output_adapter@_W@__crt_stdio_output@@@__crt_stdio_output@@CA?AW4parameter_type@01@PAX@Z 10024a6b f i libucrt:output.obj
 0001:00023a6f       ??$is_character_specifier@D@?$positional_parameter_base@DV?$stream_output_adapter@D@__crt_stdio_output@@@__crt_stdio_output@@CA_ND@Z 10024a6f f i libucrt:output.obj
 0001:00023a8e       ??$is_character_specifier@D@?$positional_parameter_base@DV?$string_output_adapter@D@__crt_stdio_output@@@__crt_stdio_output@@CA_ND@Z 10024a8e f i libucrt:output.obj
 0001:00023aad       ??$is_character_specifier@_W@?$positional_parameter_base@_WV?$stream_output_adapter@_W@__crt_stdio_output@@@__crt_stdio_output@@CA_N_W@Z 10024aad f i libucrt:output.obj
 0001:00023ad0       ??$is_character_specifier@_W@?$positional_parameter_base@_WV?$string_output_adapter@_W@__crt_stdio_output@@@__crt_stdio_output@@CA_N_W@Z 10024ad0 f i libucrt:output.obj
 0001:00023af3       ??$is_integral_specifier@D@?$positional_parameter_base@DV?$stream_output_adapter@D@__crt_stdio_output@@@__crt_stdio_output@@CA_ND@Z 10024af3 f i libucrt:output.obj
 0001:00023b2b       ??$is_integral_specifier@D@?$positional_parameter_base@DV?$string_output_adapter@D@__crt_stdio_output@@@__crt_stdio_output@@CA_ND@Z 10024b2b f i libucrt:output.obj
 0001:00023b63       ??$is_integral_specifier@_W@?$positional_parameter_base@_WV?$stream_output_adapter@_W@__crt_stdio_output@@@__crt_stdio_output@@CA_N_W@Z 10024b63 f i libucrt:output.obj
 0001:00023bae       ??$is_integral_specifier@_W@?$positional_parameter_base@_WV?$string_output_adapter@_W@__crt_stdio_output@@@__crt_stdio_output@@CA_N_W@Z 10024bae f i libucrt:output.obj
 0001:00023bf9       ??$is_pointer_specifier@D@?$positional_parameter_base@DV?$stream_output_adapter@D@__crt_stdio_output@@@__crt_stdio_output@@CA_ND@Z 10024bf9 f i libucrt:output.obj
 0001:00023c0d       ??$is_pointer_specifier@D@?$positional_parameter_base@DV?$string_output_adapter@D@__crt_stdio_output@@@__crt_stdio_output@@CA_ND@Z 10024c0d f i libucrt:output.obj
 0001:00023c21       ??$is_pointer_specifier@_W@?$positional_parameter_base@_WV?$stream_output_adapter@_W@__crt_stdio_output@@@__crt_stdio_output@@CA_N_W@Z 10024c21 f i libucrt:output.obj
 0001:00023c36       ??$is_pointer_specifier@_W@?$positional_parameter_base@_WV?$string_output_adapter@_W@__crt_stdio_output@@@__crt_stdio_output@@CA_N_W@Z 10024c36 f i libucrt:output.obj
 0001:00023c4b       ??$is_string_specifier@D@?$positional_parameter_base@DV?$stream_output_adapter@D@__crt_stdio_output@@@__crt_stdio_output@@CA_ND@Z 10024c4b f i libucrt:output.obj
 0001:00023c6a       ??$is_string_specifier@D@?$positional_parameter_base@DV?$string_output_adapter@D@__crt_stdio_output@@@__crt_stdio_output@@CA_ND@Z 10024c6a f i libucrt:output.obj
 0001:00023c89       ??$is_string_specifier@_W@?$positional_parameter_base@_WV?$stream_output_adapter@_W@__crt_stdio_output@@@__crt_stdio_output@@CA_N_W@Z 10024c89 f i libucrt:output.obj
 0001:00023cac       ??$is_string_specifier@_W@?$positional_parameter_base@_WV?$string_output_adapter@_W@__crt_stdio_output@@@__crt_stdio_output@@CA_N_W@Z 10024cac f i libucrt:output.obj
 0001:00023ccf       ??$is_wide_character_specifier@D@__crt_stdio_output@@YA_N_KDW4length_modifier@0@@Z 10024ccf f i libucrt:output.obj
 0001:00023d1f       ??$is_wide_character_specifier@_W@__crt_stdio_output@@YA_N_K_WW4length_modifier@0@@Z 10024d1f f i libucrt:output.obj
 0001:00023d81       ??$peek_va_arg@C@__crt_stdio_output@@YACPAD@Z 10024d81 f i libucrt:output.obj
 0001:00023d90       ??$peek_va_arg@E@__crt_stdio_output@@YAEPAD@Z 10024d90 f i libucrt:output.obj
 0001:00023d9f       ??$peek_va_arg@F@__crt_stdio_output@@YAFPAD@Z 10024d9f f i libucrt:output.obj
 0001:00023daf       ??$peek_va_arg@G@__crt_stdio_output@@YAGPAD@Z 10024daf f i libucrt:output.obj
 0001:00023dbf       ??$peek_va_arg@H@__crt_stdio_output@@YAHPAD@Z 10024dbf f i libucrt:output.obj
 0001:00023dce       ??$peek_va_arg@I@__crt_stdio_output@@YAIPAD@Z 10024dce f i libucrt:output.obj
 0001:00023ddd       ??$peek_va_arg@PAD@__crt_stdio_output@@YAPADPAD@Z 10024ddd f i libucrt:output.obj
 0001:00023dec       ??$peek_va_arg@PAUansi_string@?1??type_case_Z@?$output_processor@DV?$stream_output_adapter@D@__crt_stdio_output@@V?$positional_parameter_base@DV?$stream_output_adapter@D@__crt_stdio_output@@@2@@__crt_stdio_output@@AAE_NXZ@@__crt_stdio_output@@YAPAUansi_string@?1??type_case_Z@?$output_processor@DV?$stream_output_adapter@D@__crt_stdio_output@@V?$positional_parameter_base@DV?$stream_output_adapter@D@__crt_stdio_output@@@2@@0@AAE_NXZ@PAD@Z 10024dec f i libucrt:output.obj
 0001:00023dfb       ??$peek_va_arg@PAUansi_string@?1??type_case_Z@?$output_processor@DV?$string_output_adapter@D@__crt_stdio_output@@V?$positional_parameter_base@DV?$string_output_adapter@D@__crt_stdio_output@@@2@@__crt_stdio_output@@AAE_NXZ@@__crt_stdio_output@@YAPAUansi_string@?1??type_case_Z@?$output_processor@DV?$string_output_adapter@D@__crt_stdio_output@@V?$positional_parameter_base@DV?$string_output_adapter@D@__crt_stdio_output@@@2@@0@AAE_NXZ@PAD@Z 10024dfb f i libucrt:output.obj
 0001:00023e0a       ??$peek_va_arg@PAUansi_string@?1??type_case_Z@?$output_processor@_WV?$stream_output_adapter@_W@__crt_stdio_output@@V?$positional_parameter_base@_WV?$stream_output_adapter@_W@__crt_stdio_output@@@2@@__crt_stdio_output@@AAE_NXZ@@__crt_stdio_output@@YAPAUansi_string@?1??type_case_Z@?$output_processor@_WV?$stream_output_adapter@_W@__crt_stdio_output@@V?$positional_parameter_base@_WV?$stream_output_adapter@_W@__crt_stdio_output@@@2@@0@AAE_NXZ@PAD@Z 10024e0a f i libucrt:output.obj
 0001:00023e19       ??$peek_va_arg@PAUansi_string@?1??type_case_Z@?$output_processor@_WV?$string_output_adapter@_W@__crt_stdio_output@@V?$positional_parameter_base@_WV?$string_output_adapter@_W@__crt_stdio_output@@@2@@__crt_stdio_output@@AAE_NXZ@@__crt_stdio_output@@YAPAUansi_string@?1??type_case_Z@?$output_processor@_WV?$string_output_adapter@_W@__crt_stdio_output@@V?$positional_parameter_base@_WV?$string_output_adapter@_W@__crt_stdio_output@@@2@@0@AAE_NXZ@PAD@Z 10024e19 f i libucrt:output.obj
 0001:00023e28       ??$peek_va_arg@PAX@__crt_stdio_output@@YAPAXPAD@Z 10024e28 f i libucrt:output.obj
 0001:00023e37       ??$peek_va_arg@U_CRT_DOUBLE@@@__crt_stdio_output@@YA?AU_CRT_DOUBLE@@PAD@Z 10024e37 f i libucrt:output.obj
 0001:00023e49       ??$peek_va_arg@_J@__crt_stdio_output@@YA_JPAD@Z 10024e49 f i libucrt:output.obj
 0001:00023e5b       ??$peek_va_arg@_K@__crt_stdio_output@@YA_KPAD@Z 10024e5b f i libucrt:output.obj
 0001:00023e6d       ??$peek_va_arg@_W@__crt_stdio_output@@YA_WPAD@Z 10024e6d f i libucrt:output.obj
 0001:00023e7d       ??$puttc_nolock@ABDPAU_iobuf@@@?$__crt_char_traits@D@@SAHABD$$QAPAU_iobuf@@@Z 10024e7d f i libucrt:output.obj
 0001:00023e9d       ??$puttc_nolock@AB_WPAU_iobuf@@@?$__crt_char_traits@_W@@SAGAB_W$$QAPAU_iobuf@@@Z 10024e9d f i libucrt:output.obj
 0001:00023ebd       ??$read_va_arg@C@__crt_stdio_output@@YACAAPAD@Z 10024ebd f i libucrt:output.obj
 0001:00023ed3       ??$read_va_arg@E@__crt_stdio_output@@YAEAAPAD@Z 10024ed3 f i libucrt:output.obj
 0001:00023ee9       ??$read_va_arg@F@__crt_stdio_output@@YAFAAPAD@Z 10024ee9 f i libucrt:output.obj
 0001:00023f00       ??$read_va_arg@G@__crt_stdio_output@@YAGAAPAD@Z 10024f00 f i libucrt:output.obj
 0001:00023f17       ??$read_va_arg@H@__crt_stdio_output@@YAHAAPAD@Z 10024f17 f i libucrt:output.obj
 0001:00023f2d       ??$read_va_arg@I@__crt_stdio_output@@YAIAAPAD@Z 10024f2d f i libucrt:output.obj
 0001:00023f43       ??$read_va_arg@PAD@__crt_stdio_output@@YAPADAAPAD@Z 10024f43 f i libucrt:output.obj
 0001:00023f59       ??$read_va_arg@PAUansi_string@?1??type_case_Z@?$output_processor@DV?$stream_output_adapter@D@__crt_stdio_output@@V?$format_validation_base@DV?$stream_output_adapter@D@__crt_stdio_output@@@2@@__crt_stdio_output@@AAE_NXZ@@__crt_stdio_output@@YAPAUansi_string@?1??type_case_Z@?$output_processor@DV?$stream_output_adapter@D@__crt_stdio_output@@V?$format_validation_base@DV?$stream_output_adapter@D@__crt_stdio_output@@@2@@0@AAE_NXZ@AAPAD@Z 10024f59 f i libucrt:output.obj
 0001:00023f6f       ??$read_va_arg@PAUansi_string@?1??type_case_Z@?$output_processor@DV?$stream_output_adapter@D@__crt_stdio_output@@V?$positional_parameter_base@DV?$stream_output_adapter@D@__crt_stdio_output@@@2@@__crt_stdio_output@@AAE_NXZ@@__crt_stdio_output@@YAPAUansi_string@?1??type_case_Z@?$output_processor@DV?$stream_output_adapter@D@__crt_stdio_output@@V?$positional_parameter_base@DV?$stream_output_adapter@D@__crt_stdio_output@@@2@@0@AAE_NXZ@AAPAD@Z 10024f6f f i libucrt:output.obj
 0001:00023f85       ??$read_va_arg@PAUansi_string@?1??type_case_Z@?$output_processor@DV?$stream_output_adapter@D@__crt_stdio_output@@V?$standard_base@DV?$stream_output_adapter@D@__crt_stdio_output@@@2@@__crt_stdio_output@@AAE_NXZ@@__crt_stdio_output@@YAPAUansi_string@?1??type_case_Z@?$output_processor@DV?$stream_output_adapter@D@__crt_stdio_output@@V?$standard_base@DV?$stream_output_adapter@D@__crt_stdio_output@@@2@@0@AAE_NXZ@AAPAD@Z 10024f85 f i libucrt:output.obj
 0001:00023f9b       ??$read_va_arg@PAUansi_string@?1??type_case_Z@?$output_processor@DV?$string_output_adapter@D@__crt_stdio_output@@V?$format_validation_base@DV?$string_output_adapter@D@__crt_stdio_output@@@2@@__crt_stdio_output@@AAE_NXZ@@__crt_stdio_output@@YAPAUansi_string@?1??type_case_Z@?$output_processor@DV?$string_output_adapter@D@__crt_stdio_output@@V?$format_validation_base@DV?$string_output_adapter@D@__crt_stdio_output@@@2@@0@AAE_NXZ@AAPAD@Z 10024f9b f i libucrt:output.obj
 0001:00023fb1       ??$read_va_arg@PAUansi_string@?1??type_case_Z@?$output_processor@DV?$string_output_adapter@D@__crt_stdio_output@@V?$positional_parameter_base@DV?$string_output_adapter@D@__crt_stdio_output@@@2@@__crt_stdio_output@@AAE_NXZ@@__crt_stdio_output@@YAPAUansi_string@?1??type_case_Z@?$output_processor@DV?$string_output_adapter@D@__crt_stdio_output@@V?$positional_parameter_base@DV?$string_output_adapter@D@__crt_stdio_output@@@2@@0@AAE_NXZ@AAPAD@Z 10024fb1 f i libucrt:output.obj
 0001:00023fc7       ??$read_va_arg@PAUansi_string@?1??type_case_Z@?$output_processor@DV?$string_output_adapter@D@__crt_stdio_output@@V?$standard_base@DV?$string_output_adapter@D@__crt_stdio_output@@@2@@__crt_stdio_output@@AAE_NXZ@@__crt_stdio_output@@YAPAUansi_string@?1??type_case_Z@?$output_processor@DV?$string_output_adapter@D@__crt_stdio_output@@V?$standard_base@DV?$string_output_adapter@D@__crt_stdio_output@@@2@@0@AAE_NXZ@AAPAD@Z 10024fc7 f i libucrt:output.obj
 0001:00023fdd       ??$read_va_arg@PAUansi_string@?1??type_case_Z@?$output_processor@_WV?$stream_output_adapter@_W@__crt_stdio_output@@V?$format_validation_base@_WV?$stream_output_adapter@_W@__crt_stdio_output@@@2@@__crt_stdio_output@@AAE_NXZ@@__crt_stdio_output@@YAPAUansi_string@?1??type_case_Z@?$output_processor@_WV?$stream_output_adapter@_W@__crt_stdio_output@@V?$format_validation_base@_WV?$stream_output_adapter@_W@__crt_stdio_output@@@2@@0@AAE_NXZ@AAPAD@Z 10024fdd f i libucrt:output.obj
 0001:00023ff3       ??$read_va_arg@PAUansi_string@?1??type_case_Z@?$output_processor@_WV?$stream_output_adapter@_W@__crt_stdio_output@@V?$positional_parameter_base@_WV?$stream_output_adapter@_W@__crt_stdio_output@@@2@@__crt_stdio_output@@AAE_NXZ@@__crt_stdio_output@@YAPAUansi_string@?1??type_case_Z@?$output_processor@_WV?$stream_output_adapter@_W@__crt_stdio_output@@V?$positional_parameter_base@_WV?$stream_output_adapter@_W@__crt_stdio_output@@@2@@0@AAE_NXZ@AAPAD@Z 10024ff3 f i libucrt:output.obj
 0001:00024009       ??$read_va_arg@PAUansi_string@?1??type_case_Z@?$output_processor@_WV?$stream_output_adapter@_W@__crt_stdio_output@@V?$standard_base@_WV?$stream_output_adapter@_W@__crt_stdio_output@@@2@@__crt_stdio_output@@AAE_NXZ@@__crt_stdio_output@@YAPAUansi_string@?1??type_case_Z@?$output_processor@_WV?$stream_output_adapter@_W@__crt_stdio_output@@V?$standard_base@_WV?$stream_output_adapter@_W@__crt_stdio_output@@@2@@0@AAE_NXZ@AAPAD@Z 10025009 f i libucrt:output.obj
 0001:0002401f       ??$read_va_arg@PAUansi_string@?1??type_case_Z@?$output_processor@_WV?$string_output_adapter@_W@__crt_stdio_output@@V?$format_validation_base@_WV?$string_output_adapter@_W@__crt_stdio_output@@@2@@__crt_stdio_output@@AAE_NXZ@@__crt_stdio_output@@YAPAUansi_string@?1??type_case_Z@?$output_processor@_WV?$string_output_adapter@_W@__crt_stdio_output@@V?$format_validation_base@_WV?$string_output_adapter@_W@__crt_stdio_output@@@2@@0@AAE_NXZ@AAPAD@Z 1002501f f i libucrt:output.obj
 0001:00024035       ??$read_va_arg@PAUansi_string@?1??type_case_Z@?$output_processor@_WV?$string_output_adapter@_W@__crt_stdio_output@@V?$positional_parameter_base@_WV?$string_output_adapter@_W@__crt_stdio_output@@@2@@__crt_stdio_output@@AAE_NXZ@@__crt_stdio_output@@YAPAUansi_string@?1??type_case_Z@?$output_processor@_WV?$string_output_adapter@_W@__crt_stdio_output@@V?$positional_parameter_base@_WV?$string_output_adapter@_W@__crt_stdio_output@@@2@@0@AAE_NXZ@AAPAD@Z 10025035 f i libucrt:output.obj
 0001:0002404b       ??$read_va_arg@PAUansi_string@?1??type_case_Z@?$output_processor@_WV?$string_output_adapter@_W@__crt_stdio_output@@V?$standard_base@_WV?$string_output_adapter@_W@__crt_stdio_output@@@2@@__crt_stdio_output@@AAE_NXZ@@__crt_stdio_output@@YAPAUansi_string@?1??type_case_Z@?$output_processor@_WV?$string_output_adapter@_W@__crt_stdio_output@@V?$standard_base@_WV?$string_output_adapter@_W@__crt_stdio_output@@@2@@0@AAE_NXZ@AAPAD@Z 1002504b f i libucrt:output.obj
 0001:00024061       ??$read_va_arg@PAX@__crt_stdio_output@@YAPAXAAPAD@Z 10025061 f i libucrt:output.obj
 0001:00024077       ??$read_va_arg@U_CRT_DOUBLE@@@__crt_stdio_output@@YA?AU_CRT_DOUBLE@@AAPAD@Z 10025077 f i libucrt:output.obj
 0001:00024091       ??$read_va_arg@_J@__crt_stdio_output@@YA_JAAPAD@Z 10025091 f i libucrt:output.obj
 0001:000240ab       ??$read_va_arg@_K@__crt_stdio_output@@YA_KAAPAD@Z 100250ab f i libucrt:output.obj
 0001:000240c5       ??$read_va_arg@_W@__crt_stdio_output@@YA_WAAPAD@Z 100250c5 f i libucrt:output.obj
 0001:000240dc       ??$scratch_count@D@formatting_buffer@__crt_stdio_output@@QBEIXZ 100250dc f i libucrt:output.obj
 0001:000240e1       ??$scratch_data@D@formatting_buffer@__crt_stdio_output@@QAEPADXZ 100250e1 f i libucrt:output.obj
 0001:00024106       ??$tcstol@AAPBDPAPADH@?$__crt_char_traits@D@@SAJAAPBD$$QAPAPAD$$QAH@Z 10025106 f i libucrt:output.obj
 0001:0002412b       ??$tcstol@AAPB_WPAPA_WH@?$__crt_char_traits@_W@@SAJAAPB_W$$QAPAPA_W$$QAH@Z 1002512b f i libucrt:output.obj
 0001:00024150       ??$tcstol@PBDPAPADH@?$__crt_char_traits@D@@SAJ$$QAPBD$$QAPAPAD$$QAH@Z 10025150 f i libucrt:output.obj
 0001:00024175       ??$tcstol@PB_WPAPA_WH@?$__crt_char_traits@_W@@SAJ$$QAPB_W$$QAPAPA_W$$QAH@Z 10025175 f i libucrt:output.obj
 0001:0002419a       ??$type_case_integer_parse_into_buffer@I@?$output_processor@DV?$stream_output_adapter@D@__crt_stdio_output@@V?$format_validation_base@DV?$stream_output_adapter@D@__crt_stdio_output@@@2@@__crt_stdio_output@@AAEXII_N@Z 1002519a f i libucrt:output.obj
 0001:0002422c       ??$type_case_integer_parse_into_buffer@I@?$output_processor@DV?$stream_output_adapter@D@__crt_stdio_output@@V?$positional_parameter_base@DV?$stream_output_adapter@D@__crt_stdio_output@@@2@@__crt_stdio_output@@AAEXII_N@Z 1002522c f i libucrt:output.obj
 0001:000242be       ??$type_case_integer_parse_into_buffer@I@?$output_processor@DV?$stream_output_adapter@D@__crt_stdio_output@@V?$standard_base@DV?$stream_output_adapter@D@__crt_stdio_output@@@2@@__crt_stdio_output@@AAEXII_N@Z 100252be f i libucrt:output.obj
 0001:00024350       ??$type_case_integer_parse_into_buffer@I@?$output_processor@DV?$string_output_adapter@D@__crt_stdio_output@@V?$format_validation_base@DV?$string_output_adapter@D@__crt_stdio_output@@@2@@__crt_stdio_output@@AAEXII_N@Z 10025350 f i libucrt:output.obj
 0001:000243e2       ??$type_case_integer_parse_into_buffer@I@?$output_processor@DV?$string_output_adapter@D@__crt_stdio_output@@V?$positional_parameter_base@DV?$string_output_adapter@D@__crt_stdio_output@@@2@@__crt_stdio_output@@AAEXII_N@Z 100253e2 f i libucrt:output.obj
 0001:00024474       ??$type_case_integer_parse_into_buffer@I@?$output_processor@DV?$string_output_adapter@D@__crt_stdio_output@@V?$standard_base@DV?$string_output_adapter@D@__crt_stdio_output@@@2@@__crt_stdio_output@@AAEXII_N@Z 10025474 f i libucrt:output.obj
 0001:00024506       ??$type_case_integer_parse_into_buffer@I@?$output_processor@_WV?$stream_output_adapter@_W@__crt_stdio_output@@V?$format_validation_base@_WV?$stream_output_adapter@_W@__crt_stdio_output@@@2@@__crt_stdio_output@@AAEXII_N@Z 10025506 f i libucrt:output.obj
 0001:00024598       ??$type_case_integer_parse_into_buffer@I@?$output_processor@_WV?$stream_output_adapter@_W@__crt_stdio_output@@V?$positional_parameter_base@_WV?$stream_output_adapter@_W@__crt_stdio_output@@@2@@__crt_stdio_output@@AAEXII_N@Z 10025598 f i libucrt:output.obj
 0001:0002462a       ??$type_case_integer_parse_into_buffer@I@?$output_processor@_WV?$stream_output_adapter@_W@__crt_stdio_output@@V?$standard_base@_WV?$stream_output_adapter@_W@__crt_stdio_output@@@2@@__crt_stdio_output@@AAEXII_N@Z 1002562a f i libucrt:output.obj
 0001:000246bc       ??$type_case_integer_parse_into_buffer@I@?$output_processor@_WV?$string_output_adapter@_W@__crt_stdio_output@@V?$format_validation_base@_WV?$string_output_adapter@_W@__crt_stdio_output@@@2@@__crt_stdio_output@@AAEXII_N@Z 100256bc f i libucrt:output.obj
 0001:0002474e       ??$type_case_integer_parse_into_buffer@I@?$output_processor@_WV?$string_output_adapter@_W@__crt_stdio_output@@V?$positional_parameter_base@_WV?$string_output_adapter@_W@__crt_stdio_output@@@2@@__crt_stdio_output@@AAEXII_N@Z 1002574e f i libucrt:output.obj
 0001:000247e0       ??$type_case_integer_parse_into_buffer@I@?$output_processor@_WV?$string_output_adapter@_W@__crt_stdio_output@@V?$standard_base@_WV?$string_output_adapter@_W@__crt_stdio_output@@@2@@__crt_stdio_output@@AAEXII_N@Z 100257e0 f i libucrt:output.obj
 0001:00024872       ??$type_case_integer_parse_into_buffer@_K@?$output_processor@DV?$stream_output_adapter@D@__crt_stdio_output@@V?$format_validation_base@DV?$stream_output_adapter@D@__crt_stdio_output@@@2@@__crt_stdio_output@@AAEX_KI_N@Z 10025872 f i libucrt:output.obj
 0001:0002491c       ??$type_case_integer_parse_into_buffer@_K@?$output_processor@DV?$stream_output_adapter@D@__crt_stdio_output@@V?$positional_parameter_base@DV?$stream_output_adapter@D@__crt_stdio_output@@@2@@__crt_stdio_output@@AAEX_KI_N@Z 1002591c f i libucrt:output.obj
 0001:000249c6       ??$type_case_integer_parse_into_buffer@_K@?$output_processor@DV?$stream_output_adapter@D@__crt_stdio_output@@V?$standard_base@DV?$stream_output_adapter@D@__crt_stdio_output@@@2@@__crt_stdio_output@@AAEX_KI_N@Z 100259c6 f i libucrt:output.obj
 0001:00024a70       ??$type_case_integer_parse_into_buffer@_K@?$output_processor@DV?$string_output_adapter@D@__crt_stdio_output@@V?$format_validation_base@DV?$string_output_adapter@D@__crt_stdio_output@@@2@@__crt_stdio_output@@AAEX_KI_N@Z 10025a70 f i libucrt:output.obj
 0001:00024b1a       ??$type_case_integer_parse_into_buffer@_K@?$output_processor@DV?$string_output_adapter@D@__crt_stdio_output@@V?$positional_parameter_base@DV?$string_output_adapter@D@__crt_stdio_output@@@2@@__crt_stdio_output@@AAEX_KI_N@Z 10025b1a f i libucrt:output.obj
 0001:00024bc4       ??$type_case_integer_parse_into_buffer@_K@?$output_processor@DV?$string_output_adapter@D@__crt_stdio_output@@V?$standard_base@DV?$string_output_adapter@D@__crt_stdio_output@@@2@@__crt_stdio_output@@AAEX_KI_N@Z 10025bc4 f i libucrt:output.obj
 0001:00024c6e       ??$type_case_integer_parse_into_buffer@_K@?$output_processor@_WV?$stream_output_adapter@_W@__crt_stdio_output@@V?$format_validation_base@_WV?$stream_output_adapter@_W@__crt_stdio_output@@@2@@__crt_stdio_output@@AAEX_KI_N@Z 10025c6e f i libucrt:output.obj
 0001:00024d18       ??$type_case_integer_parse_into_buffer@_K@?$output_processor@_WV?$stream_output_adapter@_W@__crt_stdio_output@@V?$positional_parameter_base@_WV?$stream_output_adapter@_W@__crt_stdio_output@@@2@@__crt_stdio_output@@AAEX_KI_N@Z 10025d18 f i libucrt:output.obj
 0001:00024dc2       ??$type_case_integer_parse_into_buffer@_K@?$output_processor@_WV?$stream_output_adapter@_W@__crt_stdio_output@@V?$standard_base@_WV?$stream_output_adapter@_W@__crt_stdio_output@@@2@@__crt_stdio_output@@AAEX_KI_N@Z 10025dc2 f i libucrt:output.obj
 0001:00024e6c       ??$type_case_integer_parse_into_buffer@_K@?$output_processor@_WV?$string_output_adapter@_W@__crt_stdio_output@@V?$format_validation_base@_WV?$string_output_adapter@_W@__crt_stdio_output@@@2@@__crt_stdio_output@@AAEX_KI_N@Z 10025e6c f i libucrt:output.obj
 0001:00024f16       ??$type_case_integer_parse_into_buffer@_K@?$output_processor@_WV?$string_output_adapter@_W@__crt_stdio_output@@V?$positional_parameter_base@_WV?$string_output_adapter@_W@__crt_stdio_output@@@2@@__crt_stdio_output@@AAEX_KI_N@Z 10025f16 f i libucrt:output.obj
 0001:00024fc0       ??$type_case_integer_parse_into_buffer@_K@?$output_processor@_WV?$string_output_adapter@_W@__crt_stdio_output@@V?$standard_base@_WV?$string_output_adapter@_W@__crt_stdio_output@@@2@@__crt_stdio_output@@AAEX_KI_N@Z 10025fc0 f i libucrt:output.obj
 0001:0002506a       ??$write_multiple_characters@V?$stream_output_adapter@D@__crt_stdio_output@@D@__crt_stdio_output@@YAXABV?$stream_output_adapter@D@0@DHQAH@Z 1002606a f i libucrt:output.obj
 0001:000250a1       ??$write_multiple_characters@V?$stream_output_adapter@_W@__crt_stdio_output@@D@__crt_stdio_output@@YAXABV?$stream_output_adapter@_W@0@DHQAH@Z 100260a1 f i libucrt:output.obj
 0001:000250de       ??$write_multiple_characters@V?$string_output_adapter@D@__crt_stdio_output@@D@__crt_stdio_output@@YAXABV?$string_output_adapter@D@0@DHQAH@Z 100260de f i libucrt:output.obj
 0001:00025115       ??$write_multiple_characters@V?$string_output_adapter@_W@__crt_stdio_output@@D@__crt_stdio_output@@YAXABV?$string_output_adapter@_W@0@DHQAH@Z 10026115 f i libucrt:output.obj
 0001:00025386       ??0?$common_data@D@__crt_stdio_output@@IAE@XZ 10026386 f i libucrt:output.obj
 0001:000253de       ??0?$common_data@_W@__crt_stdio_output@@IAE@XZ 100263de f i libucrt:output.obj
 0001:0002543d       ??0?$output_adapter_data@DV?$stream_output_adapter@D@__crt_stdio_output@@@__crt_stdio_output@@IAE@ABV?$stream_output_adapter@D@1@_KQBDQAU__crt_locale_pointers@@QAD@Z 1002643d f i libucrt:output.obj
 0001:00025488       ??0?$output_adapter_data@DV?$string_output_adapter@D@__crt_stdio_output@@@__crt_stdio_output@@IAE@ABV?$string_output_adapter@D@1@_KQBDQAU__crt_locale_pointers@@QAD@Z 10026488 f i libucrt:output.obj
 0001:000254d3       ??0?$output_adapter_data@_WV?$stream_output_adapter@_W@__crt_stdio_output@@@__crt_stdio_output@@IAE@ABV?$stream_output_adapter@_W@1@_KQB_WQAU__crt_locale_pointers@@QAD@Z 100264d3 f i libucrt:output.obj
 0001:0002551e       ??0?$output_adapter_data@_WV?$string_output_adapter@_W@__crt_stdio_output@@@__crt_stdio_output@@IAE@ABV?$string_output_adapter@_W@1@_KQB_WQAU__crt_locale_pointers@@QAD@Z 1002651e f i libucrt:output.obj
 0001:00025569       ??0?$output_processor@DV?$stream_output_adapter@D@__crt_stdio_output@@V?$format_validation_base@DV?$stream_output_adapter@D@__crt_stdio_output@@@2@@__crt_stdio_output@@QAE@ABV?$stream_output_adapter@D@1@_KQBDQAU__crt_locale_pointers@@QAD@Z 10026569 f i libucrt:output.obj
 0001:000255ab       ??0?$output_processor@DV?$stream_output_adapter@D@__crt_stdio_output@@V?$positional_parameter_base@DV?$stream_output_adapter@D@__crt_stdio_output@@@2@@__crt_stdio_output@@QAE@ABV?$stream_output_adapter@D@1@_KQBDQAU__crt_locale_pointers@@QAD@Z 100265ab f i libucrt:output.obj
 0001:000255e5       ??0?$output_processor@DV?$stream_output_adapter@D@__crt_stdio_output@@V?$standard_base@DV?$stream_output_adapter@D@__crt_stdio_output@@@2@@__crt_stdio_output@@QAE@ABV?$stream_output_adapter@D@1@_KQBDQAU__crt_locale_pointers@@QAD@Z 100265e5 f i libucrt:output.obj
 0001:00025627       ??0?$output_processor@DV?$string_output_adapter@D@__crt_stdio_output@@V?$format_validation_base@DV?$string_output_adapter@D@__crt_stdio_output@@@2@@__crt_stdio_output@@QAE@ABV?$string_output_adapter@D@1@_KQBDQAU__crt_locale_pointers@@QAD@Z 10026627 f i libucrt:output.obj
 0001:00025669       ??0?$output_processor@DV?$string_output_adapter@D@__crt_stdio_output@@V?$positional_parameter_base@DV?$string_output_adapter@D@__crt_stdio_output@@@2@@__crt_stdio_output@@QAE@ABV?$string_output_adapter@D@1@_KQBDQAU__crt_locale_pointers@@QAD@Z 10026669 f i libucrt:output.obj
 0001:000256a3       ??0?$output_processor@DV?$string_output_adapter@D@__crt_stdio_output@@V?$standard_base@DV?$string_output_adapter@D@__crt_stdio_output@@@2@@__crt_stdio_output@@QAE@ABV?$string_output_adapter@D@1@_KQBDQAU__crt_locale_pointers@@QAD@Z 100266a3 f i libucrt:output.obj
 0001:000256e5       ??0?$output_processor@_WV?$stream_output_adapter@_W@__crt_stdio_output@@V?$format_validation_base@_WV?$stream_output_adapter@_W@__crt_stdio_output@@@2@@__crt_stdio_output@@QAE@ABV?$stream_output_adapter@_W@1@_KQB_WQAU__crt_locale_pointers@@QAD@Z 100266e5 f i libucrt:output.obj
 0001:00025727       ??0?$output_processor@_WV?$stream_output_adapter@_W@__crt_stdio_output@@V?$positional_parameter_base@_WV?$stream_output_adapter@_W@__crt_stdio_output@@@2@@__crt_stdio_output@@QAE@ABV?$stream_output_adapter@_W@1@_KQB_WQAU__crt_locale_pointers@@QAD@Z 10026727 f i libucrt:output.obj
 0001:00025761       ??0?$output_processor@_WV?$stream_output_adapter@_W@__crt_stdio_output@@V?$standard_base@_WV?$stream_output_adapter@_W@__crt_stdio_output@@@2@@__crt_stdio_output@@QAE@ABV?$stream_output_adapter@_W@1@_KQB_WQAU__crt_locale_pointers@@QAD@Z 10026761 f i libucrt:output.obj
 0001:000257a3       ??0?$output_processor@_WV?$string_output_adapter@_W@__crt_stdio_output@@V?$format_validation_base@_WV?$string_output_adapter@_W@__crt_stdio_output@@@2@@__crt_stdio_output@@QAE@ABV?$string_output_adapter@_W@1@_KQB_WQAU__crt_locale_pointers@@QAD@Z 100267a3 f i libucrt:output.obj
 0001:000257e5       ??0?$output_processor@_WV?$string_output_adapter@_W@__crt_stdio_output@@V?$positional_parameter_base@_WV?$string_output_adapter@_W@__crt_stdio_output@@@2@@__crt_stdio_output@@QAE@ABV?$string_output_adapter@_W@1@_KQB_WQAU__crt_locale_pointers@@QAD@Z 100267e5 f i libucrt:output.obj
 0001:0002581f       ??0?$output_processor@_WV?$string_output_adapter@_W@__crt_stdio_output@@V?$standard_base@_WV?$string_output_adapter@_W@__crt_stdio_output@@@2@@__crt_stdio_output@@QAE@ABV?$string_output_adapter@_W@1@_KQB_WQAU__crt_locale_pointers@@QAD@Z 1002681f f i libucrt:output.obj
 0001:00025861       ??0?$stream_output_adapter@D@__crt_stdio_output@@QAE@QAU_iobuf@@@Z 10026861 f i libucrt:output.obj
 0001:00025875       ??0?$stream_output_adapter@_W@__crt_stdio_output@@QAE@QAU_iobuf@@@Z 10026875 f i libucrt:output.obj
 0001:00025889       ??0?$string_output_adapter@D@__crt_stdio_output@@QAE@QAU?$string_output_adapter_context@D@1@@Z 10026889 f i libucrt:output.obj
 0001:0002589d       ??0?$string_output_adapter@_W@__crt_stdio_output@@QAE@QAU?$string_output_adapter_context@_W@1@@Z 1002689d f i libucrt:output.obj
 0001:000258b1       ??0_LocaleUpdate@@QAE@QAU__crt_locale_pointers@@@Z 100268b1 f i libucrt:output.obj
 0001:00025954       ??0__crt_errno_guard@@QAE@QAH@Z 10026954 f i libucrt:output.obj
 0001:00025972       ??0formatting_buffer@__crt_stdio_output@@QAE@XZ 10026972 f i libucrt:output.obj
 0001:00025987       ??1?$common_data@D@__crt_stdio_output@@QAE@XZ 10026987 f i libucrt:output.obj
 0001:00025991       ??1?$common_data@_W@__crt_stdio_output@@QAE@XZ 10026991 f i libucrt:output.obj
 0001:0002599b       ??1?$format_validation_base@DV?$stream_output_adapter@D@__crt_stdio_output@@@__crt_stdio_output@@QAE@XZ 1002699b f i libucrt:output.obj
 0001:000259a5       ??1?$format_validation_base@DV?$string_output_adapter@D@__crt_stdio_output@@@__crt_stdio_output@@QAE@XZ 100269a5 f i libucrt:output.obj
 0001:000259af       ??1?$format_validation_base@_WV?$stream_output_adapter@_W@__crt_stdio_output@@@__crt_stdio_output@@QAE@XZ 100269af f i libucrt:output.obj
 0001:000259b9       ??1?$format_validation_base@_WV?$string_output_adapter@_W@__crt_stdio_output@@@__crt_stdio_output@@QAE@XZ 100269b9 f i libucrt:output.obj
 0001:000259c3       ??1?$output_adapter_data@DV?$stream_output_adapter@D@__crt_stdio_output@@@__crt_stdio_output@@QAE@XZ 100269c3 f i libucrt:output.obj
 0001:000259cd       ??1?$output_adapter_data@DV?$string_output_adapter@D@__crt_stdio_output@@@__crt_stdio_output@@QAE@XZ 100269cd f i libucrt:output.obj
 0001:000259d7       ??1?$output_adapter_data@_WV?$stream_output_adapter@_W@__crt_stdio_output@@@__crt_stdio_output@@QAE@XZ 100269d7 f i libucrt:output.obj
 0001:000259e1       ??1?$output_adapter_data@_WV?$string_output_adapter@_W@__crt_stdio_output@@@__crt_stdio_output@@QAE@XZ 100269e1 f i libucrt:output.obj
 0001:000259eb       ??1?$output_processor@DV?$stream_output_adapter@D@__crt_stdio_output@@V?$format_validation_base@DV?$stream_output_adapter@D@__crt_stdio_output@@@2@@__crt_stdio_output@@QAE@XZ 100269eb f i libucrt:output.obj
 0001:000259f5       ??1?$output_processor@DV?$stream_output_adapter@D@__crt_stdio_output@@V?$positional_parameter_base@DV?$stream_output_adapter@D@__crt_stdio_output@@@2@@__crt_stdio_output@@QAE@XZ 100269f5 f i libucrt:output.obj
 0001:000259ff       ??1?$output_processor@DV?$stream_output_adapter@D@__crt_stdio_output@@V?$standard_base@DV?$stream_output_adapter@D@__crt_stdio_output@@@2@@__crt_stdio_output@@QAE@XZ 100269ff f i libucrt:output.obj
 0001:00025a09       ??1?$output_processor@DV?$string_output_adapter@D@__crt_stdio_output@@V?$format_validation_base@DV?$string_output_adapter@D@__crt_stdio_output@@@2@@__crt_stdio_output@@QAE@XZ 10026a09 f i libucrt:output.obj
 0001:00025a13       ??1?$output_processor@DV?$string_output_adapter@D@__crt_stdio_output@@V?$positional_parameter_base@DV?$string_output_adapter@D@__crt_stdio_output@@@2@@__crt_stdio_output@@QAE@XZ 10026a13 f i libucrt:output.obj
 0001:00025a1d       ??1?$output_processor@DV?$string_output_adapter@D@__crt_stdio_output@@V?$standard_base@DV?$string_output_adapter@D@__crt_stdio_output@@@2@@__crt_stdio_output@@QAE@XZ 10026a1d f i libucrt:output.obj
 0001:00025a27       ??1?$output_processor@_WV?$stream_output_adapter@_W@__crt_stdio_output@@V?$format_validation_base@_WV?$stream_output_adapter@_W@__crt_stdio_output@@@2@@__crt_stdio_output@@QAE@XZ 10026a27 f i libucrt:output.obj
 0001:00025a31       ??1?$output_processor@_WV?$stream_output_adapter@_W@__crt_stdio_output@@V?$positional_parameter_base@_WV?$stream_output_adapter@_W@__crt_stdio_output@@@2@@__crt_stdio_output@@QAE@XZ 10026a31 f i libucrt:output.obj
 0001:00025a3b       ??1?$output_processor@_WV?$stream_output_adapter@_W@__crt_stdio_output@@V?$standard_base@_WV?$stream_output_adapter@_W@__crt_stdio_output@@@2@@__crt_stdio_output@@QAE@XZ 10026a3b f i libucrt:output.obj
 0001:00025a45       ??1?$output_processor@_WV?$string_output_adapter@_W@__crt_stdio_output@@V?$format_validation_base@_WV?$string_output_adapter@_W@__crt_stdio_output@@@2@@__crt_stdio_output@@QAE@XZ 10026a45 f i libucrt:output.obj
 0001:00025a4f       ??1?$output_processor@_WV?$string_output_adapter@_W@__crt_stdio_output@@V?$positional_parameter_base@_WV?$string_output_adapter@_W@__crt_stdio_output@@@2@@__crt_stdio_output@@QAE@XZ 10026a4f f i libucrt:output.obj
 0001:00025a59       ??1?$output_processor@_WV?$string_output_adapter@_W@__crt_stdio_output@@V?$standard_base@_WV?$string_output_adapter@_W@__crt_stdio_output@@@2@@__crt_stdio_output@@QAE@XZ 10026a59 f i libucrt:output.obj
 0001:00025a63       ??1?$positional_parameter_base@DV?$stream_output_adapter@D@__crt_stdio_output@@@__crt_stdio_output@@QAE@XZ 10026a63 f i libucrt:output.obj
 0001:00025a6d       ??1?$positional_parameter_base@DV?$string_output_adapter@D@__crt_stdio_output@@@__crt_stdio_output@@QAE@XZ 10026a6d f i libucrt:output.obj
 0001:00025a77       ??1?$positional_parameter_base@_WV?$stream_output_adapter@_W@__crt_stdio_output@@@__crt_stdio_output@@QAE@XZ 10026a77 f i libucrt:output.obj
 0001:00025a81       ??1?$positional_parameter_base@_WV?$string_output_adapter@_W@__crt_stdio_output@@@__crt_stdio_output@@QAE@XZ 10026a81 f i libucrt:output.obj
 0001:00025a8b       ??1?$standard_base@DV?$stream_output_adapter@D@__crt_stdio_output@@@__crt_stdio_output@@QAE@XZ 10026a8b f i libucrt:output.obj
 0001:00025a95       ??1?$standard_base@DV?$string_output_adapter@D@__crt_stdio_output@@@__crt_stdio_output@@QAE@XZ 10026a95 f i libucrt:output.obj
 0001:00025a9f       ??1?$standard_base@_WV?$stream_output_adapter@_W@__crt_stdio_output@@@__crt_stdio_output@@QAE@XZ 10026a9f f i libucrt:output.obj
 0001:00025aa9       ??1?$standard_base@_WV?$string_output_adapter@_W@__crt_stdio_output@@@__crt_stdio_output@@QAE@XZ 10026aa9 f i libucrt:output.obj
 0001:00025ab3       ??1_LocaleUpdate@@QAE@XZ   10026ab3 f i libucrt:output.obj
 0001:00025ac7       ??1__crt_errno_guard@@QAE@XZ 10026ac7 f i libucrt:output.obj
 0001:00025adc       ??1formatting_buffer@__crt_stdio_output@@QAE@XZ 10026adc f i libucrt:output.obj
 0001:00025afc       ??4?$__crt_unique_heap_ptr@DU__crt_internal_free_policy@@@@QAEAAV0@$$QAV0@@Z 10026afc f i libucrt:output.obj
 0001:000261df       ?GetLocaleT@_LocaleUpdate@@QAEPAU__crt_locale_pointers@@XZ 100271df f i libucrt:output.obj
 0001:000261e3       ?adjust_hexit@?$output_processor@DV?$stream_output_adapter@D@__crt_stdio_output@@V?$format_validation_base@DV?$stream_output_adapter@D@__crt_stdio_output@@@2@@__crt_stdio_output@@CADH_N@Z 100271e3 f i libucrt:output.obj
 0001:00026208       ?adjust_hexit@?$output_processor@DV?$stream_output_adapter@D@__crt_stdio_output@@V?$positional_parameter_base@DV?$stream_output_adapter@D@__crt_stdio_output@@@2@@__crt_stdio_output@@CADH_N@Z 10027208 f i libucrt:output.obj
 0001:0002622d       ?adjust_hexit@?$output_processor@DV?$stream_output_adapter@D@__crt_stdio_output@@V?$standard_base@DV?$stream_output_adapter@D@__crt_stdio_output@@@2@@__crt_stdio_output@@CADH_N@Z 1002722d f i libucrt:output.obj
 0001:00026252       ?adjust_hexit@?$output_processor@DV?$string_output_adapter@D@__crt_stdio_output@@V?$format_validation_base@DV?$string_output_adapter@D@__crt_stdio_output@@@2@@__crt_stdio_output@@CADH_N@Z 10027252 f i libucrt:output.obj
 0001:00026277       ?adjust_hexit@?$output_processor@DV?$string_output_adapter@D@__crt_stdio_output@@V?$positional_parameter_base@DV?$string_output_adapter@D@__crt_stdio_output@@@2@@__crt_stdio_output@@CADH_N@Z 10027277 f i libucrt:output.obj
 0001:0002629c       ?adjust_hexit@?$output_processor@DV?$string_output_adapter@D@__crt_stdio_output@@V?$standard_base@DV?$string_output_adapter@D@__crt_stdio_output@@@2@@__crt_stdio_output@@CADH_N@Z 1002729c f i libucrt:output.obj
 0001:000262c1       ?adjust_hexit@?$output_processor@_WV?$stream_output_adapter@_W@__crt_stdio_output@@V?$format_validation_base@_WV?$stream_output_adapter@_W@__crt_stdio_output@@@2@@__crt_stdio_output@@CADH_N@Z 100272c1 f i libucrt:output.obj
 0001:000262e6       ?adjust_hexit@?$output_processor@_WV?$stream_output_adapter@_W@__crt_stdio_output@@V?$positional_parameter_base@_WV?$stream_output_adapter@_W@__crt_stdio_output@@@2@@__crt_stdio_output@@CADH_N@Z 100272e6 f i libucrt:output.obj
 0001:0002630b       ?adjust_hexit@?$output_processor@_WV?$stream_output_adapter@_W@__crt_stdio_output@@V?$standard_base@_WV?$stream_output_adapter@_W@__crt_stdio_output@@@2@@__crt_stdio_output@@CADH_N@Z 1002730b f i libucrt:output.obj
 0001:00026330       ?adjust_hexit@?$output_processor@_WV?$string_output_adapter@_W@__crt_stdio_output@@V?$format_validation_base@_WV?$string_output_adapter@_W@__crt_stdio_output@@@2@@__crt_stdio_output@@CADH_N@Z 10027330 f i libucrt:output.obj
 0001:00026355       ?adjust_hexit@?$output_processor@_WV?$string_output_adapter@_W@__crt_stdio_output@@V?$positional_parameter_base@_WV?$string_output_adapter@_W@__crt_stdio_output@@@2@@__crt_stdio_output@@CADH_N@Z 10027355 f i libucrt:output.obj
 0001:0002637a       ?adjust_hexit@?$output_processor@_WV?$string_output_adapter@_W@__crt_stdio_output@@V?$standard_base@_WV?$string_output_adapter@_W@__crt_stdio_output@@@2@@__crt_stdio_output@@CADH_N@Z 1002737a f i libucrt:output.obj
 0001:0002639f       ?advance_to_next_pass@?$positional_parameter_base@DV?$stream_output_adapter@D@__crt_stdio_output@@@__crt_stdio_output@@IAE_NXZ 1002739f f i libucrt:output.obj
 0001:000263fe       ?advance_to_next_pass@?$positional_parameter_base@DV?$string_output_adapter@D@__crt_stdio_output@@@__crt_stdio_output@@IAE_NXZ 100273fe f i libucrt:output.obj
 0001:0002645d       ?advance_to_next_pass@?$positional_parameter_base@_WV?$stream_output_adapter@_W@__crt_stdio_output@@@__crt_stdio_output@@IAE_NXZ 1002745d f i libucrt:output.obj
 0001:000264bc       ?advance_to_next_pass@?$positional_parameter_base@_WV?$string_output_adapter@_W@__crt_stdio_output@@@__crt_stdio_output@@IAE_NXZ 100274bc f i libucrt:output.obj
 0001:0002651b       ?advance_to_next_pass@?$standard_base@DV?$stream_output_adapter@D@__crt_stdio_output@@@__crt_stdio_output@@IAE_NXZ 1002751b f i libucrt:output.obj
 0001:00026532       ?advance_to_next_pass@?$standard_base@DV?$string_output_adapter@D@__crt_stdio_output@@@__crt_stdio_output@@IAE_NXZ 10027532 f i libucrt:output.obj
 0001:00026549       ?advance_to_next_pass@?$standard_base@_WV?$stream_output_adapter@_W@__crt_stdio_output@@@__crt_stdio_output@@IAE_NXZ 10027549 f i libucrt:output.obj
 0001:00026560       ?advance_to_next_pass@?$standard_base@_WV?$string_output_adapter@_W@__crt_stdio_output@@@__crt_stdio_output@@IAE_NXZ 10027560 f i libucrt:output.obj
 0001:00026577       ?crop_zeroes@__crt_stdio_output@@YAXPADQAU__crt_locale_pointers@@@Z 10027577 f i libucrt:output.obj
 0001:000265e3       ?find_next_state@?$output_processor@DV?$stream_output_adapter@D@__crt_stdio_output@@V?$format_validation_base@DV?$stream_output_adapter@D@__crt_stdio_output@@@2@@__crt_stdio_output@@ABE?AW4state@2@DW432@@Z 100275e3 f i libucrt:output.obj
 0001:00026625       ?find_next_state@?$output_processor@DV?$stream_output_adapter@D@__crt_stdio_output@@V?$positional_parameter_base@DV?$stream_output_adapter@D@__crt_stdio_output@@@2@@__crt_stdio_output@@ABE?AW4state@2@DW432@@Z 10027625 f i libucrt:output.obj
 0001:00026667       ?find_next_state@?$output_processor@DV?$stream_output_adapter@D@__crt_stdio_output@@V?$standard_base@DV?$stream_output_adapter@D@__crt_stdio_output@@@2@@__crt_stdio_output@@ABE?AW4state@2@DW432@@Z 10027667 f i libucrt:output.obj
 0001:000266a5       ?find_next_state@?$output_processor@DV?$string_output_adapter@D@__crt_stdio_output@@V?$format_validation_base@DV?$string_output_adapter@D@__crt_stdio_output@@@2@@__crt_stdio_output@@ABE?AW4state@2@DW432@@Z 100276a5 f i libucrt:output.obj
 0001:000266e7       ?find_next_state@?$output_processor@DV?$string_output_adapter@D@__crt_stdio_output@@V?$positional_parameter_base@DV?$string_output_adapter@D@__crt_stdio_output@@@2@@__crt_stdio_output@@ABE?AW4state@2@DW432@@Z 100276e7 f i libucrt:output.obj
 0001:00026729       ?find_next_state@?$output_processor@DV?$string_output_adapter@D@__crt_stdio_output@@V?$standard_base@DV?$string_output_adapter@D@__crt_stdio_output@@@2@@__crt_stdio_output@@ABE?AW4state@2@DW432@@Z 10027729 f i libucrt:output.obj
 0001:00026767       ?find_next_state@?$output_processor@_WV?$stream_output_adapter@_W@__crt_stdio_output@@V?$format_validation_base@_WV?$stream_output_adapter@_W@__crt_stdio_output@@@2@@__crt_stdio_output@@ABE?AW4state@2@_WW432@@Z 10027767 f i libucrt:output.obj
 0001:000267ab       ?find_next_state@?$output_processor@_WV?$stream_output_adapter@_W@__crt_stdio_output@@V?$positional_parameter_base@_WV?$stream_output_adapter@_W@__crt_stdio_output@@@2@@__crt_stdio_output@@ABE?AW4state@2@_WW432@@Z 100277ab f i libucrt:output.obj
 0001:000267ef       ?find_next_state@?$output_processor@_WV?$stream_output_adapter@_W@__crt_stdio_output@@V?$standard_base@_WV?$stream_output_adapter@_W@__crt_stdio_output@@@2@@__crt_stdio_output@@ABE?AW4state@2@_WW432@@Z 100277ef f i libucrt:output.obj
 0001:00026830       ?find_next_state@?$output_processor@_WV?$string_output_adapter@_W@__crt_stdio_output@@V?$format_validation_base@_WV?$string_output_adapter@_W@__crt_stdio_output@@@2@@__crt_stdio_output@@ABE?AW4state@2@_WW432@@Z 10027830 f i libucrt:output.obj
 0001:00026874       ?find_next_state@?$output_processor@_WV?$string_output_adapter@_W@__crt_stdio_output@@V?$positional_parameter_base@_WV?$string_output_adapter@_W@__crt_stdio_output@@@2@@__crt_stdio_output@@ABE?AW4state@2@_WW432@@Z 10027874 f i libucrt:output.obj
 0001:000268b8       ?find_next_state@?$output_processor@_WV?$string_output_adapter@_W@__crt_stdio_output@@V?$standard_base@_WV?$string_output_adapter@_W@__crt_stdio_output@@@2@@__crt_stdio_output@@ABE?AW4state@2@_WW432@@Z 100278b8 f i libucrt:output.obj
 0001:000268f9       ?force_decimal_point@__crt_stdio_output@@YAXPADQAU__crt_locale_pointers@@@Z 100278f9 f i libucrt:output.obj
 0001:0002696c       ?get_parameter_type@?$positional_parameter_base@DV?$stream_output_adapter@D@__crt_stdio_output@@@__crt_stdio_output@@CA?AW4parameter_type@12@F@Z 1002796c f i libucrt:output.obj
 0001:00026970       ?get_parameter_type@?$positional_parameter_base@DV?$stream_output_adapter@D@__crt_stdio_output@@@__crt_stdio_output@@CA?AW4parameter_type@12@G@Z 10027970 f i libucrt:output.obj
 0001:00026974       ?get_parameter_type@?$positional_parameter_base@DV?$stream_output_adapter@D@__crt_stdio_output@@@__crt_stdio_output@@CA?AW4parameter_type@12@H@Z 10027974 f i libucrt:output.obj
 0001:00026978       ?get_parameter_type@?$positional_parameter_base@DV?$stream_output_adapter@D@__crt_stdio_output@@@__crt_stdio_output@@CA?AW4parameter_type@12@I@Z 10027978 f i libucrt:output.obj
 0001:0002697c       ?get_parameter_type@?$positional_parameter_base@DV?$stream_output_adapter@D@__crt_stdio_output@@@__crt_stdio_output@@CA?AW4parameter_type@12@U_CRT_DOUBLE@@@Z 1002797c f i libucrt:output.obj
 0001:00026980       ?get_parameter_type@?$positional_parameter_base@DV?$stream_output_adapter@D@__crt_stdio_output@@@__crt_stdio_output@@CA?AW4parameter_type@12@_J@Z 10027980 f i libucrt:output.obj
 0001:00026984       ?get_parameter_type@?$positional_parameter_base@DV?$stream_output_adapter@D@__crt_stdio_output@@@__crt_stdio_output@@CA?AW4parameter_type@12@_K@Z 10027984 f i libucrt:output.obj
 0001:00026988       ?get_parameter_type@?$positional_parameter_base@DV?$stream_output_adapter@D@__crt_stdio_output@@@__crt_stdio_output@@CA?AW4parameter_type@12@_W@Z 10027988 f i libucrt:output.obj
 0001:0002698c       ?get_parameter_type@?$positional_parameter_base@DV?$string_output_adapter@D@__crt_stdio_output@@@__crt_stdio_output@@CA?AW4parameter_type@12@F@Z 1002798c f i libucrt:output.obj
 0001:00026990       ?get_parameter_type@?$positional_parameter_base@DV?$string_output_adapter@D@__crt_stdio_output@@@__crt_stdio_output@@CA?AW4parameter_type@12@G@Z 10027990 f i libucrt:output.obj
 0001:00026994       ?get_parameter_type@?$positional_parameter_base@DV?$string_output_adapter@D@__crt_stdio_output@@@__crt_stdio_output@@CA?AW4parameter_type@12@H@Z 10027994 f i libucrt:output.obj
 0001:00026998       ?get_parameter_type@?$positional_parameter_base@DV?$string_output_adapter@D@__crt_stdio_output@@@__crt_stdio_output@@CA?AW4parameter_type@12@I@Z 10027998 f i libucrt:output.obj
 0001:0002699c       ?get_parameter_type@?$positional_parameter_base@DV?$string_output_adapter@D@__crt_stdio_output@@@__crt_stdio_output@@CA?AW4parameter_type@12@U_CRT_DOUBLE@@@Z 1002799c f i libucrt:output.obj
 0001:000269a0       ?get_parameter_type@?$positional_parameter_base@DV?$string_output_adapter@D@__crt_stdio_output@@@__crt_stdio_output@@CA?AW4parameter_type@12@_J@Z 100279a0 f i libucrt:output.obj
 0001:000269a4       ?get_parameter_type@?$positional_parameter_base@DV?$string_output_adapter@D@__crt_stdio_output@@@__crt_stdio_output@@CA?AW4parameter_type@12@_K@Z 100279a4 f i libucrt:output.obj
 0001:000269a8       ?get_parameter_type@?$positional_parameter_base@DV?$string_output_adapter@D@__crt_stdio_output@@@__crt_stdio_output@@CA?AW4parameter_type@12@_W@Z 100279a8 f i libucrt:output.obj
 0001:000269ac       ?get_parameter_type@?$positional_parameter_base@_WV?$stream_output_adapter@_W@__crt_stdio_output@@@__crt_stdio_output@@CA?AW4parameter_type@12@F@Z 100279ac f i libucrt:output.obj
 0001:000269b0       ?get_parameter_type@?$positional_parameter_base@_WV?$stream_output_adapter@_W@__crt_stdio_output@@@__crt_stdio_output@@CA?AW4parameter_type@12@G@Z 100279b0 f i libucrt:output.obj
 0001:000269b4       ?get_parameter_type@?$positional_parameter_base@_WV?$stream_output_adapter@_W@__crt_stdio_output@@@__crt_stdio_output@@CA?AW4parameter_type@12@H@Z 100279b4 f i libucrt:output.obj
 0001:000269b8       ?get_parameter_type@?$positional_parameter_base@_WV?$stream_output_adapter@_W@__crt_stdio_output@@@__crt_stdio_output@@CA?AW4parameter_type@12@I@Z 100279b8 f i libucrt:output.obj
 0001:000269bc       ?get_parameter_type@?$positional_parameter_base@_WV?$stream_output_adapter@_W@__crt_stdio_output@@@__crt_stdio_output@@CA?AW4parameter_type@12@U_CRT_DOUBLE@@@Z 100279bc f i libucrt:output.obj
 0001:000269c0       ?get_parameter_type@?$positional_parameter_base@_WV?$stream_output_adapter@_W@__crt_stdio_output@@@__crt_stdio_output@@CA?AW4parameter_type@12@_J@Z 100279c0 f i libucrt:output.obj
 0001:000269c4       ?get_parameter_type@?$positional_parameter_base@_WV?$stream_output_adapter@_W@__crt_stdio_output@@@__crt_stdio_output@@CA?AW4parameter_type@12@_K@Z 100279c4 f i libucrt:output.obj
 0001:000269c8       ?get_parameter_type@?$positional_parameter_base@_WV?$stream_output_adapter@_W@__crt_stdio_output@@@__crt_stdio_output@@CA?AW4parameter_type@12@_W@Z 100279c8 f i libucrt:output.obj
 0001:000269cc       ?get_parameter_type@?$positional_parameter_base@_WV?$string_output_adapter@_W@__crt_stdio_output@@@__crt_stdio_output@@CA?AW4parameter_type@12@F@Z 100279cc f i libucrt:output.obj
 0001:000269d0       ?get_parameter_type@?$positional_parameter_base@_WV?$string_output_adapter@_W@__crt_stdio_output@@@__crt_stdio_output@@CA?AW4parameter_type@12@G@Z 100279d0 f i libucrt:output.obj
 0001:000269d4       ?get_parameter_type@?$positional_parameter_base@_WV?$string_output_adapter@_W@__crt_stdio_output@@@__crt_stdio_output@@CA?AW4parameter_type@12@H@Z 100279d4 f i libucrt:output.obj
 0001:000269d8       ?get_parameter_type@?$positional_parameter_base@_WV?$string_output_adapter@_W@__crt_stdio_output@@@__crt_stdio_output@@CA?AW4parameter_type@12@I@Z 100279d8 f i libucrt:output.obj
 0001:000269dc       ?get_parameter_type@?$positional_parameter_base@_WV?$string_output_adapter@_W@__crt_stdio_output@@@__crt_stdio_output@@CA?AW4parameter_type@12@U_CRT_DOUBLE@@@Z 100279dc f i libucrt:output.obj
 0001:000269e0       ?get_parameter_type@?$positional_parameter_base@_WV?$string_output_adapter@_W@__crt_stdio_output@@@__crt_stdio_output@@CA?AW4parameter_type@12@_J@Z 100279e0 f i libucrt:output.obj
 0001:000269e4       ?get_parameter_type@?$positional_parameter_base@_WV?$string_output_adapter@_W@__crt_stdio_output@@@__crt_stdio_output@@CA?AW4parameter_type@12@_K@Z 100279e4 f i libucrt:output.obj
 0001:000269e8       ?get_parameter_type@?$positional_parameter_base@_WV?$string_output_adapter@_W@__crt_stdio_output@@@__crt_stdio_output@@CA?AW4parameter_type@12@_W@Z 100279e8 f i libucrt:output.obj
 0001:000269ec       ?has_flag@?$output_processor@DV?$stream_output_adapter@D@__crt_stdio_output@@V?$format_validation_base@DV?$stream_output_adapter@D@__crt_stdio_output@@@2@@__crt_stdio_output@@ABE_NI@Z 100279ec f i libucrt:output.obj
 0001:00026a06       ?has_flag@?$output_processor@DV?$stream_output_adapter@D@__crt_stdio_output@@V?$positional_parameter_base@DV?$stream_output_adapter@D@__crt_stdio_output@@@2@@__crt_stdio_output@@ABE_NI@Z 10027a06 f i libucrt:output.obj
 0001:00026a20       ?has_flag@?$output_processor@DV?$stream_output_adapter@D@__crt_stdio_output@@V?$standard_base@DV?$stream_output_adapter@D@__crt_stdio_output@@@2@@__crt_stdio_output@@ABE_NI@Z 10027a20 f i libucrt:output.obj
 0001:00026a3a       ?has_flag@?$output_processor@DV?$string_output_adapter@D@__crt_stdio_output@@V?$format_validation_base@DV?$string_output_adapter@D@__crt_stdio_output@@@2@@__crt_stdio_output@@ABE_NI@Z 10027a3a f i libucrt:output.obj
 0001:00026a54       ?has_flag@?$output_processor@DV?$string_output_adapter@D@__crt_stdio_output@@V?$positional_parameter_base@DV?$string_output_adapter@D@__crt_stdio_output@@@2@@__crt_stdio_output@@ABE_NI@Z 10027a54 f i libucrt:output.obj
 0001:00026a6e       ?has_flag@?$output_processor@DV?$string_output_adapter@D@__crt_stdio_output@@V?$standard_base@DV?$string_output_adapter@D@__crt_stdio_output@@@2@@__crt_stdio_output@@ABE_NI@Z 10027a6e f i libucrt:output.obj
 0001:00026a88       ?has_flag@?$output_processor@_WV?$stream_output_adapter@_W@__crt_stdio_output@@V?$format_validation_base@_WV?$stream_output_adapter@_W@__crt_stdio_output@@@2@@__crt_stdio_output@@ABE_NI@Z 10027a88 f i libucrt:output.obj
 0001:00026aa2       ?has_flag@?$output_processor@_WV?$stream_output_adapter@_W@__crt_stdio_output@@V?$positional_parameter_base@_WV?$stream_output_adapter@_W@__crt_stdio_output@@@2@@__crt_stdio_output@@ABE_NI@Z 10027aa2 f i libucrt:output.obj
 0001:00026abc       ?has_flag@?$output_processor@_WV?$stream_output_adapter@_W@__crt_stdio_output@@V?$standard_base@_WV?$stream_output_adapter@_W@__crt_stdio_output@@@2@@__crt_stdio_output@@ABE_NI@Z 10027abc f i libucrt:output.obj
 0001:00026ad6       ?has_flag@?$output_processor@_WV?$string_output_adapter@_W@__crt_stdio_output@@V?$format_validation_base@_WV?$string_output_adapter@_W@__crt_stdio_output@@@2@@__crt_stdio_output@@ABE_NI@Z 10027ad6 f i libucrt:output.obj
 0001:00026af0       ?has_flag@?$output_processor@_WV?$string_output_adapter@_W@__crt_stdio_output@@V?$positional_parameter_base@_WV?$string_output_adapter@_W@__crt_stdio_output@@@2@@__crt_stdio_output@@ABE_NI@Z 10027af0 f i libucrt:output.obj
 0001:00026b0a       ?has_flag@?$output_processor@_WV?$string_output_adapter@_W@__crt_stdio_output@@V?$standard_base@_WV?$string_output_adapter@_W@__crt_stdio_output@@@2@@__crt_stdio_output@@ABE_NI@Z 10027b0a f i libucrt:output.obj
 0001:00026b24       ?is_positional_parameter_reappearance_consistent@?$positional_parameter_base@DV?$stream_output_adapter@D@__crt_stdio_output@@@__crt_stdio_output@@AAE_NABUparameter_data@12@W4parameter_type@12@DW4length_modifier@2@@Z 10027b24 f i libucrt:output.obj
 0001:00026c9d       ?is_positional_parameter_reappearance_consistent@?$positional_parameter_base@DV?$string_output_adapter@D@__crt_stdio_output@@@__crt_stdio_output@@AAE_NABUparameter_data@12@W4parameter_type@12@DW4length_modifier@2@@Z 10027c9d f i libucrt:output.obj
 0001:00026e16       ?is_positional_parameter_reappearance_consistent@?$positional_parameter_base@_WV?$stream_output_adapter@_W@__crt_stdio_output@@@__crt_stdio_output@@AAE_NABUparameter_data@12@W4parameter_type@12@_WW4length_modifier@2@@Z 10027e16 f i libucrt:output.obj
 0001:00026f81       ?is_positional_parameter_reappearance_consistent@?$positional_parameter_base@_WV?$string_output_adapter@_W@__crt_stdio_output@@@__crt_stdio_output@@AAE_NABUparameter_data@12@W4parameter_type@12@_WW4length_modifier@2@@Z 10027f81 f i libucrt:output.obj
 0001:000270ec       ?narrow_null_string@?$output_processor@DV?$stream_output_adapter@D@__crt_stdio_output@@V?$format_validation_base@DV?$stream_output_adapter@D@__crt_stdio_output@@@2@@__crt_stdio_output@@CAPADXZ 100280ec f i libucrt:output.obj
 0001:000270f2       ?narrow_null_string@?$output_processor@DV?$stream_output_adapter@D@__crt_stdio_output@@V?$positional_parameter_base@DV?$stream_output_adapter@D@__crt_stdio_output@@@2@@__crt_stdio_output@@CAPADXZ 100280f2 f i libucrt:output.obj
 0001:000270f8       ?narrow_null_string@?$output_processor@DV?$stream_output_adapter@D@__crt_stdio_output@@V?$standard_base@DV?$stream_output_adapter@D@__crt_stdio_output@@@2@@__crt_stdio_output@@CAPADXZ 100280f8 f i libucrt:output.obj
 0001:000270fe       ?narrow_null_string@?$output_processor@DV?$string_output_adapter@D@__crt_stdio_output@@V?$format_validation_base@DV?$string_output_adapter@D@__crt_stdio_output@@@2@@__crt_stdio_output@@CAPADXZ 100280fe f i libucrt:output.obj
 0001:00027104       ?narrow_null_string@?$output_processor@DV?$string_output_adapter@D@__crt_stdio_output@@V?$positional_parameter_base@DV?$string_output_adapter@D@__crt_stdio_output@@@2@@__crt_stdio_output@@CAPADXZ 10028104 f i libucrt:output.obj
 0001:0002710a       ?narrow_null_string@?$output_processor@DV?$string_output_adapter@D@__crt_stdio_output@@V?$standard_base@DV?$string_output_adapter@D@__crt_stdio_output@@@2@@__crt_stdio_output@@CAPADXZ 1002810a f i libucrt:output.obj
 0001:00027110       ?narrow_null_string@?$output_processor@_WV?$stream_output_adapter@_W@__crt_stdio_output@@V?$format_validation_base@_WV?$stream_output_adapter@_W@__crt_stdio_output@@@2@@__crt_stdio_output@@CAPADXZ 10028110 f i libucrt:output.obj
 0001:00027116       ?narrow_null_string@?$output_processor@_WV?$stream_output_adapter@_W@__crt_stdio_output@@V?$positional_parameter_base@_WV?$stream_output_adapter@_W@__crt_stdio_output@@@2@@__crt_stdio_output@@CAPADXZ 10028116 f i libucrt:output.obj
 0001:0002711c       ?narrow_null_string@?$output_processor@_WV?$stream_output_adapter@_W@__crt_stdio_output@@V?$standard_base@_WV?$stream_output_adapter@_W@__crt_stdio_output@@@2@@__crt_stdio_output@@CAPADXZ 1002811c f i libucrt:output.obj
 0001:00027122       ?narrow_null_string@?$output_processor@_WV?$string_output_adapter@_W@__crt_stdio_output@@V?$format_validation_base@_WV?$string_output_adapter@_W@__crt_stdio_output@@@2@@__crt_stdio_output@@CAPADXZ 10028122 f i libucrt:output.obj
 0001:00027128       ?narrow_null_string@?$output_processor@_WV?$string_output_adapter@_W@__crt_stdio_output@@V?$positional_parameter_base@_WV?$string_output_adapter@_W@__crt_stdio_output@@@2@@__crt_stdio_output@@CAPADXZ 10028128 f i libucrt:output.obj
 0001:0002712e       ?narrow_null_string@?$output_processor@_WV?$string_output_adapter@_W@__crt_stdio_output@@V?$standard_base@_WV?$string_output_adapter@_W@__crt_stdio_output@@@2@@__crt_stdio_output@@CAPADXZ 1002812e f i libucrt:output.obj
 0001:00027134       ?parse_int_from_format_string@?$output_processor@DV?$stream_output_adapter@D@__crt_stdio_output@@V?$format_validation_base@DV?$stream_output_adapter@D@__crt_stdio_output@@@2@@__crt_stdio_output@@AAE_NQAH@Z 10028134 f i libucrt:output.obj
 0001:000271a7       ?parse_int_from_format_string@?$output_processor@DV?$stream_output_adapter@D@__crt_stdio_output@@V?$positional_parameter_base@DV?$stream_output_adapter@D@__crt_stdio_output@@@2@@__crt_stdio_output@@AAE_NQAH@Z 100281a7 f i libucrt:output.obj
 0001:0002721a       ?parse_int_from_format_string@?$output_processor@DV?$stream_output_adapter@D@__crt_stdio_output@@V?$standard_base@DV?$stream_output_adapter@D@__crt_stdio_output@@@2@@__crt_stdio_output@@AAE_NQAH@Z 1002821a f i libucrt:output.obj
 0001:0002728d       ?parse_int_from_format_string@?$output_processor@DV?$string_output_adapter@D@__crt_stdio_output@@V?$format_validation_base@DV?$string_output_adapter@D@__crt_stdio_output@@@2@@__crt_stdio_output@@AAE_NQAH@Z 1002828d f i libucrt:output.obj
 0001:00027300       ?parse_int_from_format_string@?$output_processor@DV?$string_output_adapter@D@__crt_stdio_output@@V?$positional_parameter_base@DV?$string_output_adapter@D@__crt_stdio_output@@@2@@__crt_stdio_output@@AAE_NQAH@Z 10028300 f i libucrt:output.obj
 0001:00027373       ?parse_int_from_format_string@?$output_processor@DV?$string_output_adapter@D@__crt_stdio_output@@V?$standard_base@DV?$string_output_adapter@D@__crt_stdio_output@@@2@@__crt_stdio_output@@AAE_NQAH@Z 10028373 f i libucrt:output.obj
 0001:000273e6       ?parse_int_from_format_string@?$output_processor@_WV?$stream_output_adapter@_W@__crt_stdio_output@@V?$format_validation_base@_WV?$stream_output_adapter@_W@__crt_stdio_output@@@2@@__crt_stdio_output@@AAE_NQAH@Z 100283e6 f i libucrt:output.obj
 0001:0002745b       ?parse_int_from_format_string@?$output_processor@_WV?$stream_output_adapter@_W@__crt_stdio_output@@V?$positional_parameter_base@_WV?$stream_output_adapter@_W@__crt_stdio_output@@@2@@__crt_stdio_output@@AAE_NQAH@Z 1002845b f i libucrt:output.obj
 0001:000274d0       ?parse_int_from_format_string@?$output_processor@_WV?$stream_output_adapter@_W@__crt_stdio_output@@V?$standard_base@_WV?$stream_output_adapter@_W@__crt_stdio_output@@@2@@__crt_stdio_output@@AAE_NQAH@Z 100284d0 f i libucrt:output.obj
 0001:00027545       ?parse_int_from_format_string@?$output_processor@_WV?$string_output_adapter@_W@__crt_stdio_output@@V?$format_validation_base@_WV?$string_output_adapter@_W@__crt_stdio_output@@@2@@__crt_stdio_output@@AAE_NQAH@Z 10028545 f i libucrt:output.obj
 0001:000275ba       ?parse_int_from_format_string@?$output_processor@_WV?$string_output_adapter@_W@__crt_stdio_output@@V?$positional_parameter_base@_WV?$string_output_adapter@_W@__crt_stdio_output@@@2@@__crt_stdio_output@@AAE_NQAH@Z 100285ba f i libucrt:output.obj
 0001:0002762f       ?parse_int_from_format_string@?$output_processor@_WV?$string_output_adapter@_W@__crt_stdio_output@@V?$standard_base@_WV?$string_output_adapter@_W@__crt_stdio_output@@@2@@__crt_stdio_output@@AAE_NQAH@Z 1002862f f i libucrt:output.obj
 0001:000276a4       ?process@?$output_processor@DV?$stream_output_adapter@D@__crt_stdio_output@@V?$format_validation_base@DV?$stream_output_adapter@D@__crt_stdio_output@@@2@@__crt_stdio_output@@QAEHXZ 100286a4 f i libucrt:output.obj
 0001:00027816       ?process@?$output_processor@DV?$stream_output_adapter@D@__crt_stdio_output@@V?$positional_parameter_base@DV?$stream_output_adapter@D@__crt_stdio_output@@@2@@__crt_stdio_output@@QAEHXZ 10028816 f i libucrt:output.obj
 0001:000279c9       ?process@?$output_processor@DV?$stream_output_adapter@D@__crt_stdio_output@@V?$standard_base@DV?$stream_output_adapter@D@__crt_stdio_output@@@2@@__crt_stdio_output@@QAEHXZ 100289c9 f i libucrt:output.obj
 0001:00027b2c       ?process@?$output_processor@DV?$string_output_adapter@D@__crt_stdio_output@@V?$format_validation_base@DV?$string_output_adapter@D@__crt_stdio_output@@@2@@__crt_stdio_output@@QAEHXZ 10028b2c f i libucrt:output.obj
 0001:00027c9e       ?process@?$output_processor@DV?$string_output_adapter@D@__crt_stdio_output@@V?$positional_parameter_base@DV?$string_output_adapter@D@__crt_stdio_output@@@2@@__crt_stdio_output@@QAEHXZ 10028c9e f i libucrt:output.obj
 0001:00027e51       ?process@?$output_processor@DV?$string_output_adapter@D@__crt_stdio_output@@V?$standard_base@DV?$string_output_adapter@D@__crt_stdio_output@@@2@@__crt_stdio_output@@QAEHXZ 10028e51 f i libucrt:output.obj
 0001:00027fb4       ?process@?$output_processor@_WV?$stream_output_adapter@_W@__crt_stdio_output@@V?$format_validation_base@_WV?$stream_output_adapter@_W@__crt_stdio_output@@@2@@__crt_stdio_output@@QAEHXZ 10028fb4 f i libucrt:output.obj
 0001:00028130       ?process@?$output_processor@_WV?$stream_output_adapter@_W@__crt_stdio_output@@V?$positional_parameter_base@_WV?$stream_output_adapter@_W@__crt_stdio_output@@@2@@__crt_stdio_output@@QAEHXZ 10029130 f i libucrt:output.obj
 0001:000282e8       ?process@?$output_processor@_WV?$stream_output_adapter@_W@__crt_stdio_output@@V?$standard_base@_WV?$stream_output_adapter@_W@__crt_stdio_output@@@2@@__crt_stdio_output@@QAEHXZ 100292e8 f i libucrt:output.obj
 0001:00028450       ?process@?$output_processor@_WV?$string_output_adapter@_W@__crt_stdio_output@@V?$format_validation_base@_WV?$string_output_adapter@_W@__crt_stdio_output@@@2@@__crt_stdio_output@@QAEHXZ 10029450 f i libucrt:output.obj
 0001:000285cc       ?process@?$output_processor@_WV?$string_output_adapter@_W@__crt_stdio_output@@V?$positional_parameter_base@_WV?$string_output_adapter@_W@__crt_stdio_output@@@2@@__crt_stdio_output@@QAEHXZ 100295cc f i libucrt:output.obj
 0001:00028784       ?process@?$output_processor@_WV?$string_output_adapter@_W@__crt_stdio_output@@V?$standard_base@_WV?$string_output_adapter@_W@__crt_stdio_output@@@2@@__crt_stdio_output@@QAEHXZ 10029784 f i libucrt:output.obj
 0001:000288ec       ?set_flag@?$output_processor@DV?$stream_output_adapter@D@__crt_stdio_output@@V?$format_validation_base@DV?$stream_output_adapter@D@__crt_stdio_output@@@2@@__crt_stdio_output@@AAEXI@Z 100298ec f i libucrt:output.obj
 0001:000288fe       ?set_flag@?$output_processor@DV?$stream_output_adapter@D@__crt_stdio_output@@V?$positional_parameter_base@DV?$stream_output_adapter@D@__crt_stdio_output@@@2@@__crt_stdio_output@@AAEXI@Z 100298fe f i libucrt:output.obj
 0001:00028910       ?set_flag@?$output_processor@DV?$stream_output_adapter@D@__crt_stdio_output@@V?$standard_base@DV?$stream_output_adapter@D@__crt_stdio_output@@@2@@__crt_stdio_output@@AAEXI@Z 10029910 f i libucrt:output.obj
 0001:00028922       ?set_flag@?$output_processor@DV?$string_output_adapter@D@__crt_stdio_output@@V?$format_validation_base@DV?$string_output_adapter@D@__crt_stdio_output@@@2@@__crt_stdio_output@@AAEXI@Z 10029922 f i libucrt:output.obj
 0001:00028934       ?set_flag@?$output_processor@DV?$string_output_adapter@D@__crt_stdio_output@@V?$positional_parameter_base@DV?$string_output_adapter@D@__crt_stdio_output@@@2@@__crt_stdio_output@@AAEXI@Z 10029934 f i libucrt:output.obj
 0001:00028946       ?set_flag@?$output_processor@DV?$string_output_adapter@D@__crt_stdio_output@@V?$standard_base@DV?$string_output_adapter@D@__crt_stdio_output@@@2@@__crt_stdio_output@@AAEXI@Z 10029946 f i libucrt:output.obj
 0001:00028958       ?set_flag@?$output_processor@_WV?$stream_output_adapter@_W@__crt_stdio_output@@V?$format_validation_base@_WV?$stream_output_adapter@_W@__crt_stdio_output@@@2@@__crt_stdio_output@@AAEXI@Z 10029958 f i libucrt:output.obj
 0001:0002896a       ?set_flag@?$output_processor@_WV?$stream_output_adapter@_W@__crt_stdio_output@@V?$positional_parameter_base@_WV?$stream_output_adapter@_W@__crt_stdio_output@@@2@@__crt_stdio_output@@AAEXI@Z 1002996a f i libucrt:output.obj
 0001:0002897c       ?set_flag@?$output_processor@_WV?$stream_output_adapter@_W@__crt_stdio_output@@V?$standard_base@_WV?$stream_output_adapter@_W@__crt_stdio_output@@@2@@__crt_stdio_output@@AAEXI@Z 1002997c f i libucrt:output.obj
 0001:0002898e       ?set_flag@?$output_processor@_WV?$string_output_adapter@_W@__crt_stdio_output@@V?$format_validation_base@_WV?$string_output_adapter@_W@__crt_stdio_output@@@2@@__crt_stdio_output@@AAEXI@Z 1002998e f i libucrt:output.obj
 0001:000289a0       ?set_flag@?$output_processor@_WV?$string_output_adapter@_W@__crt_stdio_output@@V?$positional_parameter_base@_WV?$string_output_adapter@_W@__crt_stdio_output@@@2@@__crt_stdio_output@@AAEXI@Z 100299a0 f i libucrt:output.obj
 0001:000289b2       ?set_flag@?$output_processor@_WV?$string_output_adapter@_W@__crt_stdio_output@@V?$standard_base@_WV?$string_output_adapter@_W@__crt_stdio_output@@@2@@__crt_stdio_output@@AAEXI@Z 100299b2 f i libucrt:output.obj
 0001:000289c4       ?should_format@?$positional_parameter_base@DV?$stream_output_adapter@D@__crt_stdio_output@@@__crt_stdio_output@@IAE_NXZ 100299c4 f i libucrt:output.obj
 0001:000289df       ?should_format@?$positional_parameter_base@DV?$string_output_adapter@D@__crt_stdio_output@@@__crt_stdio_output@@IAE_NXZ 100299df f i libucrt:output.obj
 0001:000289fa       ?should_format@?$positional_parameter_base@_WV?$stream_output_adapter@_W@__crt_stdio_output@@@__crt_stdio_output@@IAE_NXZ 100299fa f i libucrt:output.obj
 0001:00028a15       ?should_format@?$positional_parameter_base@_WV?$string_output_adapter@_W@__crt_stdio_output@@@__crt_stdio_output@@IAE_NXZ 10029a15 f i libucrt:output.obj
 0001:00028a30       ?should_format@?$standard_base@DV?$stream_output_adapter@D@__crt_stdio_output@@@__crt_stdio_output@@IAE_NXZ 10029a30 f i libucrt:output.obj
 0001:00028a33       ?should_format@?$standard_base@DV?$string_output_adapter@D@__crt_stdio_output@@@__crt_stdio_output@@IAE_NXZ 10029a33 f i libucrt:output.obj
 0001:00028a36       ?should_format@?$standard_base@_WV?$stream_output_adapter@_W@__crt_stdio_output@@@__crt_stdio_output@@IAE_NXZ 10029a36 f i libucrt:output.obj
 0001:00028a39       ?should_format@?$standard_base@_WV?$string_output_adapter@_W@__crt_stdio_output@@@__crt_stdio_output@@IAE_NXZ 10029a39 f i libucrt:output.obj
 0001:00028a3c       ?should_skip_normal_state_processing@?$positional_parameter_base@DV?$stream_output_adapter@D@__crt_stdio_output@@@__crt_stdio_output@@IAE_NXZ 10029a3c f i libucrt:output.obj
 0001:00028a6e       ?should_skip_normal_state_processing@?$positional_parameter_base@DV?$string_output_adapter@D@__crt_stdio_output@@@__crt_stdio_output@@IAE_NXZ 10029a6e f i libucrt:output.obj
 0001:00028aa0       ?should_skip_normal_state_processing@?$positional_parameter_base@_WV?$stream_output_adapter@_W@__crt_stdio_output@@@__crt_stdio_output@@IAE_NXZ 10029aa0 f i libucrt:output.obj
 0001:00028ad2       ?should_skip_normal_state_processing@?$positional_parameter_base@_WV?$string_output_adapter@_W@__crt_stdio_output@@@__crt_stdio_output@@IAE_NXZ 10029ad2 f i libucrt:output.obj
 0001:00028b04       ?should_skip_normal_state_processing@?$standard_base@DV?$stream_output_adapter@D@__crt_stdio_output@@@__crt_stdio_output@@IAE_NXZ 10029b04 f i libucrt:output.obj
 0001:00028b07       ?should_skip_normal_state_processing@?$standard_base@DV?$string_output_adapter@D@__crt_stdio_output@@@__crt_stdio_output@@IAE_NXZ 10029b07 f i libucrt:output.obj
 0001:00028b0a       ?should_skip_normal_state_processing@?$standard_base@_WV?$stream_output_adapter@_W@__crt_stdio_output@@@__crt_stdio_output@@IAE_NXZ 10029b0a f i libucrt:output.obj
 0001:00028b0d       ?should_skip_normal_state_processing@?$standard_base@_WV?$string_output_adapter@_W@__crt_stdio_output@@@__crt_stdio_output@@IAE_NXZ 10029b0d f i libucrt:output.obj
 0001:00028b10       ?should_skip_type_state_output@?$positional_parameter_base@DV?$stream_output_adapter@D@__crt_stdio_output@@@__crt_stdio_output@@IBE_NXZ 10029b10 f i libucrt:output.obj
 0001:00028b2c       ?should_skip_type_state_output@?$positional_parameter_base@DV?$string_output_adapter@D@__crt_stdio_output@@@__crt_stdio_output@@IBE_NXZ 10029b2c f i libucrt:output.obj
 0001:00028b48       ?should_skip_type_state_output@?$positional_parameter_base@_WV?$stream_output_adapter@_W@__crt_stdio_output@@@__crt_stdio_output@@IBE_NXZ 10029b48 f i libucrt:output.obj
 0001:00028b64       ?should_skip_type_state_output@?$positional_parameter_base@_WV?$string_output_adapter@_W@__crt_stdio_output@@@__crt_stdio_output@@IBE_NXZ 10029b64 f i libucrt:output.obj
 0001:00028b80       ?should_skip_type_state_output@?$standard_base@DV?$stream_output_adapter@D@__crt_stdio_output@@@__crt_stdio_output@@IBE_NXZ 10029b80 f i libucrt:output.obj
 0001:00028b83       ?should_skip_type_state_output@?$standard_base@DV?$string_output_adapter@D@__crt_stdio_output@@@__crt_stdio_output@@IBE_NXZ 10029b83 f i libucrt:output.obj
 0001:00028b86       ?should_skip_type_state_output@?$standard_base@_WV?$stream_output_adapter@_W@__crt_stdio_output@@@__crt_stdio_output@@IBE_NXZ 10029b86 f i libucrt:output.obj
 0001:00028b89       ?should_skip_type_state_output@?$standard_base@_WV?$string_output_adapter@_W@__crt_stdio_output@@@__crt_stdio_output@@IBE_NXZ 10029b89 f i libucrt:output.obj
 0001:00028b8c       ?state_case_dot@?$output_processor@DV?$stream_output_adapter@D@__crt_stdio_output@@V?$format_validation_base@DV?$stream_output_adapter@D@__crt_stdio_output@@@2@@__crt_stdio_output@@AAE_NXZ 10029b8c f i libucrt:output.obj
 0001:00028b93       ?state_case_dot@?$output_processor@DV?$stream_output_adapter@D@__crt_stdio_output@@V?$positional_parameter_base@DV?$stream_output_adapter@D@__crt_stdio_output@@@2@@__crt_stdio_output@@AAE_NXZ 10029b93 f i libucrt:output.obj
 0001:00028b9a       ?state_case_dot@?$output_processor@DV?$stream_output_adapter@D@__crt_stdio_output@@V?$standard_base@DV?$stream_output_adapter@D@__crt_stdio_output@@@2@@__crt_stdio_output@@AAE_NXZ 10029b9a f i libucrt:output.obj
 0001:00028ba1       ?state_case_dot@?$output_processor@DV?$string_output_adapter@D@__crt_stdio_output@@V?$format_validation_base@DV?$string_output_adapter@D@__crt_stdio_output@@@2@@__crt_stdio_output@@AAE_NXZ 10029ba1 f i libucrt:output.obj
 0001:00028ba8       ?state_case_dot@?$output_processor@DV?$string_output_adapter@D@__crt_stdio_output@@V?$positional_parameter_base@DV?$string_output_adapter@D@__crt_stdio_output@@@2@@__crt_stdio_output@@AAE_NXZ 10029ba8 f i libucrt:output.obj
 0001:00028baf       ?state_case_dot@?$output_processor@DV?$string_output_adapter@D@__crt_stdio_output@@V?$standard_base@DV?$string_output_adapter@D@__crt_stdio_output@@@2@@__crt_stdio_output@@AAE_NXZ 10029baf f i libucrt:output.obj
 0001:00028bb6       ?state_case_dot@?$output_processor@_WV?$stream_output_adapter@_W@__crt_stdio_output@@V?$format_validation_base@_WV?$stream_output_adapter@_W@__crt_stdio_output@@@2@@__crt_stdio_output@@AAE_NXZ 10029bb6 f i libucrt:output.obj
 0001:00028bbd       ?state_case_dot@?$output_processor@_WV?$stream_output_adapter@_W@__crt_stdio_output@@V?$positional_parameter_base@_WV?$stream_output_adapter@_W@__crt_stdio_output@@@2@@__crt_stdio_output@@AAE_NXZ 10029bbd f i libucrt:output.obj
 0001:00028bc4       ?state_case_dot@?$output_processor@_WV?$stream_output_adapter@_W@__crt_stdio_output@@V?$standard_base@_WV?$stream_output_adapter@_W@__crt_stdio_output@@@2@@__crt_stdio_output@@AAE_NXZ 10029bc4 f i libucrt:output.obj
 0001:00028bcb       ?state_case_dot@?$output_processor@_WV?$string_output_adapter@_W@__crt_stdio_output@@V?$format_validation_base@_WV?$string_output_adapter@_W@__crt_stdio_output@@@2@@__crt_stdio_output@@AAE_NXZ 10029bcb f i libucrt:output.obj
 0001:00028bd2       ?state_case_dot@?$output_processor@_WV?$string_output_adapter@_W@__crt_stdio_output@@V?$positional_parameter_base@_WV?$string_output_adapter@_W@__crt_stdio_output@@@2@@__crt_stdio_output@@AAE_NXZ 10029bd2 f i libucrt:output.obj
 0001:00028bd9       ?state_case_dot@?$output_processor@_WV?$string_output_adapter@_W@__crt_stdio_output@@V?$standard_base@_WV?$string_output_adapter@_W@__crt_stdio_output@@@2@@__crt_stdio_output@@AAE_NXZ 10029bd9 f i libucrt:output.obj
 0001:00028be0       ?state_case_flag@?$output_processor@DV?$stream_output_adapter@D@__crt_stdio_output@@V?$format_validation_base@DV?$stream_output_adapter@D@__crt_stdio_output@@@2@@__crt_stdio_output@@AAE_NXZ 10029be0 f i libucrt:output.obj
 0001:00028c2c       ?state_case_flag@?$output_processor@DV?$stream_output_adapter@D@__crt_stdio_output@@V?$positional_parameter_base@DV?$stream_output_adapter@D@__crt_stdio_output@@@2@@__crt_stdio_output@@AAE_NXZ 10029c2c f i libucrt:output.obj
 0001:00028c78       ?state_case_flag@?$output_processor@DV?$stream_output_adapter@D@__crt_stdio_output@@V?$standard_base@DV?$stream_output_adapter@D@__crt_stdio_output@@@2@@__crt_stdio_output@@AAE_NXZ 10029c78 f i libucrt:output.obj
 0001:00028cc4       ?state_case_flag@?$output_processor@DV?$string_output_adapter@D@__crt_stdio_output@@V?$format_validation_base@DV?$string_output_adapter@D@__crt_stdio_output@@@2@@__crt_stdio_output@@AAE_NXZ 10029cc4 f i libucrt:output.obj
 0001:00028d10       ?state_case_flag@?$output_processor@DV?$string_output_adapter@D@__crt_stdio_output@@V?$positional_parameter_base@DV?$string_output_adapter@D@__crt_stdio_output@@@2@@__crt_stdio_output@@AAE_NXZ 10029d10 f i libucrt:output.obj
 0001:00028d5c       ?state_case_flag@?$output_processor@DV?$string_output_adapter@D@__crt_stdio_output@@V?$standard_base@DV?$string_output_adapter@D@__crt_stdio_output@@@2@@__crt_stdio_output@@AAE_NXZ 10029d5c f i libucrt:output.obj
 0001:00028da8       ?state_case_flag@?$output_processor@_WV?$stream_output_adapter@_W@__crt_stdio_output@@V?$format_validation_base@_WV?$stream_output_adapter@_W@__crt_stdio_output@@@2@@__crt_stdio_output@@AAE_NXZ 10029da8 f i libucrt:output.obj
 0001:00028df4       ?state_case_flag@?$output_processor@_WV?$stream_output_adapter@_W@__crt_stdio_output@@V?$positional_parameter_base@_WV?$stream_output_adapter@_W@__crt_stdio_output@@@2@@__crt_stdio_output@@AAE_NXZ 10029df4 f i libucrt:output.obj
 0001:00028e40       ?state_case_flag@?$output_processor@_WV?$stream_output_adapter@_W@__crt_stdio_output@@V?$standard_base@_WV?$stream_output_adapter@_W@__crt_stdio_output@@@2@@__crt_stdio_output@@AAE_NXZ 10029e40 f i libucrt:output.obj
 0001:00028e8c       ?state_case_flag@?$output_processor@_WV?$string_output_adapter@_W@__crt_stdio_output@@V?$format_validation_base@_WV?$string_output_adapter@_W@__crt_stdio_output@@@2@@__crt_stdio_output@@AAE_NXZ 10029e8c f i libucrt:output.obj
 0001:00028ed8       ?state_case_flag@?$output_processor@_WV?$string_output_adapter@_W@__crt_stdio_output@@V?$positional_parameter_base@_WV?$string_output_adapter@_W@__crt_stdio_output@@@2@@__crt_stdio_output@@AAE_NXZ 10029ed8 f i libucrt:output.obj
 0001:00028f24       ?state_case_flag@?$output_processor@_WV?$string_output_adapter@_W@__crt_stdio_output@@V?$standard_base@_WV?$string_output_adapter@_W@__crt_stdio_output@@@2@@__crt_stdio_output@@AAE_NXZ 10029f24 f i libucrt:output.obj
 0001:00028f70       ?state_case_normal@?$output_processor@DV?$stream_output_adapter@D@__crt_stdio_output@@V?$format_validation_base@DV?$stream_output_adapter@D@__crt_stdio_output@@@2@@__crt_stdio_output@@AAE_NXZ 10029f70 f i libucrt:output.obj
 0001:00028f96       ?state_case_normal@?$output_processor@DV?$stream_output_adapter@D@__crt_stdio_output@@V?$positional_parameter_base@DV?$stream_output_adapter@D@__crt_stdio_output@@@2@@__crt_stdio_output@@AAE_NXZ 10029f96 f i libucrt:output.obj
 0001:00028fd3       ?state_case_normal@?$output_processor@DV?$stream_output_adapter@D@__crt_stdio_output@@V?$standard_base@DV?$stream_output_adapter@D@__crt_stdio_output@@@2@@__crt_stdio_output@@AAE_NXZ 10029fd3 f i libucrt:output.obj
 0001:00028ff9       ?state_case_normal@?$output_processor@DV?$string_output_adapter@D@__crt_stdio_output@@V?$format_validation_base@DV?$string_output_adapter@D@__crt_stdio_output@@@2@@__crt_stdio_output@@AAE_NXZ 10029ff9 f i libucrt:output.obj
 0001:0002901f       ?state_case_normal@?$output_processor@DV?$string_output_adapter@D@__crt_stdio_output@@V?$positional_parameter_base@DV?$string_output_adapter@D@__crt_stdio_output@@@2@@__crt_stdio_output@@AAE_NXZ 1002a01f f i libucrt:output.obj
 0001:0002905c       ?state_case_normal@?$output_processor@DV?$string_output_adapter@D@__crt_stdio_output@@V?$standard_base@DV?$string_output_adapter@D@__crt_stdio_output@@@2@@__crt_stdio_output@@AAE_NXZ 1002a05c f i libucrt:output.obj
 0001:00029082       ?state_case_normal@?$output_processor@_WV?$stream_output_adapter@_W@__crt_stdio_output@@V?$format_validation_base@_WV?$stream_output_adapter@_W@__crt_stdio_output@@@2@@__crt_stdio_output@@AAE_NXZ 1002a082 f i libucrt:output.obj
 0001:000290a8       ?state_case_normal@?$output_processor@_WV?$stream_output_adapter@_W@__crt_stdio_output@@V?$positional_parameter_base@_WV?$stream_output_adapter@_W@__crt_stdio_output@@@2@@__crt_stdio_output@@AAE_NXZ 1002a0a8 f i libucrt:output.obj
 0001:000290e5       ?state_case_normal@?$output_processor@_WV?$stream_output_adapter@_W@__crt_stdio_output@@V?$standard_base@_WV?$stream_output_adapter@_W@__crt_stdio_output@@@2@@__crt_stdio_output@@AAE_NXZ 1002a0e5 f i libucrt:output.obj
 0001:0002910b       ?state_case_normal@?$output_processor@_WV?$string_output_adapter@_W@__crt_stdio_output@@V?$format_validation_base@_WV?$string_output_adapter@_W@__crt_stdio_output@@@2@@__crt_stdio_output@@AAE_NXZ 1002a10b f i libucrt:output.obj
 0001:00029131       ?state_case_normal@?$output_processor@_WV?$string_output_adapter@_W@__crt_stdio_output@@V?$positional_parameter_base@_WV?$string_output_adapter@_W@__crt_stdio_output@@@2@@__crt_stdio_output@@AAE_NXZ 1002a131 f i libucrt:output.obj
 0001:0002916e       ?state_case_normal@?$output_processor@_WV?$string_output_adapter@_W@__crt_stdio_output@@V?$standard_base@_WV?$string_output_adapter@_W@__crt_stdio_output@@@2@@__crt_stdio_output@@AAE_NXZ 1002a16e f i libucrt:output.obj
 0001:00029194       ?state_case_normal_common@?$output_processor@DV?$stream_output_adapter@D@__crt_stdio_output@@V?$format_validation_base@DV?$stream_output_adapter@D@__crt_stdio_output@@@2@@__crt_stdio_output@@AAE_NXZ 1002a194 f i libucrt:output.obj
 0001:000291c8       ?state_case_normal_common@?$output_processor@DV?$stream_output_adapter@D@__crt_stdio_output@@V?$positional_parameter_base@DV?$stream_output_adapter@D@__crt_stdio_output@@@2@@__crt_stdio_output@@AAE_NXZ 1002a1c8 f i libucrt:output.obj
 0001:000291fc       ?state_case_normal_common@?$output_processor@DV?$stream_output_adapter@D@__crt_stdio_output@@V?$standard_base@DV?$stream_output_adapter@D@__crt_stdio_output@@@2@@__crt_stdio_output@@AAE_NXZ 1002a1fc f i libucrt:output.obj
 0001:00029230       ?state_case_normal_common@?$output_processor@DV?$string_output_adapter@D@__crt_stdio_output@@V?$format_validation_base@DV?$string_output_adapter@D@__crt_stdio_output@@@2@@__crt_stdio_output@@AAE_NXZ 1002a230 f i libucrt:output.obj
 0001:00029264       ?state_case_normal_common@?$output_processor@DV?$string_output_adapter@D@__crt_stdio_output@@V?$positional_parameter_base@DV?$string_output_adapter@D@__crt_stdio_output@@@2@@__crt_stdio_output@@AAE_NXZ 1002a264 f i libucrt:output.obj
 0001:00029298       ?state_case_normal_common@?$output_processor@DV?$string_output_adapter@D@__crt_stdio_output@@V?$standard_base@DV?$string_output_adapter@D@__crt_stdio_output@@@2@@__crt_stdio_output@@AAE_NXZ 1002a298 f i libucrt:output.obj
 0001:000292cc       ?state_case_normal_common@?$output_processor@_WV?$stream_output_adapter@_W@__crt_stdio_output@@V?$format_validation_base@_WV?$stream_output_adapter@_W@__crt_stdio_output@@@2@@__crt_stdio_output@@AAE_NXZ 1002a2cc f i libucrt:output.obj
 0001:000292ed       ?state_case_normal_common@?$output_processor@_WV?$stream_output_adapter@_W@__crt_stdio_output@@V?$positional_parameter_base@_WV?$stream_output_adapter@_W@__crt_stdio_output@@@2@@__crt_stdio_output@@AAE_NXZ 1002a2ed f i libucrt:output.obj
 0001:0002930e       ?state_case_normal_common@?$output_processor@_WV?$stream_output_adapter@_W@__crt_stdio_output@@V?$standard_base@_WV?$stream_output_adapter@_W@__crt_stdio_output@@@2@@__crt_stdio_output@@AAE_NXZ 1002a30e f i libucrt:output.obj
 0001:0002932f       ?state_case_normal_common@?$output_processor@_WV?$string_output_adapter@_W@__crt_stdio_output@@V?$format_validation_base@_WV?$string_output_adapter@_W@__crt_stdio_output@@@2@@__crt_stdio_output@@AAE_NXZ 1002a32f f i libucrt:output.obj
 0001:00029350       ?state_case_normal_common@?$output_processor@_WV?$string_output_adapter@_W@__crt_stdio_output@@V?$positional_parameter_base@_WV?$string_output_adapter@_W@__crt_stdio_output@@@2@@__crt_stdio_output@@AAE_NXZ 1002a350 f i libucrt:output.obj
 0001:00029371       ?state_case_normal_common@?$output_processor@_WV?$string_output_adapter@_W@__crt_stdio_output@@V?$standard_base@_WV?$string_output_adapter@_W@__crt_stdio_output@@@2@@__crt_stdio_output@@AAE_NXZ 1002a371 f i libucrt:output.obj
 0001:00029392       ?state_case_normal_tchar@?$output_processor@DV?$stream_output_adapter@D@__crt_stdio_output@@V?$format_validation_base@DV?$stream_output_adapter@D@__crt_stdio_output@@@2@@__crt_stdio_output@@AAE_ND@Z 1002a392 f i libucrt:output.obj
 0001:0002940b       ?state_case_normal_tchar@?$output_processor@DV?$stream_output_adapter@D@__crt_stdio_output@@V?$positional_parameter_base@DV?$stream_output_adapter@D@__crt_stdio_output@@@2@@__crt_stdio_output@@AAE_ND@Z 1002a40b f i libucrt:output.obj
 0001:00029484       ?state_case_normal_tchar@?$output_processor@DV?$stream_output_adapter@D@__crt_stdio_output@@V?$standard_base@DV?$stream_output_adapter@D@__crt_stdio_output@@@2@@__crt_stdio_output@@AAE_ND@Z 1002a484 f i libucrt:output.obj
 0001:000294fd       ?state_case_normal_tchar@?$output_processor@DV?$string_output_adapter@D@__crt_stdio_output@@V?$format_validation_base@DV?$string_output_adapter@D@__crt_stdio_output@@@2@@__crt_stdio_output@@AAE_ND@Z 1002a4fd f i libucrt:output.obj
 0001:00029576       ?state_case_normal_tchar@?$output_processor@DV?$string_output_adapter@D@__crt_stdio_output@@V?$positional_parameter_base@DV?$string_output_adapter@D@__crt_stdio_output@@@2@@__crt_stdio_output@@AAE_ND@Z 1002a576 f i libucrt:output.obj
 0001:000295ef       ?state_case_normal_tchar@?$output_processor@DV?$string_output_adapter@D@__crt_stdio_output@@V?$standard_base@DV?$string_output_adapter@D@__crt_stdio_output@@@2@@__crt_stdio_output@@AAE_ND@Z 1002a5ef f i libucrt:output.obj
 0001:00029668       ?state_case_normal_tchar@?$output_processor@_WV?$stream_output_adapter@_W@__crt_stdio_output@@V?$format_validation_base@_WV?$stream_output_adapter@_W@__crt_stdio_output@@@2@@__crt_stdio_output@@AAE_N_W@Z 1002a668 f i libucrt:output.obj
 0001:00029673       ?state_case_normal_tchar@?$output_processor@_WV?$stream_output_adapter@_W@__crt_stdio_output@@V?$positional_parameter_base@_WV?$stream_output_adapter@_W@__crt_stdio_output@@@2@@__crt_stdio_output@@AAE_N_W@Z 1002a673 f i libucrt:output.obj
 0001:0002967e       ?state_case_normal_tchar@?$output_processor@_WV?$stream_output_adapter@_W@__crt_stdio_output@@V?$standard_base@_WV?$stream_output_adapter@_W@__crt_stdio_output@@@2@@__crt_stdio_output@@AAE_N_W@Z 1002a67e f i libucrt:output.obj
 0001:00029689       ?state_case_normal_tchar@?$output_processor@_WV?$string_output_adapter@_W@__crt_stdio_output@@V?$format_validation_base@_WV?$string_output_adapter@_W@__crt_stdio_output@@@2@@__crt_stdio_output@@AAE_N_W@Z 1002a689 f i libucrt:output.obj
 0001:00029694       ?state_case_normal_tchar@?$output_processor@_WV?$string_output_adapter@_W@__crt_stdio_output@@V?$positional_parameter_base@_WV?$string_output_adapter@_W@__crt_stdio_output@@@2@@__crt_stdio_output@@AAE_N_W@Z 1002a694 f i libucrt:output.obj
 0001:0002969f       ?state_case_normal_tchar@?$output_processor@_WV?$string_output_adapter@_W@__crt_stdio_output@@V?$standard_base@_WV?$string_output_adapter@_W@__crt_stdio_output@@@2@@__crt_stdio_output@@AAE_N_W@Z 1002a69f f i libucrt:output.obj
 0001:000296aa       ?state_case_percent@?$output_processor@DV?$stream_output_adapter@D@__crt_stdio_output@@V?$format_validation_base@DV?$stream_output_adapter@D@__crt_stdio_output@@@2@@__crt_stdio_output@@AAE_NXZ 1002a6aa f i libucrt:output.obj
 0001:000296c8       ?state_case_percent@?$output_processor@DV?$stream_output_adapter@D@__crt_stdio_output@@V?$positional_parameter_base@DV?$stream_output_adapter@D@__crt_stdio_output@@@2@@__crt_stdio_output@@AAE_NXZ 1002a6c8 f i libucrt:output.obj
 0001:000296e6       ?state_case_percent@?$output_processor@DV?$stream_output_adapter@D@__crt_stdio_output@@V?$standard_base@DV?$stream_output_adapter@D@__crt_stdio_output@@@2@@__crt_stdio_output@@AAE_NXZ 1002a6e6 f i libucrt:output.obj
 0001:00029704       ?state_case_percent@?$output_processor@DV?$string_output_adapter@D@__crt_stdio_output@@V?$format_validation_base@DV?$string_output_adapter@D@__crt_stdio_output@@@2@@__crt_stdio_output@@AAE_NXZ 1002a704 f i libucrt:output.obj
 0001:00029722       ?state_case_percent@?$output_processor@DV?$string_output_adapter@D@__crt_stdio_output@@V?$positional_parameter_base@DV?$string_output_adapter@D@__crt_stdio_output@@@2@@__crt_stdio_output@@AAE_NXZ 1002a722 f i libucrt:output.obj
 0001:00029740       ?state_case_percent@?$output_processor@DV?$string_output_adapter@D@__crt_stdio_output@@V?$standard_base@DV?$string_output_adapter@D@__crt_stdio_output@@@2@@__crt_stdio_output@@AAE_NXZ 1002a740 f i libucrt:output.obj
 0001:0002975e       ?state_case_percent@?$output_processor@_WV?$stream_output_adapter@_W@__crt_stdio_output@@V?$format_validation_base@_WV?$stream_output_adapter@_W@__crt_stdio_output@@@2@@__crt_stdio_output@@AAE_NXZ 1002a75e f i libucrt:output.obj
 0001:0002977c       ?state_case_percent@?$output_processor@_WV?$stream_output_adapter@_W@__crt_stdio_output@@V?$positional_parameter_base@_WV?$stream_output_adapter@_W@__crt_stdio_output@@@2@@__crt_stdio_output@@AAE_NXZ 1002a77c f i libucrt:output.obj
 0001:0002979a       ?state_case_percent@?$output_processor@_WV?$stream_output_adapter@_W@__crt_stdio_output@@V?$standard_base@_WV?$stream_output_adapter@_W@__crt_stdio_output@@@2@@__crt_stdio_output@@AAE_NXZ 1002a79a f i libucrt:output.obj
 0001:000297b8       ?state_case_percent@?$output_processor@_WV?$string_output_adapter@_W@__crt_stdio_output@@V?$format_validation_base@_WV?$string_output_adapter@_W@__crt_stdio_output@@@2@@__crt_stdio_output@@AAE_NXZ 1002a7b8 f i libucrt:output.obj
 0001:000297d6       ?state_case_percent@?$output_processor@_WV?$string_output_adapter@_W@__crt_stdio_output@@V?$positional_parameter_base@_WV?$string_output_adapter@_W@__crt_stdio_output@@@2@@__crt_stdio_output@@AAE_NXZ 1002a7d6 f i libucrt:output.obj
 0001:000297f4       ?state_case_percent@?$output_processor@_WV?$string_output_adapter@_W@__crt_stdio_output@@V?$standard_base@_WV?$string_output_adapter@_W@__crt_stdio_output@@@2@@__crt_stdio_output@@AAE_NXZ 1002a7f4 f i libucrt:output.obj
 0001:00029812       ?state_case_precision@?$output_processor@DV?$stream_output_adapter@D@__crt_stdio_output@@V?$format_validation_base@DV?$stream_output_adapter@D@__crt_stdio_output@@@2@@__crt_stdio_output@@AAE_NXZ 1002a812 f i libucrt:output.obj
 0001:00029844       ?state_case_precision@?$output_processor@DV?$stream_output_adapter@D@__crt_stdio_output@@V?$positional_parameter_base@DV?$stream_output_adapter@D@__crt_stdio_output@@@2@@__crt_stdio_output@@AAE_NXZ 1002a844 f i libucrt:output.obj
 0001:0002988c       ?state_case_precision@?$output_processor@DV?$stream_output_adapter@D@__crt_stdio_output@@V?$standard_base@DV?$stream_output_adapter@D@__crt_stdio_output@@@2@@__crt_stdio_output@@AAE_NXZ 1002a88c f i libucrt:output.obj
 0001:000298be       ?state_case_precision@?$output_processor@DV?$string_output_adapter@D@__crt_stdio_output@@V?$format_validation_base@DV?$string_output_adapter@D@__crt_stdio_output@@@2@@__crt_stdio_output@@AAE_NXZ 1002a8be f i libucrt:output.obj
 0001:000298f0       ?state_case_precision@?$output_processor@DV?$string_output_adapter@D@__crt_stdio_output@@V?$positional_parameter_base@DV?$string_output_adapter@D@__crt_stdio_output@@@2@@__crt_stdio_output@@AAE_NXZ 1002a8f0 f i libucrt:output.obj
 0001:00029938       ?state_case_precision@?$output_processor@DV?$string_output_adapter@D@__crt_stdio_output@@V?$standard_base@DV?$string_output_adapter@D@__crt_stdio_output@@@2@@__crt_stdio_output@@AAE_NXZ 1002a938 f i libucrt:output.obj
 0001:0002996a       ?state_case_precision@?$output_processor@_WV?$stream_output_adapter@_W@__crt_stdio_output@@V?$format_validation_base@_WV?$stream_output_adapter@_W@__crt_stdio_output@@@2@@__crt_stdio_output@@AAE_NXZ 1002a96a f i libucrt:output.obj
 0001:0002999d       ?state_case_precision@?$output_processor@_WV?$stream_output_adapter@_W@__crt_stdio_output@@V?$positional_parameter_base@_WV?$stream_output_adapter@_W@__crt_stdio_output@@@2@@__crt_stdio_output@@AAE_NXZ 1002a99d f i libucrt:output.obj
 0001:000299e6       ?state_case_precision@?$output_processor@_WV?$stream_output_adapter@_W@__crt_stdio_output@@V?$standard_base@_WV?$stream_output_adapter@_W@__crt_stdio_output@@@2@@__crt_stdio_output@@AAE_NXZ 1002a9e6 f i libucrt:output.obj
 0001:00029a19       ?state_case_precision@?$output_processor@_WV?$string_output_adapter@_W@__crt_stdio_output@@V?$format_validation_base@_WV?$string_output_adapter@_W@__crt_stdio_output@@@2@@__crt_stdio_output@@AAE_NXZ 1002aa19 f i libucrt:output.obj
 0001:00029a4c       ?state_case_precision@?$output_processor@_WV?$string_output_adapter@_W@__crt_stdio_output@@V?$positional_parameter_base@_WV?$string_output_adapter@_W@__crt_stdio_output@@@2@@__crt_stdio_output@@AAE_NXZ 1002aa4c f i libucrt:output.obj
 0001:00029a95       ?state_case_precision@?$output_processor@_WV?$string_output_adapter@_W@__crt_stdio_output@@V?$standard_base@_WV?$string_output_adapter@_W@__crt_stdio_output@@@2@@__crt_stdio_output@@AAE_NXZ 1002aa95 f i libucrt:output.obj
 0001:00029ac8       ?state_case_size@?$output_processor@DV?$stream_output_adapter@D@__crt_stdio_output@@V?$format_validation_base@DV?$stream_output_adapter@D@__crt_stdio_output@@@2@@__crt_stdio_output@@AAE_NXZ 1002aac8 f i libucrt:output.obj
 0001:00029c8b       ?state_case_size@?$output_processor@DV?$stream_output_adapter@D@__crt_stdio_output@@V?$positional_parameter_base@DV?$stream_output_adapter@D@__crt_stdio_output@@@2@@__crt_stdio_output@@AAE_NXZ 1002ac8b f i libucrt:output.obj
 0001:00029e4e       ?state_case_size@?$output_processor@DV?$stream_output_adapter@D@__crt_stdio_output@@V?$standard_base@DV?$stream_output_adapter@D@__crt_stdio_output@@@2@@__crt_stdio_output@@AAE_NXZ 1002ae4e f i libucrt:output.obj
 0001:0002a011       ?state_case_size@?$output_processor@DV?$string_output_adapter@D@__crt_stdio_output@@V?$format_validation_base@DV?$string_output_adapter@D@__crt_stdio_output@@@2@@__crt_stdio_output@@AAE_NXZ 1002b011 f i libucrt:output.obj
 0001:0002a1d4       ?state_case_size@?$output_processor@DV?$string_output_adapter@D@__crt_stdio_output@@V?$positional_parameter_base@DV?$string_output_adapter@D@__crt_stdio_output@@@2@@__crt_stdio_output@@AAE_NXZ 1002b1d4 f i libucrt:output.obj
 0001:0002a397       ?state_case_size@?$output_processor@DV?$string_output_adapter@D@__crt_stdio_output@@V?$standard_base@DV?$string_output_adapter@D@__crt_stdio_output@@@2@@__crt_stdio_output@@AAE_NXZ 1002b397 f i libucrt:output.obj
 0001:0002a55a       ?state_case_size@?$output_processor@_WV?$stream_output_adapter@_W@__crt_stdio_output@@V?$format_validation_base@_WV?$stream_output_adapter@_W@__crt_stdio_output@@@2@@__crt_stdio_output@@AAE_NXZ 1002b55a f i libucrt:output.obj
 0001:0002a735       ?state_case_size@?$output_processor@_WV?$stream_output_adapter@_W@__crt_stdio_output@@V?$positional_parameter_base@_WV?$stream_output_adapter@_W@__crt_stdio_output@@@2@@__crt_stdio_output@@AAE_NXZ 1002b735 f i libucrt:output.obj
 0001:0002a910       ?state_case_size@?$output_processor@_WV?$stream_output_adapter@_W@__crt_stdio_output@@V?$standard_base@_WV?$stream_output_adapter@_W@__crt_stdio_output@@@2@@__crt_stdio_output@@AAE_NXZ 1002b910 f i libucrt:output.obj
 0001:0002aaeb       ?state_case_size@?$output_processor@_WV?$string_output_adapter@_W@__crt_stdio_output@@V?$format_validation_base@_WV?$string_output_adapter@_W@__crt_stdio_output@@@2@@__crt_stdio_output@@AAE_NXZ 1002baeb f i libucrt:output.obj
 0001:0002acc6       ?state_case_size@?$output_processor@_WV?$string_output_adapter@_W@__crt_stdio_output@@V?$positional_parameter_base@_WV?$string_output_adapter@_W@__crt_stdio_output@@@2@@__crt_stdio_output@@AAE_NXZ 1002bcc6 f i libucrt:output.obj
 0001:0002aea1       ?state_case_size@?$output_processor@_WV?$string_output_adapter@_W@__crt_stdio_output@@V?$standard_base@_WV?$string_output_adapter@_W@__crt_stdio_output@@@2@@__crt_stdio_output@@AAE_NXZ 1002bea1 f i libucrt:output.obj
 0001:0002b07c       ?state_case_type@?$output_processor@DV?$stream_output_adapter@D@__crt_stdio_output@@V?$format_validation_base@DV?$stream_output_adapter@D@__crt_stdio_output@@@2@@__crt_stdio_output@@AAE_NXZ 1002c07c f i libucrt:output.obj
 0001:0002b336       ?state_case_type@?$output_processor@DV?$stream_output_adapter@D@__crt_stdio_output@@V?$positional_parameter_base@DV?$stream_output_adapter@D@__crt_stdio_output@@@2@@__crt_stdio_output@@AAE_NXZ 1002c336 f i libucrt:output.obj
 0001:0002b5fe       ?state_case_type@?$output_processor@DV?$stream_output_adapter@D@__crt_stdio_output@@V?$standard_base@DV?$stream_output_adapter@D@__crt_stdio_output@@@2@@__crt_stdio_output@@AAE_NXZ 1002c5fe f i libucrt:output.obj
 0001:0002b8b8       ?state_case_type@?$output_processor@DV?$string_output_adapter@D@__crt_stdio_output@@V?$format_validation_base@DV?$string_output_adapter@D@__crt_stdio_output@@@2@@__crt_stdio_output@@AAE_NXZ 1002c8b8 f i libucrt:output.obj
 0001:0002bb72       ?state_case_type@?$output_processor@DV?$string_output_adapter@D@__crt_stdio_output@@V?$positional_parameter_base@DV?$string_output_adapter@D@__crt_stdio_output@@@2@@__crt_stdio_output@@AAE_NXZ 1002cb72 f i libucrt:output.obj
 0001:0002be3a       ?state_case_type@?$output_processor@DV?$string_output_adapter@D@__crt_stdio_output@@V?$standard_base@DV?$string_output_adapter@D@__crt_stdio_output@@@2@@__crt_stdio_output@@AAE_NXZ 1002ce3a f i libucrt:output.obj
 0001:0002c0f4       ?state_case_type@?$output_processor@_WV?$stream_output_adapter@_W@__crt_stdio_output@@V?$format_validation_base@_WV?$stream_output_adapter@_W@__crt_stdio_output@@@2@@__crt_stdio_output@@AAE_NXZ 1002d0f4 f i libucrt:output.obj
 0001:0002c3e8       ?state_case_type@?$output_processor@_WV?$stream_output_adapter@_W@__crt_stdio_output@@V?$positional_parameter_base@_WV?$stream_output_adapter@_W@__crt_stdio_output@@@2@@__crt_stdio_output@@AAE_NXZ 1002d3e8 f i libucrt:output.obj
 0001:0002c6ef       ?state_case_type@?$output_processor@_WV?$stream_output_adapter@_W@__crt_stdio_output@@V?$standard_base@_WV?$stream_output_adapter@_W@__crt_stdio_output@@@2@@__crt_stdio_output@@AAE_NXZ 1002d6ef f i libucrt:output.obj
 0001:0002c9e3       ?state_case_type@?$output_processor@_WV?$string_output_adapter@_W@__crt_stdio_output@@V?$format_validation_base@_WV?$string_output_adapter@_W@__crt_stdio_output@@@2@@__crt_stdio_output@@AAE_NXZ 1002d9e3 f i libucrt:output.obj
 0001:0002ccd7       ?state_case_type@?$output_processor@_WV?$string_output_adapter@_W@__crt_stdio_output@@V?$positional_parameter_base@_WV?$string_output_adapter@_W@__crt_stdio_output@@@2@@__crt_stdio_output@@AAE_NXZ 1002dcd7 f i libucrt:output.obj
 0001:0002cfde       ?state_case_type@?$output_processor@_WV?$string_output_adapter@_W@__crt_stdio_output@@V?$standard_base@_WV?$string_output_adapter@_W@__crt_stdio_output@@@2@@__crt_stdio_output@@AAE_NXZ 1002dfde f i libucrt:output.obj
 0001:0002d2d2       ?state_case_width@?$output_processor@DV?$stream_output_adapter@D@__crt_stdio_output@@V?$format_validation_base@DV?$stream_output_adapter@D@__crt_stdio_output@@@2@@__crt_stdio_output@@AAE_NXZ 1002e2d2 f i libucrt:output.obj
 0001:0002d307       ?state_case_width@?$output_processor@DV?$stream_output_adapter@D@__crt_stdio_output@@V?$positional_parameter_base@DV?$stream_output_adapter@D@__crt_stdio_output@@@2@@__crt_stdio_output@@AAE_NXZ 1002e307 f i libucrt:output.obj
 0001:0002d357       ?state_case_width@?$output_processor@DV?$stream_output_adapter@D@__crt_stdio_output@@V?$standard_base@DV?$stream_output_adapter@D@__crt_stdio_output@@@2@@__crt_stdio_output@@AAE_NXZ 1002e357 f i libucrt:output.obj
 0001:0002d38c       ?state_case_width@?$output_processor@DV?$string_output_adapter@D@__crt_stdio_output@@V?$format_validation_base@DV?$string_output_adapter@D@__crt_stdio_output@@@2@@__crt_stdio_output@@AAE_NXZ 1002e38c f i libucrt:output.obj
 0001:0002d3c1       ?state_case_width@?$output_processor@DV?$string_output_adapter@D@__crt_stdio_output@@V?$positional_parameter_base@DV?$string_output_adapter@D@__crt_stdio_output@@@2@@__crt_stdio_output@@AAE_NXZ 1002e3c1 f i libucrt:output.obj
 0001:0002d411       ?state_case_width@?$output_processor@DV?$string_output_adapter@D@__crt_stdio_output@@V?$standard_base@DV?$string_output_adapter@D@__crt_stdio_output@@@2@@__crt_stdio_output@@AAE_NXZ 1002e411 f i libucrt:output.obj
 0001:0002d446       ?state_case_width@?$output_processor@_WV?$stream_output_adapter@_W@__crt_stdio_output@@V?$format_validation_base@_WV?$stream_output_adapter@_W@__crt_stdio_output@@@2@@__crt_stdio_output@@AAE_NXZ 1002e446 f i libucrt:output.obj
 0001:0002d47d       ?state_case_width@?$output_processor@_WV?$stream_output_adapter@_W@__crt_stdio_output@@V?$positional_parameter_base@_WV?$stream_output_adapter@_W@__crt_stdio_output@@@2@@__crt_stdio_output@@AAE_NXZ 1002e47d f i libucrt:output.obj
 0001:0002d4ce       ?state_case_width@?$output_processor@_WV?$stream_output_adapter@_W@__crt_stdio_output@@V?$standard_base@_WV?$stream_output_adapter@_W@__crt_stdio_output@@@2@@__crt_stdio_output@@AAE_NXZ 1002e4ce f i libucrt:output.obj
 0001:0002d505       ?state_case_width@?$output_processor@_WV?$string_output_adapter@_W@__crt_stdio_output@@V?$format_validation_base@_WV?$string_output_adapter@_W@__crt_stdio_output@@@2@@__crt_stdio_output@@AAE_NXZ 1002e505 f i libucrt:output.obj
 0001:0002d53c       ?state_case_width@?$output_processor@_WV?$string_output_adapter@_W@__crt_stdio_output@@V?$positional_parameter_base@_WV?$string_output_adapter@_W@__crt_stdio_output@@@2@@__crt_stdio_output@@AAE_NXZ 1002e53c f i libucrt:output.obj
 0001:0002d58d       ?state_case_width@?$output_processor@_WV?$string_output_adapter@_W@__crt_stdio_output@@V?$standard_base@_WV?$string_output_adapter@_W@__crt_stdio_output@@@2@@__crt_stdio_output@@AAE_NXZ 1002e58d f i libucrt:output.obj
 0001:0002d5c4       ?state_count@?$format_validation_base@DV?$stream_output_adapter@D@__crt_stdio_output@@@__crt_stdio_output@@KAIXZ 1002e5c4 f i libucrt:output.obj
 0001:0002d5c8       ?state_count@?$format_validation_base@DV?$string_output_adapter@D@__crt_stdio_output@@@__crt_stdio_output@@KAIXZ 1002e5c8 f i libucrt:output.obj
 0001:0002d5cc       ?state_count@?$format_validation_base@_WV?$stream_output_adapter@_W@__crt_stdio_output@@@__crt_stdio_output@@KAIXZ 1002e5cc f i libucrt:output.obj
 0001:0002d5d0       ?state_count@?$format_validation_base@_WV?$string_output_adapter@_W@__crt_stdio_output@@@__crt_stdio_output@@KAIXZ 1002e5d0 f i libucrt:output.obj
 0001:0002d5d4       ?state_count@?$standard_base@DV?$stream_output_adapter@D@__crt_stdio_output@@@__crt_stdio_output@@KAIXZ 1002e5d4 f i libucrt:output.obj
 0001:0002d5d8       ?state_count@?$standard_base@DV?$string_output_adapter@D@__crt_stdio_output@@@__crt_stdio_output@@KAIXZ 1002e5d8 f i libucrt:output.obj
 0001:0002d5dc       ?state_count@?$standard_base@_WV?$stream_output_adapter@_W@__crt_stdio_output@@@__crt_stdio_output@@KAIXZ 1002e5dc f i libucrt:output.obj
 0001:0002d5e0       ?state_count@?$standard_base@_WV?$string_output_adapter@_W@__crt_stdio_output@@@__crt_stdio_output@@KAIXZ 1002e5e0 f i libucrt:output.obj
 0001:0002d5e4       ?state_transition_table@?$format_validation_base@DV?$stream_output_adapter@D@__crt_stdio_output@@@__crt_stdio_output@@KAPBEXZ 1002e5e4 f i libucrt:output.obj
 0001:0002d5ea       ?state_transition_table@?$format_validation_base@DV?$string_output_adapter@D@__crt_stdio_output@@@__crt_stdio_output@@KAPBEXZ 1002e5ea f i libucrt:output.obj
 0001:0002d5f0       ?state_transition_table@?$format_validation_base@_WV?$stream_output_adapter@_W@__crt_stdio_output@@@__crt_stdio_output@@KAPBEXZ 1002e5f0 f i libucrt:output.obj
 0001:0002d5f6       ?state_transition_table@?$format_validation_base@_WV?$string_output_adapter@_W@__crt_stdio_output@@@__crt_stdio_output@@KAPBEXZ 1002e5f6 f i libucrt:output.obj
 0001:0002d5fc       ?state_transition_table@?$standard_base@DV?$stream_output_adapter@D@__crt_stdio_output@@@__crt_stdio_output@@KAPBEXZ 1002e5fc f i libucrt:output.obj
 0001:0002d602       ?state_transition_table@?$standard_base@DV?$string_output_adapter@D@__crt_stdio_output@@@__crt_stdio_output@@KAPBEXZ 1002e602 f i libucrt:output.obj
 0001:0002d608       ?state_transition_table@?$standard_base@_WV?$stream_output_adapter@_W@__crt_stdio_output@@@__crt_stdio_output@@KAPBEXZ 1002e608 f i libucrt:output.obj
 0001:0002d60e       ?state_transition_table@?$standard_base@_WV?$string_output_adapter@_W@__crt_stdio_output@@@__crt_stdio_output@@KAPBEXZ 1002e60e f i libucrt:output.obj
 0001:0002d614       ?to_integer_size@__crt_stdio_output@@YAIW4length_modifier@1@@Z 1002e614 f i libucrt:output.obj
 0001:0002d687       ?type_case_X@?$output_processor@DV?$stream_output_adapter@D@__crt_stdio_output@@V?$format_validation_base@DV?$stream_output_adapter@D@__crt_stdio_output@@@2@@__crt_stdio_output@@AAE_NXZ 1002e687 f i libucrt:output.obj
 0001:0002d693       ?type_case_X@?$output_processor@DV?$stream_output_adapter@D@__crt_stdio_output@@V?$positional_parameter_base@DV?$stream_output_adapter@D@__crt_stdio_output@@@2@@__crt_stdio_output@@AAE_NXZ 1002e693 f i libucrt:output.obj
 0001:0002d69f       ?type_case_X@?$output_processor@DV?$stream_output_adapter@D@__crt_stdio_output@@V?$standard_base@DV?$stream_output_adapter@D@__crt_stdio_output@@@2@@__crt_stdio_output@@AAE_NXZ 1002e69f f i libucrt:output.obj
 0001:0002d6ab       ?type_case_X@?$output_processor@DV?$string_output_adapter@D@__crt_stdio_output@@V?$format_validation_base@DV?$string_output_adapter@D@__crt_stdio_output@@@2@@__crt_stdio_output@@AAE_NXZ 1002e6ab f i libucrt:output.obj
 0001:0002d6b7       ?type_case_X@?$output_processor@DV?$string_output_adapter@D@__crt_stdio_output@@V?$positional_parameter_base@DV?$string_output_adapter@D@__crt_stdio_output@@@2@@__crt_stdio_output@@AAE_NXZ 1002e6b7 f i libucrt:output.obj
 0001:0002d6c3       ?type_case_X@?$output_processor@DV?$string_output_adapter@D@__crt_stdio_output@@V?$standard_base@DV?$string_output_adapter@D@__crt_stdio_output@@@2@@__crt_stdio_output@@AAE_NXZ 1002e6c3 f i libucrt:output.obj
 0001:0002d6cf       ?type_case_X@?$output_processor@_WV?$stream_output_adapter@_W@__crt_stdio_output@@V?$format_validation_base@_WV?$stream_output_adapter@_W@__crt_stdio_output@@@2@@__crt_stdio_output@@AAE_NXZ 1002e6cf f i libucrt:output.obj
 0001:0002d6db       ?type_case_X@?$output_processor@_WV?$stream_output_adapter@_W@__crt_stdio_output@@V?$positional_parameter_base@_WV?$stream_output_adapter@_W@__crt_stdio_output@@@2@@__crt_stdio_output@@AAE_NXZ 1002e6db f i libucrt:output.obj
 0001:0002d6e7       ?type_case_X@?$output_processor@_WV?$stream_output_adapter@_W@__crt_stdio_output@@V?$standard_base@_WV?$stream_output_adapter@_W@__crt_stdio_output@@@2@@__crt_stdio_output@@AAE_NXZ 1002e6e7 f i libucrt:output.obj
 0001:0002d6f3       ?type_case_X@?$output_processor@_WV?$string_output_adapter@_W@__crt_stdio_output@@V?$format_validation_base@_WV?$string_output_adapter@_W@__crt_stdio_output@@@2@@__crt_stdio_output@@AAE_NXZ 1002e6f3 f i libucrt:output.obj
 0001:0002d6ff       ?type_case_X@?$output_processor@_WV?$string_output_adapter@_W@__crt_stdio_output@@V?$positional_parameter_base@_WV?$string_output_adapter@_W@__crt_stdio_output@@@2@@__crt_stdio_output@@AAE_NXZ 1002e6ff f i libucrt:output.obj
 0001:0002d70b       ?type_case_X@?$output_processor@_WV?$string_output_adapter@_W@__crt_stdio_output@@V?$standard_base@_WV?$string_output_adapter@_W@__crt_stdio_output@@@2@@__crt_stdio_output@@AAE_NXZ 1002e70b f i libucrt:output.obj
 0001:0002d717       ?type_case_Z@?$output_processor@DV?$stream_output_adapter@D@__crt_stdio_output@@V?$format_validation_base@DV?$stream_output_adapter@D@__crt_stdio_output@@@2@@__crt_stdio_output@@AAE_NXZ 1002e717 f i libucrt:output.obj
 0001:0002d792       ?type_case_Z@?$output_processor@DV?$stream_output_adapter@D@__crt_stdio_output@@V?$positional_parameter_base@DV?$stream_output_adapter@D@__crt_stdio_output@@@2@@__crt_stdio_output@@AAE_NXZ 1002e792 f i libucrt:output.obj
 0001:0002d830       ?type_case_Z@?$output_processor@DV?$stream_output_adapter@D@__crt_stdio_output@@V?$standard_base@DV?$stream_output_adapter@D@__crt_stdio_output@@@2@@__crt_stdio_output@@AAE_NXZ 1002e830 f i libucrt:output.obj
 0001:0002d8ab       ?type_case_Z@?$output_processor@DV?$string_output_adapter@D@__crt_stdio_output@@V?$format_validation_base@DV?$string_output_adapter@D@__crt_stdio_output@@@2@@__crt_stdio_output@@AAE_NXZ 1002e8ab f i libucrt:output.obj
 0001:0002d926       ?type_case_Z@?$output_processor@DV?$string_output_adapter@D@__crt_stdio_output@@V?$positional_parameter_base@DV?$string_output_adapter@D@__crt_stdio_output@@@2@@__crt_stdio_output@@AAE_NXZ 1002e926 f i libucrt:output.obj
 0001:0002d9c4       ?type_case_Z@?$output_processor@DV?$string_output_adapter@D@__crt_stdio_output@@V?$standard_base@DV?$string_output_adapter@D@__crt_stdio_output@@@2@@__crt_stdio_output@@AAE_NXZ 1002e9c4 f i libucrt:output.obj
 0001:0002da3f       ?type_case_Z@?$output_processor@_WV?$stream_output_adapter@_W@__crt_stdio_output@@V?$format_validation_base@_WV?$stream_output_adapter@_W@__crt_stdio_output@@@2@@__crt_stdio_output@@AAE_NXZ 1002ea3f f i libucrt:output.obj
 0001:0002daba       ?type_case_Z@?$output_processor@_WV?$stream_output_adapter@_W@__crt_stdio_output@@V?$positional_parameter_base@_WV?$stream_output_adapter@_W@__crt_stdio_output@@@2@@__crt_stdio_output@@AAE_NXZ 1002eaba f i libucrt:output.obj
 0001:0002db58       ?type_case_Z@?$output_processor@_WV?$stream_output_adapter@_W@__crt_stdio_output@@V?$standard_base@_WV?$stream_output_adapter@_W@__crt_stdio_output@@@2@@__crt_stdio_output@@AAE_NXZ 1002eb58 f i libucrt:output.obj
 0001:0002dbd3       ?type_case_Z@?$output_processor@_WV?$string_output_adapter@_W@__crt_stdio_output@@V?$format_validation_base@_WV?$string_output_adapter@_W@__crt_stdio_output@@@2@@__crt_stdio_output@@AAE_NXZ 1002ebd3 f i libucrt:output.obj
 0001:0002dc4e       ?type_case_Z@?$output_processor@_WV?$string_output_adapter@_W@__crt_stdio_output@@V?$positional_parameter_base@_WV?$string_output_adapter@_W@__crt_stdio_output@@@2@@__crt_stdio_output@@AAE_NXZ 1002ec4e f i libucrt:output.obj
 0001:0002dcec       ?type_case_Z@?$output_processor@_WV?$string_output_adapter@_W@__crt_stdio_output@@V?$standard_base@_WV?$string_output_adapter@_W@__crt_stdio_output@@@2@@__crt_stdio_output@@AAE_NXZ 1002ecec f i libucrt:output.obj
 0001:0002dd67       ?type_case_a@?$output_processor@DV?$stream_output_adapter@D@__crt_stdio_output@@V?$format_validation_base@DV?$stream_output_adapter@D@__crt_stdio_output@@@2@@__crt_stdio_output@@AAE_NXZ 1002ed67 f i libucrt:output.obj
 0001:0002df17       ?type_case_a@?$output_processor@DV?$stream_output_adapter@D@__crt_stdio_output@@V?$positional_parameter_base@DV?$stream_output_adapter@D@__crt_stdio_output@@@2@@__crt_stdio_output@@AAE_NXZ 1002ef17 f i libucrt:output.obj
 0001:0002e0ee       ?type_case_a@?$output_processor@DV?$stream_output_adapter@D@__crt_stdio_output@@V?$standard_base@DV?$stream_output_adapter@D@__crt_stdio_output@@@2@@__crt_stdio_output@@AAE_NXZ 1002f0ee f i libucrt:output.obj
 0001:0002e29e       ?type_case_a@?$output_processor@DV?$string_output_adapter@D@__crt_stdio_output@@V?$format_validation_base@DV?$string_output_adapter@D@__crt_stdio_output@@@2@@__crt_stdio_output@@AAE_NXZ 1002f29e f i libucrt:output.obj
 0001:0002e44e       ?type_case_a@?$output_processor@DV?$string_output_adapter@D@__crt_stdio_output@@V?$positional_parameter_base@DV?$string_output_adapter@D@__crt_stdio_output@@@2@@__crt_stdio_output@@AAE_NXZ 1002f44e f i libucrt:output.obj
 0001:0002e625       ?type_case_a@?$output_processor@DV?$string_output_adapter@D@__crt_stdio_output@@V?$standard_base@DV?$string_output_adapter@D@__crt_stdio_output@@@2@@__crt_stdio_output@@AAE_NXZ 1002f625 f i libucrt:output.obj
 0001:0002e7d5       ?type_case_a@?$output_processor@_WV?$stream_output_adapter@_W@__crt_stdio_output@@V?$format_validation_base@_WV?$stream_output_adapter@_W@__crt_stdio_output@@@2@@__crt_stdio_output@@AAE_NXZ 1002f7d5 f i libucrt:output.obj
 0001:0002e9a3       ?type_case_a@?$output_processor@_WV?$stream_output_adapter@_W@__crt_stdio_output@@V?$positional_parameter_base@_WV?$stream_output_adapter@_W@__crt_stdio_output@@@2@@__crt_stdio_output@@AAE_NXZ 1002f9a3 f i libucrt:output.obj
 0001:0002eb98       ?type_case_a@?$output_processor@_WV?$stream_output_adapter@_W@__crt_stdio_output@@V?$standard_base@_WV?$stream_output_adapter@_W@__crt_stdio_output@@@2@@__crt_stdio_output@@AAE_NXZ 1002fb98 f i libucrt:output.obj
 0001:0002ed66       ?type_case_a@?$output_processor@_WV?$string_output_adapter@_W@__crt_stdio_output@@V?$format_validation_base@_WV?$string_output_adapter@_W@__crt_stdio_output@@@2@@__crt_stdio_output@@AAE_NXZ 1002fd66 f i libucrt:output.obj
 0001:0002ef34       ?type_case_a@?$output_processor@_WV?$string_output_adapter@_W@__crt_stdio_output@@V?$positional_parameter_base@_WV?$string_output_adapter@_W@__crt_stdio_output@@@2@@__crt_stdio_output@@AAE_NXZ 1002ff34 f i libucrt:output.obj
 0001:0002f129       ?type_case_a@?$output_processor@_WV?$string_output_adapter@_W@__crt_stdio_output@@V?$standard_base@_WV?$string_output_adapter@_W@__crt_stdio_output@@@2@@__crt_stdio_output@@AAE_NXZ 10030129 f i libucrt:output.obj
 0001:0002f2f7       ?type_case_c@?$output_processor@DV?$stream_output_adapter@D@__crt_stdio_output@@V?$format_validation_base@DV?$stream_output_adapter@D@__crt_stdio_output@@@2@@__crt_stdio_output@@AAE_NXZ 100302f7 f i libucrt:output.obj
 0001:0002f301       ?type_case_c@?$output_processor@DV?$stream_output_adapter@D@__crt_stdio_output@@V?$positional_parameter_base@DV?$stream_output_adapter@D@__crt_stdio_output@@@2@@__crt_stdio_output@@AAE_NXZ 10030301 f i libucrt:output.obj
 0001:0002f30b       ?type_case_c@?$output_processor@DV?$stream_output_adapter@D@__crt_stdio_output@@V?$standard_base@DV?$stream_output_adapter@D@__crt_stdio_output@@@2@@__crt_stdio_output@@AAE_NXZ 1003030b f i libucrt:output.obj
 0001:0002f315       ?type_case_c@?$output_processor@DV?$string_output_adapter@D@__crt_stdio_output@@V?$format_validation_base@DV?$string_output_adapter@D@__crt_stdio_output@@@2@@__crt_stdio_output@@AAE_NXZ 10030315 f i libucrt:output.obj
 0001:0002f31f       ?type_case_c@?$output_processor@DV?$string_output_adapter@D@__crt_stdio_output@@V?$positional_parameter_base@DV?$string_output_adapter@D@__crt_stdio_output@@@2@@__crt_stdio_output@@AAE_NXZ 1003031f f i libucrt:output.obj
 0001:0002f329       ?type_case_c@?$output_processor@DV?$string_output_adapter@D@__crt_stdio_output@@V?$standard_base@DV?$string_output_adapter@D@__crt_stdio_output@@@2@@__crt_stdio_output@@AAE_NXZ 10030329 f i libucrt:output.obj
 0001:0002f333       ?type_case_c@?$output_processor@_WV?$stream_output_adapter@_W@__crt_stdio_output@@V?$format_validation_base@_WV?$stream_output_adapter@_W@__crt_stdio_output@@@2@@__crt_stdio_output@@AAE_NXZ 10030333 f i libucrt:output.obj
 0001:0002f33d       ?type_case_c@?$output_processor@_WV?$stream_output_adapter@_W@__crt_stdio_output@@V?$positional_parameter_base@_WV?$stream_output_adapter@_W@__crt_stdio_output@@@2@@__crt_stdio_output@@AAE_NXZ 1003033d f i libucrt:output.obj
 0001:0002f347       ?type_case_c@?$output_processor@_WV?$stream_output_adapter@_W@__crt_stdio_output@@V?$standard_base@_WV?$stream_output_adapter@_W@__crt_stdio_output@@@2@@__crt_stdio_output@@AAE_NXZ 10030347 f i libucrt:output.obj
 0001:0002f351       ?type_case_c@?$output_processor@_WV?$string_output_adapter@_W@__crt_stdio_output@@V?$format_validation_base@_WV?$string_output_adapter@_W@__crt_stdio_output@@@2@@__crt_stdio_output@@AAE_NXZ 10030351 f i libucrt:output.obj
 0001:0002f35b       ?type_case_c@?$output_processor@_WV?$string_output_adapter@_W@__crt_stdio_output@@V?$positional_parameter_base@_WV?$string_output_adapter@_W@__crt_stdio_output@@@2@@__crt_stdio_output@@AAE_NXZ 1003035b f i libucrt:output.obj
 0001:0002f365       ?type_case_c@?$output_processor@_WV?$string_output_adapter@_W@__crt_stdio_output@@V?$standard_base@_WV?$string_output_adapter@_W@__crt_stdio_output@@@2@@__crt_stdio_output@@AAE_NXZ 10030365 f i libucrt:output.obj
 0001:0002f36f       ?type_case_c_tchar@?$output_processor@DV?$stream_output_adapter@D@__crt_stdio_output@@V?$format_validation_base@DV?$stream_output_adapter@D@__crt_stdio_output@@@2@@__crt_stdio_output@@AAE_ND@Z 1003036f f i libucrt:output.obj
 0001:0002f423       ?type_case_c_tchar@?$output_processor@DV?$stream_output_adapter@D@__crt_stdio_output@@V?$positional_parameter_base@DV?$stream_output_adapter@D@__crt_stdio_output@@@2@@__crt_stdio_output@@AAE_ND@Z 10030423 f i libucrt:output.obj
 0001:0002f513       ?type_case_c_tchar@?$output_processor@DV?$stream_output_adapter@D@__crt_stdio_output@@V?$standard_base@DV?$stream_output_adapter@D@__crt_stdio_output@@@2@@__crt_stdio_output@@AAE_ND@Z 10030513 f i libucrt:output.obj
 0001:0002f5c7       ?type_case_c_tchar@?$output_processor@DV?$string_output_adapter@D@__crt_stdio_output@@V?$format_validation_base@DV?$string_output_adapter@D@__crt_stdio_output@@@2@@__crt_stdio_output@@AAE_ND@Z 100305c7 f i libucrt:output.obj
 0001:0002f67b       ?type_case_c_tchar@?$output_processor@DV?$string_output_adapter@D@__crt_stdio_output@@V?$positional_parameter_base@DV?$string_output_adapter@D@__crt_stdio_output@@@2@@__crt_stdio_output@@AAE_ND@Z 1003067b f i libucrt:output.obj
 0001:0002f76b       ?type_case_c_tchar@?$output_processor@DV?$string_output_adapter@D@__crt_stdio_output@@V?$standard_base@DV?$string_output_adapter@D@__crt_stdio_output@@@2@@__crt_stdio_output@@AAE_ND@Z 1003076b f i libucrt:output.obj
 0001:0002f81f       ?type_case_c_tchar@?$output_processor@_WV?$stream_output_adapter@_W@__crt_stdio_output@@V?$format_validation_base@_WV?$stream_output_adapter@_W@__crt_stdio_output@@@2@@__crt_stdio_output@@AAE_N_W@Z 1003081f f i libucrt:output.obj
 0001:0002f8dd       ?type_case_c_tchar@?$output_processor@_WV?$stream_output_adapter@_W@__crt_stdio_output@@V?$positional_parameter_base@_WV?$stream_output_adapter@_W@__crt_stdio_output@@@2@@__crt_stdio_output@@AAE_N_W@Z 100308dd f i libucrt:output.obj
 0001:0002f9b7       ?type_case_c_tchar@?$output_processor@_WV?$stream_output_adapter@_W@__crt_stdio_output@@V?$standard_base@_WV?$stream_output_adapter@_W@__crt_stdio_output@@@2@@__crt_stdio_output@@AAE_N_W@Z 100309b7 f i libucrt:output.obj
 0001:0002fa75       ?type_case_c_tchar@?$output_processor@_WV?$string_output_adapter@_W@__crt_stdio_output@@V?$format_validation_base@_WV?$string_output_adapter@_W@__crt_stdio_output@@@2@@__crt_stdio_output@@AAE_N_W@Z 10030a75 f i libucrt:output.obj
 0001:0002fb33       ?type_case_c_tchar@?$output_processor@_WV?$string_output_adapter@_W@__crt_stdio_output@@V?$positional_parameter_base@_WV?$string_output_adapter@_W@__crt_stdio_output@@@2@@__crt_stdio_output@@AAE_N_W@Z 10030b33 f i libucrt:output.obj
 0001:0002fc0d       ?type_case_c_tchar@?$output_processor@_WV?$string_output_adapter@_W@__crt_stdio_output@@V?$standard_base@_WV?$string_output_adapter@_W@__crt_stdio_output@@@2@@__crt_stdio_output@@AAE_N_W@Z 10030c0d f i libucrt:output.obj
 0001:0002fccb       ?type_case_d@?$output_processor@DV?$stream_output_adapter@D@__crt_stdio_output@@V?$format_validation_base@DV?$stream_output_adapter@D@__crt_stdio_output@@@2@@__crt_stdio_output@@AAE_NXZ 10030ccb f i libucrt:output.obj
 0001:0002fcdc       ?type_case_d@?$output_processor@DV?$stream_output_adapter@D@__crt_stdio_output@@V?$positional_parameter_base@DV?$stream_output_adapter@D@__crt_stdio_output@@@2@@__crt_stdio_output@@AAE_NXZ 10030cdc f i libucrt:output.obj
 0001:0002fced       ?type_case_d@?$output_processor@DV?$stream_output_adapter@D@__crt_stdio_output@@V?$standard_base@DV?$stream_output_adapter@D@__crt_stdio_output@@@2@@__crt_stdio_output@@AAE_NXZ 10030ced f i libucrt:output.obj
 0001:0002fcfe       ?type_case_d@?$output_processor@DV?$string_output_adapter@D@__crt_stdio_output@@V?$format_validation_base@DV?$string_output_adapter@D@__crt_stdio_output@@@2@@__crt_stdio_output@@AAE_NXZ 10030cfe f i libucrt:output.obj
 0001:0002fd0f       ?type_case_d@?$output_processor@DV?$string_output_adapter@D@__crt_stdio_output@@V?$positional_parameter_base@DV?$string_output_adapter@D@__crt_stdio_output@@@2@@__crt_stdio_output@@AAE_NXZ 10030d0f f i libucrt:output.obj
 0001:0002fd20       ?type_case_d@?$output_processor@DV?$string_output_adapter@D@__crt_stdio_output@@V?$standard_base@DV?$string_output_adapter@D@__crt_stdio_output@@@2@@__crt_stdio_output@@AAE_NXZ 10030d20 f i libucrt:output.obj
 0001:0002fd31       ?type_case_d@?$output_processor@_WV?$stream_output_adapter@_W@__crt_stdio_output@@V?$format_validation_base@_WV?$stream_output_adapter@_W@__crt_stdio_output@@@2@@__crt_stdio_output@@AAE_NXZ 10030d31 f i libucrt:output.obj
 0001:0002fd42       ?type_case_d@?$output_processor@_WV?$stream_output_adapter@_W@__crt_stdio_output@@V?$positional_parameter_base@_WV?$stream_output_adapter@_W@__crt_stdio_output@@@2@@__crt_stdio_output@@AAE_NXZ 10030d42 f i libucrt:output.obj
 0001:0002fd53       ?type_case_d@?$output_processor@_WV?$stream_output_adapter@_W@__crt_stdio_output@@V?$standard_base@_WV?$stream_output_adapter@_W@__crt_stdio_output@@@2@@__crt_stdio_output@@AAE_NXZ 10030d53 f i libucrt:output.obj
 0001:0002fd64       ?type_case_d@?$output_processor@_WV?$string_output_adapter@_W@__crt_stdio_output@@V?$format_validation_base@_WV?$string_output_adapter@_W@__crt_stdio_output@@@2@@__crt_stdio_output@@AAE_NXZ 10030d64 f i libucrt:output.obj
 0001:0002fd75       ?type_case_d@?$output_processor@_WV?$string_output_adapter@_W@__crt_stdio_output@@V?$positional_parameter_base@_WV?$string_output_adapter@_W@__crt_stdio_output@@@2@@__crt_stdio_output@@AAE_NXZ 10030d75 f i libucrt:output.obj
 0001:0002fd86       ?type_case_d@?$output_processor@_WV?$string_output_adapter@_W@__crt_stdio_output@@V?$standard_base@_WV?$string_output_adapter@_W@__crt_stdio_output@@@2@@__crt_stdio_output@@AAE_NXZ 10030d86 f i libucrt:output.obj
 0001:0002fd97       ?type_case_integer@?$output_processor@DV?$stream_output_adapter@D@__crt_stdio_output@@V?$format_validation_base@DV?$stream_output_adapter@D@__crt_stdio_output@@@2@@__crt_stdio_output@@AAE_NI_N@Z 10030d97 f i libucrt:output.obj
 0001:0002ff33       ?type_case_integer@?$output_processor@DV?$stream_output_adapter@D@__crt_stdio_output@@V?$positional_parameter_base@DV?$stream_output_adapter@D@__crt_stdio_output@@@2@@__crt_stdio_output@@AAE_NI_N@Z 10030f33 f i libucrt:output.obj
 0001:00030110       ?type_case_integer@?$output_processor@DV?$stream_output_adapter@D@__crt_stdio_output@@V?$standard_base@DV?$stream_output_adapter@D@__crt_stdio_output@@@2@@__crt_stdio_output@@AAE_NI_N@Z 10031110 f i libucrt:output.obj
 0001:000302ac       ?type_case_integer@?$output_processor@DV?$string_output_adapter@D@__crt_stdio_output@@V?$format_validation_base@DV?$string_output_adapter@D@__crt_stdio_output@@@2@@__crt_stdio_output@@AAE_NI_N@Z 100312ac f i libucrt:output.obj
 0001:00030448       ?type_case_integer@?$output_processor@DV?$string_output_adapter@D@__crt_stdio_output@@V?$positional_parameter_base@DV?$string_output_adapter@D@__crt_stdio_output@@@2@@__crt_stdio_output@@AAE_NI_N@Z 10031448 f i libucrt:output.obj
 0001:00030625       ?type_case_integer@?$output_processor@DV?$string_output_adapter@D@__crt_stdio_output@@V?$standard_base@DV?$string_output_adapter@D@__crt_stdio_output@@@2@@__crt_stdio_output@@AAE_NI_N@Z 10031625 f i libucrt:output.obj
 0001:000307c1       ?type_case_integer@?$output_processor@_WV?$stream_output_adapter@_W@__crt_stdio_output@@V?$format_validation_base@_WV?$stream_output_adapter@_W@__crt_stdio_output@@@2@@__crt_stdio_output@@AAE_NI_N@Z 100317c1 f i libucrt:output.obj
 0001:0003095d       ?type_case_integer@?$output_processor@_WV?$stream_output_adapter@_W@__crt_stdio_output@@V?$positional_parameter_base@_WV?$stream_output_adapter@_W@__crt_stdio_output@@@2@@__crt_stdio_output@@AAE_NI_N@Z 1003195d f i libucrt:output.obj
 0001:00030b3a       ?type_case_integer@?$output_processor@_WV?$stream_output_adapter@_W@__crt_stdio_output@@V?$standard_base@_WV?$stream_output_adapter@_W@__crt_stdio_output@@@2@@__crt_stdio_output@@AAE_NI_N@Z 10031b3a f i libucrt:output.obj
 0001:00030cd6       ?type_case_integer@?$output_processor@_WV?$string_output_adapter@_W@__crt_stdio_output@@V?$format_validation_base@_WV?$string_output_adapter@_W@__crt_stdio_output@@@2@@__crt_stdio_output@@AAE_NI_N@Z 10031cd6 f i libucrt:output.obj
 0001:00030e72       ?type_case_integer@?$output_processor@_WV?$string_output_adapter@_W@__crt_stdio_output@@V?$positional_parameter_base@_WV?$string_output_adapter@_W@__crt_stdio_output@@@2@@__crt_stdio_output@@AAE_NI_N@Z 10031e72 f i libucrt:output.obj
 0001:0003104f       ?type_case_integer@?$output_processor@_WV?$string_output_adapter@_W@__crt_stdio_output@@V?$standard_base@_WV?$string_output_adapter@_W@__crt_stdio_output@@@2@@__crt_stdio_output@@AAE_NI_N@Z 1003204f f i libucrt:output.obj
 0001:000311eb       ?type_case_n@?$output_processor@DV?$stream_output_adapter@D@__crt_stdio_output@@V?$format_validation_base@DV?$stream_output_adapter@D@__crt_stdio_output@@@2@@__crt_stdio_output@@AAE_NXZ 100321eb f i libucrt:output.obj
 0001:0003127c       ?type_case_n@?$output_processor@DV?$stream_output_adapter@D@__crt_stdio_output@@V?$positional_parameter_base@DV?$stream_output_adapter@D@__crt_stdio_output@@@2@@__crt_stdio_output@@AAE_NXZ 1003227c f i libucrt:output.obj
 0001:0003133b       ?type_case_n@?$output_processor@DV?$stream_output_adapter@D@__crt_stdio_output@@V?$standard_base@DV?$stream_output_adapter@D@__crt_stdio_output@@@2@@__crt_stdio_output@@AAE_NXZ 1003233b f i libucrt:output.obj
 0001:000313cc       ?type_case_n@?$output_processor@DV?$string_output_adapter@D@__crt_stdio_output@@V?$format_validation_base@DV?$string_output_adapter@D@__crt_stdio_output@@@2@@__crt_stdio_output@@AAE_NXZ 100323cc f i libucrt:output.obj
 0001:0003145d       ?type_case_n@?$output_processor@DV?$string_output_adapter@D@__crt_stdio_output@@V?$positional_parameter_base@DV?$string_output_adapter@D@__crt_stdio_output@@@2@@__crt_stdio_output@@AAE_NXZ 1003245d f i libucrt:output.obj
 0001:0003151c       ?type_case_n@?$output_processor@DV?$string_output_adapter@D@__crt_stdio_output@@V?$standard_base@DV?$string_output_adapter@D@__crt_stdio_output@@@2@@__crt_stdio_output@@AAE_NXZ 1003251c f i libucrt:output.obj
 0001:000315ad       ?type_case_n@?$output_processor@_WV?$stream_output_adapter@_W@__crt_stdio_output@@V?$format_validation_base@_WV?$stream_output_adapter@_W@__crt_stdio_output@@@2@@__crt_stdio_output@@AAE_NXZ 100325ad f i libucrt:output.obj
 0001:0003163e       ?type_case_n@?$output_processor@_WV?$stream_output_adapter@_W@__crt_stdio_output@@V?$positional_parameter_base@_WV?$stream_output_adapter@_W@__crt_stdio_output@@@2@@__crt_stdio_output@@AAE_NXZ 1003263e f i libucrt:output.obj
 0001:000316fd       ?type_case_n@?$output_processor@_WV?$stream_output_adapter@_W@__crt_stdio_output@@V?$standard_base@_WV?$stream_output_adapter@_W@__crt_stdio_output@@@2@@__crt_stdio_output@@AAE_NXZ 100326fd f i libucrt:output.obj
 0001:0003178e       ?type_case_n@?$output_processor@_WV?$string_output_adapter@_W@__crt_stdio_output@@V?$format_validation_base@_WV?$string_output_adapter@_W@__crt_stdio_output@@@2@@__crt_stdio_output@@AAE_NXZ 1003278e f i libucrt:output.obj
 0001:0003181f       ?type_case_n@?$output_processor@_WV?$string_output_adapter@_W@__crt_stdio_output@@V?$positional_parameter_base@_WV?$string_output_adapter@_W@__crt_stdio_output@@@2@@__crt_stdio_output@@AAE_NXZ 1003281f f i libucrt:output.obj
 0001:000318de       ?type_case_n@?$output_processor@_WV?$string_output_adapter@_W@__crt_stdio_output@@V?$standard_base@_WV?$string_output_adapter@_W@__crt_stdio_output@@@2@@__crt_stdio_output@@AAE_NXZ 100328de f i libucrt:output.obj
 0001:0003196f       ?type_case_o@?$output_processor@DV?$stream_output_adapter@D@__crt_stdio_output@@V?$format_validation_base@DV?$stream_output_adapter@D@__crt_stdio_output@@@2@@__crt_stdio_output@@AAE_NXZ 1003296f f i libucrt:output.obj
 0001:00031995       ?type_case_o@?$output_processor@DV?$stream_output_adapter@D@__crt_stdio_output@@V?$positional_parameter_base@DV?$stream_output_adapter@D@__crt_stdio_output@@@2@@__crt_stdio_output@@AAE_NXZ 10032995 f i libucrt:output.obj
 0001:000319bb       ?type_case_o@?$output_processor@DV?$stream_output_adapter@D@__crt_stdio_output@@V?$standard_base@DV?$stream_output_adapter@D@__crt_stdio_output@@@2@@__crt_stdio_output@@AAE_NXZ 100329bb f i libucrt:output.obj
 0001:000319e1       ?type_case_o@?$output_processor@DV?$string_output_adapter@D@__crt_stdio_output@@V?$format_validation_base@DV?$string_output_adapter@D@__crt_stdio_output@@@2@@__crt_stdio_output@@AAE_NXZ 100329e1 f i libucrt:output.obj
 0001:00031a07       ?type_case_o@?$output_processor@DV?$string_output_adapter@D@__crt_stdio_output@@V?$positional_parameter_base@DV?$string_output_adapter@D@__crt_stdio_output@@@2@@__crt_stdio_output@@AAE_NXZ 10032a07 f i libucrt:output.obj
 0001:00031a2d       ?type_case_o@?$output_processor@DV?$string_output_adapter@D@__crt_stdio_output@@V?$standard_base@DV?$string_output_adapter@D@__crt_stdio_output@@@2@@__crt_stdio_output@@AAE_NXZ 10032a2d f i libucrt:output.obj
 0001:00031a53       ?type_case_o@?$output_processor@_WV?$stream_output_adapter@_W@__crt_stdio_output@@V?$format_validation_base@_WV?$stream_output_adapter@_W@__crt_stdio_output@@@2@@__crt_stdio_output@@AAE_NXZ 10032a53 f i libucrt:output.obj
 0001:00031a79       ?type_case_o@?$output_processor@_WV?$stream_output_adapter@_W@__crt_stdio_output@@V?$positional_parameter_base@_WV?$stream_output_adapter@_W@__crt_stdio_output@@@2@@__crt_stdio_output@@AAE_NXZ 10032a79 f i libucrt:output.obj
 0001:00031a9f       ?type_case_o@?$output_processor@_WV?$stream_output_adapter@_W@__crt_stdio_output@@V?$standard_base@_WV?$stream_output_adapter@_W@__crt_stdio_output@@@2@@__crt_stdio_output@@AAE_NXZ 10032a9f f i libucrt:output.obj
 0001:00031ac5       ?type_case_o@?$output_processor@_WV?$string_output_adapter@_W@__crt_stdio_output@@V?$format_validation_base@_WV?$string_output_adapter@_W@__crt_stdio_output@@@2@@__crt_stdio_output@@AAE_NXZ 10032ac5 f i libucrt:output.obj
 0001:00031aeb       ?type_case_o@?$output_processor@_WV?$string_output_adapter@_W@__crt_stdio_output@@V?$positional_parameter_base@_WV?$string_output_adapter@_W@__crt_stdio_output@@@2@@__crt_stdio_output@@AAE_NXZ 10032aeb f i libucrt:output.obj
 0001:00031b11       ?type_case_o@?$output_processor@_WV?$string_output_adapter@_W@__crt_stdio_output@@V?$standard_base@_WV?$string_output_adapter@_W@__crt_stdio_output@@@2@@__crt_stdio_output@@AAE_NXZ 10032b11 f i libucrt:output.obj
 0001:00031b37       ?type_case_p@?$output_processor@DV?$stream_output_adapter@D@__crt_stdio_output@@V?$format_validation_base@DV?$stream_output_adapter@D@__crt_stdio_output@@@2@@__crt_stdio_output@@AAE_NXZ 10032b37 f i libucrt:output.obj
 0001:00031b55       ?type_case_p@?$output_processor@DV?$stream_output_adapter@D@__crt_stdio_output@@V?$positional_parameter_base@DV?$stream_output_adapter@D@__crt_stdio_output@@@2@@__crt_stdio_output@@AAE_NXZ 10032b55 f i libucrt:output.obj
 0001:00031b73       ?type_case_p@?$output_processor@DV?$stream_output_adapter@D@__crt_stdio_output@@V?$standard_base@DV?$stream_output_adapter@D@__crt_stdio_output@@@2@@__crt_stdio_output@@AAE_NXZ 10032b73 f i libucrt:output.obj
 0001:00031b91       ?type_case_p@?$output_processor@DV?$string_output_adapter@D@__crt_stdio_output@@V?$format_validation_base@DV?$string_output_adapter@D@__crt_stdio_output@@@2@@__crt_stdio_output@@AAE_NXZ 10032b91 f i libucrt:output.obj
 0001:00031baf       ?type_case_p@?$output_processor@DV?$string_output_adapter@D@__crt_stdio_output@@V?$positional_parameter_base@DV?$string_output_adapter@D@__crt_stdio_output@@@2@@__crt_stdio_output@@AAE_NXZ 10032baf f i libucrt:output.obj
 0001:00031bcd       ?type_case_p@?$output_processor@DV?$string_output_adapter@D@__crt_stdio_output@@V?$standard_base@DV?$string_output_adapter@D@__crt_stdio_output@@@2@@__crt_stdio_output@@AAE_NXZ 10032bcd f i libucrt:output.obj
 0001:00031beb       ?type_case_p@?$output_processor@_WV?$stream_output_adapter@_W@__crt_stdio_output@@V?$format_validation_base@_WV?$stream_output_adapter@_W@__crt_stdio_output@@@2@@__crt_stdio_output@@AAE_NXZ 10032beb f i libucrt:output.obj
 0001:00031c09       ?type_case_p@?$output_processor@_WV?$stream_output_adapter@_W@__crt_stdio_output@@V?$positional_parameter_base@_WV?$stream_output_adapter@_W@__crt_stdio_output@@@2@@__crt_stdio_output@@AAE_NXZ 10032c09 f i libucrt:output.obj
 0001:00031c27       ?type_case_p@?$output_processor@_WV?$stream_output_adapter@_W@__crt_stdio_output@@V?$standard_base@_WV?$stream_output_adapter@_W@__crt_stdio_output@@@2@@__crt_stdio_output@@AAE_NXZ 10032c27 f i libucrt:output.obj
 0001:00031c45       ?type_case_p@?$output_processor@_WV?$string_output_adapter@_W@__crt_stdio_output@@V?$format_validation_base@_WV?$string_output_adapter@_W@__crt_stdio_output@@@2@@__crt_stdio_output@@AAE_NXZ 10032c45 f i libucrt:output.obj
 0001:00031c63       ?type_case_p@?$output_processor@_WV?$string_output_adapter@_W@__crt_stdio_output@@V?$positional_parameter_base@_WV?$string_output_adapter@_W@__crt_stdio_output@@@2@@__crt_stdio_output@@AAE_NXZ 10032c63 f i libucrt:output.obj
 0001:00031c81       ?type_case_p@?$output_processor@_WV?$string_output_adapter@_W@__crt_stdio_output@@V?$standard_base@_WV?$string_output_adapter@_W@__crt_stdio_output@@@2@@__crt_stdio_output@@AAE_NXZ 10032c81 f i libucrt:output.obj
 0001:00031c9f       ?type_case_s@?$output_processor@DV?$stream_output_adapter@D@__crt_stdio_output@@V?$format_validation_base@DV?$stream_output_adapter@D@__crt_stdio_output@@@2@@__crt_stdio_output@@AAE_NXZ 10032c9f f i libucrt:output.obj
 0001:00031d2e       ?type_case_s@?$output_processor@DV?$stream_output_adapter@D@__crt_stdio_output@@V?$positional_parameter_base@DV?$stream_output_adapter@D@__crt_stdio_output@@@2@@__crt_stdio_output@@AAE_NXZ 10032d2e f i libucrt:output.obj
 0001:00031dc9       ?type_case_s@?$output_processor@DV?$stream_output_adapter@D@__crt_stdio_output@@V?$standard_base@DV?$stream_output_adapter@D@__crt_stdio_output@@@2@@__crt_stdio_output@@AAE_NXZ 10032dc9 f i libucrt:output.obj
 0001:00031e58       ?type_case_s@?$output_processor@DV?$string_output_adapter@D@__crt_stdio_output@@V?$format_validation_base@DV?$string_output_adapter@D@__crt_stdio_output@@@2@@__crt_stdio_output@@AAE_NXZ 10032e58 f i libucrt:output.obj
 0001:00031ee7       ?type_case_s@?$output_processor@DV?$string_output_adapter@D@__crt_stdio_output@@V?$positional_parameter_base@DV?$string_output_adapter@D@__crt_stdio_output@@@2@@__crt_stdio_output@@AAE_NXZ 10032ee7 f i libucrt:output.obj
 0001:00031f82       ?type_case_s@?$output_processor@DV?$string_output_adapter@D@__crt_stdio_output@@V?$standard_base@DV?$string_output_adapter@D@__crt_stdio_output@@@2@@__crt_stdio_output@@AAE_NXZ 10032f82 f i libucrt:output.obj
 0001:00032011       ?type_case_s@?$output_processor@_WV?$stream_output_adapter@_W@__crt_stdio_output@@V?$format_validation_base@_WV?$stream_output_adapter@_W@__crt_stdio_output@@@2@@__crt_stdio_output@@AAE_NXZ 10033011 f i libucrt:output.obj
 0001:000320a2       ?type_case_s@?$output_processor@_WV?$stream_output_adapter@_W@__crt_stdio_output@@V?$positional_parameter_base@_WV?$stream_output_adapter@_W@__crt_stdio_output@@@2@@__crt_stdio_output@@AAE_NXZ 100330a2 f i libucrt:output.obj
 0001:0003213f       ?type_case_s@?$output_processor@_WV?$stream_output_adapter@_W@__crt_stdio_output@@V?$standard_base@_WV?$stream_output_adapter@_W@__crt_stdio_output@@@2@@__crt_stdio_output@@AAE_NXZ 1003313f f i libucrt:output.obj
 0001:000321d0       ?type_case_s@?$output_processor@_WV?$string_output_adapter@_W@__crt_stdio_output@@V?$format_validation_base@_WV?$string_output_adapter@_W@__crt_stdio_output@@@2@@__crt_stdio_output@@AAE_NXZ 100331d0 f i libucrt:output.obj
 0001:00032261       ?type_case_s@?$output_processor@_WV?$string_output_adapter@_W@__crt_stdio_output@@V?$positional_parameter_base@_WV?$string_output_adapter@_W@__crt_stdio_output@@@2@@__crt_stdio_output@@AAE_NXZ 10033261 f i libucrt:output.obj
 0001:000322fe       ?type_case_s@?$output_processor@_WV?$string_output_adapter@_W@__crt_stdio_output@@V?$standard_base@_WV?$string_output_adapter@_W@__crt_stdio_output@@@2@@__crt_stdio_output@@AAE_NXZ 100332fe f i libucrt:output.obj
 0001:0003238f       ?type_case_s_compute_narrow_string_length@?$output_processor@DV?$stream_output_adapter@D@__crt_stdio_output@@V?$format_validation_base@DV?$stream_output_adapter@D@__crt_stdio_output@@@2@@__crt_stdio_output@@ABEHHD@Z 1003338f f i libucrt:output.obj
 0001:000323aa       ?type_case_s_compute_narrow_string_length@?$output_processor@DV?$stream_output_adapter@D@__crt_stdio_output@@V?$positional_parameter_base@DV?$stream_output_adapter@D@__crt_stdio_output@@@2@@__crt_stdio_output@@ABEHHD@Z 100333aa f i libucrt:output.obj
 0001:000323c5       ?type_case_s_compute_narrow_string_length@?$output_processor@DV?$stream_output_adapter@D@__crt_stdio_output@@V?$standard_base@DV?$stream_output_adapter@D@__crt_stdio_output@@@2@@__crt_stdio_output@@ABEHHD@Z 100333c5 f i libucrt:output.obj
 0001:000323e0       ?type_case_s_compute_narrow_string_length@?$output_processor@DV?$string_output_adapter@D@__crt_stdio_output@@V?$format_validation_base@DV?$string_output_adapter@D@__crt_stdio_output@@@2@@__crt_stdio_output@@ABEHHD@Z 100333e0 f i libucrt:output.obj
 0001:000323fb       ?type_case_s_compute_narrow_string_length@?$output_processor@DV?$string_output_adapter@D@__crt_stdio_output@@V?$positional_parameter_base@DV?$string_output_adapter@D@__crt_stdio_output@@@2@@__crt_stdio_output@@ABEHHD@Z 100333fb f i libucrt:output.obj
 0001:00032416       ?type_case_s_compute_narrow_string_length@?$output_processor@DV?$string_output_adapter@D@__crt_stdio_output@@V?$standard_base@DV?$string_output_adapter@D@__crt_stdio_output@@@2@@__crt_stdio_output@@ABEHHD@Z 10033416 f i libucrt:output.obj
 0001:00032431       ?type_case_s_compute_narrow_string_length@?$output_processor@_WV?$stream_output_adapter@_W@__crt_stdio_output@@V?$format_validation_base@_WV?$stream_output_adapter@_W@__crt_stdio_output@@@2@@__crt_stdio_output@@ABEHH_W@Z 10033431 f i libucrt:output.obj
 0001:00032481       ?type_case_s_compute_narrow_string_length@?$output_processor@_WV?$stream_output_adapter@_W@__crt_stdio_output@@V?$positional_parameter_base@_WV?$stream_output_adapter@_W@__crt_stdio_output@@@2@@__crt_stdio_output@@ABEHH_W@Z 10033481 f i libucrt:output.obj
 0001:000324d1       ?type_case_s_compute_narrow_string_length@?$output_processor@_WV?$stream_output_adapter@_W@__crt_stdio_output@@V?$standard_base@_WV?$stream_output_adapter@_W@__crt_stdio_output@@@2@@__crt_stdio_output@@ABEHH_W@Z 100334d1 f i libucrt:output.obj
 0001:00032521       ?type_case_s_compute_narrow_string_length@?$output_processor@_WV?$string_output_adapter@_W@__crt_stdio_output@@V?$format_validation_base@_WV?$string_output_adapter@_W@__crt_stdio_output@@@2@@__crt_stdio_output@@ABEHH_W@Z 10033521 f i libucrt:output.obj
 0001:00032571       ?type_case_s_compute_narrow_string_length@?$output_processor@_WV?$string_output_adapter@_W@__crt_stdio_output@@V?$positional_parameter_base@_WV?$string_output_adapter@_W@__crt_stdio_output@@@2@@__crt_stdio_output@@ABEHH_W@Z 10033571 f i libucrt:output.obj
 0001:000325c1       ?type_case_s_compute_narrow_string_length@?$output_processor@_WV?$string_output_adapter@_W@__crt_stdio_output@@V?$standard_base@_WV?$string_output_adapter@_W@__crt_stdio_output@@@2@@__crt_stdio_output@@ABEHH_W@Z 100335c1 f i libucrt:output.obj
 0001:00032611       ?type_case_u@?$output_processor@DV?$stream_output_adapter@D@__crt_stdio_output@@V?$format_validation_base@DV?$stream_output_adapter@D@__crt_stdio_output@@@2@@__crt_stdio_output@@AAE_NXZ 10033611 f i libucrt:output.obj
 0001:0003261d       ?type_case_u@?$output_processor@DV?$stream_output_adapter@D@__crt_stdio_output@@V?$positional_parameter_base@DV?$stream_output_adapter@D@__crt_stdio_output@@@2@@__crt_stdio_output@@AAE_NXZ 1003361d f i libucrt:output.obj
 0001:00032629       ?type_case_u@?$output_processor@DV?$stream_output_adapter@D@__crt_stdio_output@@V?$standard_base@DV?$stream_output_adapter@D@__crt_stdio_output@@@2@@__crt_stdio_output@@AAE_NXZ 10033629 f i libucrt:output.obj
 0001:00032635       ?type_case_u@?$output_processor@DV?$string_output_adapter@D@__crt_stdio_output@@V?$format_validation_base@DV?$string_output_adapter@D@__crt_stdio_output@@@2@@__crt_stdio_output@@AAE_NXZ 10033635 f i libucrt:output.obj
 0001:00032641       ?type_case_u@?$output_processor@DV?$string_output_adapter@D@__crt_stdio_output@@V?$positional_parameter_base@DV?$string_output_adapter@D@__crt_stdio_output@@@2@@__crt_stdio_output@@AAE_NXZ 10033641 f i libucrt:output.obj
 0001:0003264d       ?type_case_u@?$output_processor@DV?$string_output_adapter@D@__crt_stdio_output@@V?$standard_base@DV?$string_output_adapter@D@__crt_stdio_output@@@2@@__crt_stdio_output@@AAE_NXZ 1003364d f i libucrt:output.obj
 0001:00032659       ?type_case_u@?$output_processor@_WV?$stream_output_adapter@_W@__crt_stdio_output@@V?$format_validation_base@_WV?$stream_output_adapter@_W@__crt_stdio_output@@@2@@__crt_stdio_output@@AAE_NXZ 10033659 f i libucrt:output.obj
 0001:00032665       ?type_case_u@?$output_processor@_WV?$stream_output_adapter@_W@__crt_stdio_output@@V?$positional_parameter_base@_WV?$stream_output_adapter@_W@__crt_stdio_output@@@2@@__crt_stdio_output@@AAE_NXZ 10033665 f i libucrt:output.obj
 0001:00032671       ?type_case_u@?$output_processor@_WV?$stream_output_adapter@_W@__crt_stdio_output@@V?$standard_base@_WV?$stream_output_adapter@_W@__crt_stdio_output@@@2@@__crt_stdio_output@@AAE_NXZ 10033671 f i libucrt:output.obj
 0001:0003267d       ?type_case_u@?$output_processor@_WV?$string_output_adapter@_W@__crt_stdio_output@@V?$format_validation_base@_WV?$string_output_adapter@_W@__crt_stdio_output@@@2@@__crt_stdio_output@@AAE_NXZ 1003367d f i libucrt:output.obj
 0001:00032689       ?type_case_u@?$output_processor@_WV?$string_output_adapter@_W@__crt_stdio_output@@V?$positional_parameter_base@_WV?$string_output_adapter@_W@__crt_stdio_output@@@2@@__crt_stdio_output@@AAE_NXZ 10033689 f i libucrt:output.obj
 0001:00032695       ?type_case_u@?$output_processor@_WV?$string_output_adapter@_W@__crt_stdio_output@@V?$standard_base@_WV?$string_output_adapter@_W@__crt_stdio_output@@@2@@__crt_stdio_output@@AAE_NXZ 10033695 f i libucrt:output.obj
 0001:000326a1       ?type_case_x@?$output_processor@DV?$stream_output_adapter@D@__crt_stdio_output@@V?$format_validation_base@DV?$stream_output_adapter@D@__crt_stdio_output@@@2@@__crt_stdio_output@@AAE_NXZ 100336a1 f i libucrt:output.obj
 0001:000326ad       ?type_case_x@?$output_processor@DV?$stream_output_adapter@D@__crt_stdio_output@@V?$positional_parameter_base@DV?$stream_output_adapter@D@__crt_stdio_output@@@2@@__crt_stdio_output@@AAE_NXZ 100336ad f i libucrt:output.obj
 0001:000326b9       ?type_case_x@?$output_processor@DV?$stream_output_adapter@D@__crt_stdio_output@@V?$standard_base@DV?$stream_output_adapter@D@__crt_stdio_output@@@2@@__crt_stdio_output@@AAE_NXZ 100336b9 f i libucrt:output.obj
 0001:000326c5       ?type_case_x@?$output_processor@DV?$string_output_adapter@D@__crt_stdio_output@@V?$format_validation_base@DV?$string_output_adapter@D@__crt_stdio_output@@@2@@__crt_stdio_output@@AAE_NXZ 100336c5 f i libucrt:output.obj
 0001:000326d1       ?type_case_x@?$output_processor@DV?$string_output_adapter@D@__crt_stdio_output@@V?$positional_parameter_base@DV?$string_output_adapter@D@__crt_stdio_output@@@2@@__crt_stdio_output@@AAE_NXZ 100336d1 f i libucrt:output.obj
 0001:000326dd       ?type_case_x@?$output_processor@DV?$string_output_adapter@D@__crt_stdio_output@@V?$standard_base@DV?$string_output_adapter@D@__crt_stdio_output@@@2@@__crt_stdio_output@@AAE_NXZ 100336dd f i libucrt:output.obj
 0001:000326e9       ?type_case_x@?$output_processor@_WV?$stream_output_adapter@_W@__crt_stdio_output@@V?$format_validation_base@_WV?$stream_output_adapter@_W@__crt_stdio_output@@@2@@__crt_stdio_output@@AAE_NXZ 100336e9 f i libucrt:output.obj
 0001:000326f5       ?type_case_x@?$output_processor@_WV?$stream_output_adapter@_W@__crt_stdio_output@@V?$positional_parameter_base@_WV?$stream_output_adapter@_W@__crt_stdio_output@@@2@@__crt_stdio_output@@AAE_NXZ 100336f5 f i libucrt:output.obj
 0001:00032701       ?type_case_x@?$output_processor@_WV?$stream_output_adapter@_W@__crt_stdio_output@@V?$standard_base@_WV?$stream_output_adapter@_W@__crt_stdio_output@@@2@@__crt_stdio_output@@AAE_NXZ 10033701 f i libucrt:output.obj
 0001:0003270d       ?type_case_x@?$output_processor@_WV?$string_output_adapter@_W@__crt_stdio_output@@V?$format_validation_base@_WV?$string_output_adapter@_W@__crt_stdio_output@@@2@@__crt_stdio_output@@AAE_NXZ 1003370d f i libucrt:output.obj
 0001:00032719       ?type_case_x@?$output_processor@_WV?$string_output_adapter@_W@__crt_stdio_output@@V?$positional_parameter_base@_WV?$string_output_adapter@_W@__crt_stdio_output@@@2@@__crt_stdio_output@@AAE_NXZ 10033719 f i libucrt:output.obj
 0001:00032725       ?type_case_x@?$output_processor@_WV?$string_output_adapter@_W@__crt_stdio_output@@V?$standard_base@_WV?$string_output_adapter@_W@__crt_stdio_output@@@2@@__crt_stdio_output@@AAE_NXZ 10033725 f i libucrt:output.obj
 0001:00032731       ?unset_flag@?$output_processor@DV?$stream_output_adapter@D@__crt_stdio_output@@V?$format_validation_base@DV?$stream_output_adapter@D@__crt_stdio_output@@@2@@__crt_stdio_output@@AAEXI@Z 10033731 f i libucrt:output.obj
 0001:00032746       ?unset_flag@?$output_processor@DV?$stream_output_adapter@D@__crt_stdio_output@@V?$positional_parameter_base@DV?$stream_output_adapter@D@__crt_stdio_output@@@2@@__crt_stdio_output@@AAEXI@Z 10033746 f i libucrt:output.obj
 0001:0003275b       ?unset_flag@?$output_processor@DV?$stream_output_adapter@D@__crt_stdio_output@@V?$standard_base@DV?$stream_output_adapter@D@__crt_stdio_output@@@2@@__crt_stdio_output@@AAEXI@Z 1003375b f i libucrt:output.obj
 0001:00032770       ?unset_flag@?$output_processor@DV?$string_output_adapter@D@__crt_stdio_output@@V?$format_validation_base@DV?$string_output_adapter@D@__crt_stdio_output@@@2@@__crt_stdio_output@@AAEXI@Z 10033770 f i libucrt:output.obj
 0001:00032785       ?unset_flag@?$output_processor@DV?$string_output_adapter@D@__crt_stdio_output@@V?$positional_parameter_base@DV?$string_output_adapter@D@__crt_stdio_output@@@2@@__crt_stdio_output@@AAEXI@Z 10033785 f i libucrt:output.obj
 0001:0003279a       ?unset_flag@?$output_processor@DV?$string_output_adapter@D@__crt_stdio_output@@V?$standard_base@DV?$string_output_adapter@D@__crt_stdio_output@@@2@@__crt_stdio_output@@AAEXI@Z 1003379a f i libucrt:output.obj
 0001:000327af       ?unset_flag@?$output_processor@_WV?$stream_output_adapter@_W@__crt_stdio_output@@V?$format_validation_base@_WV?$stream_output_adapter@_W@__crt_stdio_output@@@2@@__crt_stdio_output@@AAEXI@Z 100337af f i libucrt:output.obj
 0001:000327c4       ?unset_flag@?$output_processor@_WV?$stream_output_adapter@_W@__crt_stdio_output@@V?$positional_parameter_base@_WV?$stream_output_adapter@_W@__crt_stdio_output@@@2@@__crt_stdio_output@@AAEXI@Z 100337c4 f i libucrt:output.obj
 0001:000327d9       ?unset_flag@?$output_processor@_WV?$stream_output_adapter@_W@__crt_stdio_output@@V?$standard_base@_WV?$stream_output_adapter@_W@__crt_stdio_output@@@2@@__crt_stdio_output@@AAEXI@Z 100337d9 f i libucrt:output.obj
 0001:000327ee       ?unset_flag@?$output_processor@_WV?$string_output_adapter@_W@__crt_stdio_output@@V?$format_validation_base@_WV?$string_output_adapter@_W@__crt_stdio_output@@@2@@__crt_stdio_output@@AAEXI@Z 100337ee f i libucrt:output.obj
 0001:00032803       ?unset_flag@?$output_processor@_WV?$string_output_adapter@_W@__crt_stdio_output@@V?$positional_parameter_base@_WV?$string_output_adapter@_W@__crt_stdio_output@@@2@@__crt_stdio_output@@AAEXI@Z 10033803 f i libucrt:output.obj
 0001:00032818       ?unset_flag@?$output_processor@_WV?$string_output_adapter@_W@__crt_stdio_output@@V?$standard_base@_WV?$string_output_adapter@_W@__crt_stdio_output@@@2@@__crt_stdio_output@@AAEXI@Z 10033818 f i libucrt:output.obj
 0001:0003282d       ?update_field_width@?$positional_parameter_base@DV?$stream_output_adapter@D@__crt_stdio_output@@@__crt_stdio_output@@IAE_NXZ 1003382d f i libucrt:output.obj
 0001:00032910       ?update_field_width@?$positional_parameter_base@DV?$string_output_adapter@D@__crt_stdio_output@@@__crt_stdio_output@@IAE_NXZ 10033910 f i libucrt:output.obj
 0001:000329f3       ?update_field_width@?$positional_parameter_base@_WV?$stream_output_adapter@_W@__crt_stdio_output@@@__crt_stdio_output@@IAE_NXZ 100339f3 f i libucrt:output.obj
 0001:00032ad7       ?update_field_width@?$positional_parameter_base@_WV?$string_output_adapter@_W@__crt_stdio_output@@@__crt_stdio_output@@IAE_NXZ 10033ad7 f i libucrt:output.obj
 0001:00032bbb       ?update_field_width@?$standard_base@DV?$stream_output_adapter@D@__crt_stdio_output@@@__crt_stdio_output@@IAE_NXZ 10033bbb f i libucrt:output.obj
 0001:00032bcf       ?update_field_width@?$standard_base@DV?$string_output_adapter@D@__crt_stdio_output@@@__crt_stdio_output@@IAE_NXZ 10033bcf f i libucrt:output.obj
 0001:00032be3       ?update_field_width@?$standard_base@_WV?$stream_output_adapter@_W@__crt_stdio_output@@@__crt_stdio_output@@IAE_NXZ 10033be3 f i libucrt:output.obj
 0001:00032bf7       ?update_field_width@?$standard_base@_WV?$string_output_adapter@_W@__crt_stdio_output@@@__crt_stdio_output@@IAE_NXZ 10033bf7 f i libucrt:output.obj
 0001:00032c0b       ?update_precision@?$positional_parameter_base@DV?$stream_output_adapter@D@__crt_stdio_output@@@__crt_stdio_output@@IAE_NXZ 10033c0b f i libucrt:output.obj
 0001:00032cee       ?update_precision@?$positional_parameter_base@DV?$string_output_adapter@D@__crt_stdio_output@@@__crt_stdio_output@@IAE_NXZ 10033cee f i libucrt:output.obj
 0001:00032dd1       ?update_precision@?$positional_parameter_base@_WV?$stream_output_adapter@_W@__crt_stdio_output@@@__crt_stdio_output@@IAE_NXZ 10033dd1 f i libucrt:output.obj
 0001:00032eb5       ?update_precision@?$positional_parameter_base@_WV?$string_output_adapter@_W@__crt_stdio_output@@@__crt_stdio_output@@IAE_NXZ 10033eb5 f i libucrt:output.obj
 0001:00032f99       ?update_precision@?$standard_base@DV?$stream_output_adapter@D@__crt_stdio_output@@@__crt_stdio_output@@IAE_NXZ 10033f99 f i libucrt:output.obj
 0001:00032fad       ?update_precision@?$standard_base@DV?$string_output_adapter@D@__crt_stdio_output@@@__crt_stdio_output@@IAE_NXZ 10033fad f i libucrt:output.obj
 0001:00032fc1       ?update_precision@?$standard_base@_WV?$stream_output_adapter@_W@__crt_stdio_output@@@__crt_stdio_output@@IAE_NXZ 10033fc1 f i libucrt:output.obj
 0001:00032fd5       ?update_precision@?$standard_base@_WV?$string_output_adapter@_W@__crt_stdio_output@@@__crt_stdio_output@@IAE_NXZ 10033fd5 f i libucrt:output.obj
 0001:00032fe9       ?validate@?$stream_output_adapter@D@__crt_stdio_output@@QBE_NXZ 10033fe9 f i libucrt:output.obj
 0001:00033012       ?validate@?$stream_output_adapter@_W@__crt_stdio_output@@QBE_NXZ 10034012 f i libucrt:output.obj
 0001:00033033       ?validate@?$string_output_adapter@D@__crt_stdio_output@@QBE_NXZ 10034033 f i libucrt:output.obj
 0001:00033054       ?validate@?$string_output_adapter@_W@__crt_stdio_output@@QBE_NXZ 10034054 f i libucrt:output.obj
 0001:00033075       ?validate_and_store_parameter_data@?$positional_parameter_base@DV?$stream_output_adapter@D@__crt_stdio_output@@@__crt_stdio_output@@AAE_NAAUparameter_data@12@W4parameter_type@12@DW4length_modifier@2@@Z 10034075 f i libucrt:output.obj
 0001:000330d2       ?validate_and_store_parameter_data@?$positional_parameter_base@DV?$string_output_adapter@D@__crt_stdio_output@@@__crt_stdio_output@@AAE_NAAUparameter_data@12@W4parameter_type@12@DW4length_modifier@2@@Z 100340d2 f i libucrt:output.obj
 0001:0003312f       ?validate_and_store_parameter_data@?$positional_parameter_base@_WV?$stream_output_adapter@_W@__crt_stdio_output@@@__crt_stdio_output@@AAE_NAAUparameter_data@12@W4parameter_type@12@_WW4length_modifier@2@@Z 1003412f f i libucrt:output.obj
 0001:0003318f       ?validate_and_store_parameter_data@?$positional_parameter_base@_WV?$string_output_adapter@_W@__crt_stdio_output@@@__crt_stdio_output@@AAE_NAAUparameter_data@12@W4parameter_type@12@_WW4length_modifier@2@@Z 1003418f f i libucrt:output.obj
 0001:000331ef       ?validate_and_update_state_at_beginning_of_format_character@?$positional_parameter_base@DV?$stream_output_adapter@D@__crt_stdio_output@@@__crt_stdio_output@@IAE_NXZ 100341ef f i libucrt:output.obj
 0001:00033325       ?validate_and_update_state_at_beginning_of_format_character@?$positional_parameter_base@DV?$string_output_adapter@D@__crt_stdio_output@@@__crt_stdio_output@@IAE_NXZ 10034325 f i libucrt:output.obj
 0001:0003345b       ?validate_and_update_state_at_beginning_of_format_character@?$positional_parameter_base@_WV?$stream_output_adapter@_W@__crt_stdio_output@@@__crt_stdio_output@@IAE_NXZ 1003445b f i libucrt:output.obj
 0001:0003359d       ?validate_and_update_state_at_beginning_of_format_character@?$positional_parameter_base@_WV?$string_output_adapter@_W@__crt_stdio_output@@@__crt_stdio_output@@IAE_NXZ 1003459d f i libucrt:output.obj
 0001:000336df       ?validate_and_update_state_at_beginning_of_format_character@?$standard_base@DV?$stream_output_adapter@D@__crt_stdio_output@@@__crt_stdio_output@@IAE_NXZ 100346df f i libucrt:output.obj
 0001:000336e2       ?validate_and_update_state_at_beginning_of_format_character@?$standard_base@DV?$string_output_adapter@D@__crt_stdio_output@@@__crt_stdio_output@@IAE_NXZ 100346e2 f i libucrt:output.obj
 0001:000336e5       ?validate_and_update_state_at_beginning_of_format_character@?$standard_base@_WV?$stream_output_adapter@_W@__crt_stdio_output@@@__crt_stdio_output@@IAE_NXZ 100346e5 f i libucrt:output.obj
 0001:000336e8       ?validate_and_update_state_at_beginning_of_format_character@?$standard_base@_WV?$string_output_adapter@_W@__crt_stdio_output@@@__crt_stdio_output@@IAE_NXZ 100346e8 f i libucrt:output.obj
 0001:000336eb       ?validate_and_update_state_at_end_of_format_string@?$format_validation_base@DV?$stream_output_adapter@D@__crt_stdio_output@@@__crt_stdio_output@@IBE_NXZ 100346eb f i libucrt:output.obj
 0001:00033715       ?validate_and_update_state_at_end_of_format_string@?$format_validation_base@DV?$string_output_adapter@D@__crt_stdio_output@@@__crt_stdio_output@@IBE_NXZ 10034715 f i libucrt:output.obj
 0001:0003373f       ?validate_and_update_state_at_end_of_format_string@?$format_validation_base@_WV?$stream_output_adapter@_W@__crt_stdio_output@@@__crt_stdio_output@@IBE_NXZ 1003473f f i libucrt:output.obj
 0001:00033769       ?validate_and_update_state_at_end_of_format_string@?$format_validation_base@_WV?$string_output_adapter@_W@__crt_stdio_output@@@__crt_stdio_output@@IBE_NXZ 10034769 f i libucrt:output.obj
 0001:00033793       ?validate_and_update_state_at_end_of_format_string@?$positional_parameter_base@DV?$stream_output_adapter@D@__crt_stdio_output@@@__crt_stdio_output@@IAE_NXZ 10034793 f i libucrt:output.obj
 0001:00033833       ?validate_and_update_state_at_end_of_format_string@?$positional_parameter_base@DV?$string_output_adapter@D@__crt_stdio_output@@@__crt_stdio_output@@IAE_NXZ 10034833 f i libucrt:output.obj
 0001:000338d3       ?validate_and_update_state_at_end_of_format_string@?$positional_parameter_base@_WV?$stream_output_adapter@_W@__crt_stdio_output@@@__crt_stdio_output@@IAE_NXZ 100348d3 f i libucrt:output.obj
 0001:00033973       ?validate_and_update_state_at_end_of_format_string@?$positional_parameter_base@_WV?$string_output_adapter@_W@__crt_stdio_output@@@__crt_stdio_output@@IAE_NXZ 10034973 f i libucrt:output.obj
 0001:00033a13       ?validate_and_update_state_at_end_of_format_string@?$standard_base@DV?$stream_output_adapter@D@__crt_stdio_output@@@__crt_stdio_output@@IBE_NXZ 10034a13 f i libucrt:output.obj
 0001:00033a16       ?validate_and_update_state_at_end_of_format_string@?$standard_base@DV?$string_output_adapter@D@__crt_stdio_output@@@__crt_stdio_output@@IBE_NXZ 10034a16 f i libucrt:output.obj
 0001:00033a19       ?validate_and_update_state_at_end_of_format_string@?$standard_base@_WV?$stream_output_adapter@_W@__crt_stdio_output@@@__crt_stdio_output@@IBE_NXZ 10034a19 f i libucrt:output.obj
 0001:00033a1c       ?validate_and_update_state_at_end_of_format_string@?$standard_base@_WV?$string_output_adapter@_W@__crt_stdio_output@@@__crt_stdio_output@@IBE_NXZ 10034a1c f i libucrt:output.obj
 0001:00033a1f       ?validate_state_for_type_case_a@?$positional_parameter_base@DV?$stream_output_adapter@D@__crt_stdio_output@@@__crt_stdio_output@@IAE_NXZ 10034a1f f i libucrt:output.obj
 0001:00033a86       ?validate_state_for_type_case_a@?$positional_parameter_base@DV?$string_output_adapter@D@__crt_stdio_output@@@__crt_stdio_output@@IAE_NXZ 10034a86 f i libucrt:output.obj
 0001:00033aed       ?validate_state_for_type_case_a@?$positional_parameter_base@_WV?$stream_output_adapter@_W@__crt_stdio_output@@@__crt_stdio_output@@IAE_NXZ 10034aed f i libucrt:output.obj
 0001:00033b54       ?validate_state_for_type_case_a@?$positional_parameter_base@_WV?$string_output_adapter@_W@__crt_stdio_output@@@__crt_stdio_output@@IAE_NXZ 10034b54 f i libucrt:output.obj
 0001:00033bbb       ?validate_state_for_type_case_a@?$standard_base@DV?$stream_output_adapter@D@__crt_stdio_output@@@__crt_stdio_output@@IBE_NXZ 10034bbb f i libucrt:output.obj
 0001:00033bbe       ?validate_state_for_type_case_a@?$standard_base@DV?$string_output_adapter@D@__crt_stdio_output@@@__crt_stdio_output@@IBE_NXZ 10034bbe f i libucrt:output.obj
 0001:00033bc1       ?validate_state_for_type_case_a@?$standard_base@_WV?$stream_output_adapter@_W@__crt_stdio_output@@@__crt_stdio_output@@IBE_NXZ 10034bc1 f i libucrt:output.obj
 0001:00033bc4       ?validate_state_for_type_case_a@?$standard_base@_WV?$string_output_adapter@_W@__crt_stdio_output@@@__crt_stdio_output@@IBE_NXZ 10034bc4 f i libucrt:output.obj
 0001:00033bc7       ?validate_stream_is_ansi_if_required@?$__acrt_stdio_char_traits@D@@SA_NQAU_iobuf@@@Z 10034bc7 f i libucrt:output.obj
 0001:00033c69       ?validate_stream_is_ansi_if_required@?$__acrt_stdio_char_traits@_W@@SA_NQAU_iobuf@@@Z 10034c69 f i libucrt:output.obj
 0001:00033c6c       ?wide_null_string@?$output_processor@DV?$stream_output_adapter@D@__crt_stdio_output@@V?$format_validation_base@DV?$stream_output_adapter@D@__crt_stdio_output@@@2@@__crt_stdio_output@@CAPA_WXZ 10034c6c f i libucrt:output.obj
 0001:00033c72       ?wide_null_string@?$output_processor@DV?$stream_output_adapter@D@__crt_stdio_output@@V?$positional_parameter_base@DV?$stream_output_adapter@D@__crt_stdio_output@@@2@@__crt_stdio_output@@CAPA_WXZ 10034c72 f i libucrt:output.obj
 0001:00033c78       ?wide_null_string@?$output_processor@DV?$stream_output_adapter@D@__crt_stdio_output@@V?$standard_base@DV?$stream_output_adapter@D@__crt_stdio_output@@@2@@__crt_stdio_output@@CAPA_WXZ 10034c78 f i libucrt:output.obj
 0001:00033c7e       ?wide_null_string@?$output_processor@DV?$string_output_adapter@D@__crt_stdio_output@@V?$format_validation_base@DV?$string_output_adapter@D@__crt_stdio_output@@@2@@__crt_stdio_output@@CAPA_WXZ 10034c7e f i libucrt:output.obj
 0001:00033c84       ?wide_null_string@?$output_processor@DV?$string_output_adapter@D@__crt_stdio_output@@V?$positional_parameter_base@DV?$string_output_adapter@D@__crt_stdio_output@@@2@@__crt_stdio_output@@CAPA_WXZ 10034c84 f i libucrt:output.obj
 0001:00033c8a       ?wide_null_string@?$output_processor@DV?$string_output_adapter@D@__crt_stdio_output@@V?$standard_base@DV?$string_output_adapter@D@__crt_stdio_output@@@2@@__crt_stdio_output@@CAPA_WXZ 10034c8a f i libucrt:output.obj
 0001:00033c90       ?wide_null_string@?$output_processor@_WV?$stream_output_adapter@_W@__crt_stdio_output@@V?$format_validation_base@_WV?$stream_output_adapter@_W@__crt_stdio_output@@@2@@__crt_stdio_output@@CAPA_WXZ 10034c90 f i libucrt:output.obj
 0001:00033c96       ?wide_null_string@?$output_processor@_WV?$stream_output_adapter@_W@__crt_stdio_output@@V?$positional_parameter_base@_WV?$stream_output_adapter@_W@__crt_stdio_output@@@2@@__crt_stdio_output@@CAPA_WXZ 10034c96 f i libucrt:output.obj
 0001:00033c9c       ?wide_null_string@?$output_processor@_WV?$stream_output_adapter@_W@__crt_stdio_output@@V?$standard_base@_WV?$stream_output_adapter@_W@__crt_stdio_output@@@2@@__crt_stdio_output@@CAPA_WXZ 10034c9c f i libucrt:output.obj
 0001:00033ca2       ?wide_null_string@?$output_processor@_WV?$string_output_adapter@_W@__crt_stdio_output@@V?$format_validation_base@_WV?$string_output_adapter@_W@__crt_stdio_output@@@2@@__crt_stdio_output@@CAPA_WXZ 10034ca2 f i libucrt:output.obj
 0001:00033ca8       ?wide_null_string@?$output_processor@_WV?$string_output_adapter@_W@__crt_stdio_output@@V?$positional_parameter_base@_WV?$string_output_adapter@_W@__crt_stdio_output@@@2@@__crt_stdio_output@@CAPA_WXZ 10034ca8 f i libucrt:output.obj
 0001:00033cae       ?wide_null_string@?$output_processor@_WV?$string_output_adapter@_W@__crt_stdio_output@@V?$standard_base@_WV?$string_output_adapter@_W@__crt_stdio_output@@@2@@__crt_stdio_output@@CAPA_WXZ 10034cae f i libucrt:output.obj
 0001:00033cb4       ?write_character@?$stream_output_adapter@D@__crt_stdio_output@@QBEXDQAH@Z 10034cb4 f i libucrt:output.obj
 0001:00033d00       ?write_character@?$stream_output_adapter@_W@__crt_stdio_output@@QBEX_WQAH@Z 10034d00 f i libucrt:output.obj
 0001:00033d50       ?write_character@?$string_output_adapter@D@__crt_stdio_output@@QBE_NDQAH@Z 10034d50 f i libucrt:output.obj
 0001:00033da2       ?write_character@?$string_output_adapter@_W@__crt_stdio_output@@QBE_N_WQAH@Z 10034da2 f i libucrt:output.obj
 0001:00033df8       ?write_stored_string_tchar@?$output_processor@DV?$stream_output_adapter@D@__crt_stdio_output@@V?$format_validation_base@DV?$stream_output_adapter@D@__crt_stdio_output@@@2@@__crt_stdio_output@@AAE_ND@Z 10034df8 f i libucrt:output.obj
 0001:00033ec8       ?write_stored_string_tchar@?$output_processor@DV?$stream_output_adapter@D@__crt_stdio_output@@V?$positional_parameter_base@DV?$stream_output_adapter@D@__crt_stdio_output@@@2@@__crt_stdio_output@@AAE_ND@Z 10034ec8 f i libucrt:output.obj
 0001:00033f98       ?write_stored_string_tchar@?$output_processor@DV?$stream_output_adapter@D@__crt_stdio_output@@V?$standard_base@DV?$stream_output_adapter@D@__crt_stdio_output@@@2@@__crt_stdio_output@@AAE_ND@Z 10034f98 f i libucrt:output.obj
 0001:00034068       ?write_stored_string_tchar@?$output_processor@DV?$string_output_adapter@D@__crt_stdio_output@@V?$format_validation_base@DV?$string_output_adapter@D@__crt_stdio_output@@@2@@__crt_stdio_output@@AAE_ND@Z 10035068 f i libucrt:output.obj
 0001:00034138       ?write_stored_string_tchar@?$output_processor@DV?$string_output_adapter@D@__crt_stdio_output@@V?$positional_parameter_base@DV?$string_output_adapter@D@__crt_stdio_output@@@2@@__crt_stdio_output@@AAE_ND@Z 10035138 f i libucrt:output.obj
 0001:00034208       ?write_stored_string_tchar@?$output_processor@DV?$string_output_adapter@D@__crt_stdio_output@@V?$standard_base@DV?$string_output_adapter@D@__crt_stdio_output@@@2@@__crt_stdio_output@@AAE_ND@Z 10035208 f i libucrt:output.obj
 0001:000342d8       ?write_stored_string_tchar@?$output_processor@_WV?$stream_output_adapter@_W@__crt_stdio_output@@V?$format_validation_base@_WV?$stream_output_adapter@_W@__crt_stdio_output@@@2@@__crt_stdio_output@@AAE_N_W@Z 100352d8 f i libucrt:output.obj
 0001:00034385       ?write_stored_string_tchar@?$output_processor@_WV?$stream_output_adapter@_W@__crt_stdio_output@@V?$positional_parameter_base@_WV?$stream_output_adapter@_W@__crt_stdio_output@@@2@@__crt_stdio_output@@AAE_N_W@Z 10035385 f i libucrt:output.obj
 0001:00034432       ?write_stored_string_tchar@?$output_processor@_WV?$stream_output_adapter@_W@__crt_stdio_output@@V?$standard_base@_WV?$stream_output_adapter@_W@__crt_stdio_output@@@2@@__crt_stdio_output@@AAE_N_W@Z 10035432 f i libucrt:output.obj
 0001:000344df       ?write_stored_string_tchar@?$output_processor@_WV?$string_output_adapter@_W@__crt_stdio_output@@V?$format_validation_base@_WV?$string_output_adapter@_W@__crt_stdio_output@@@2@@__crt_stdio_output@@AAE_N_W@Z 100354df f i libucrt:output.obj
 0001:0003458c       ?write_stored_string_tchar@?$output_processor@_WV?$string_output_adapter@_W@__crt_stdio_output@@V?$positional_parameter_base@_WV?$string_output_adapter@_W@__crt_stdio_output@@@2@@__crt_stdio_output@@AAE_N_W@Z 1003558c f i libucrt:output.obj
 0001:00034639       ?write_stored_string_tchar@?$output_processor@_WV?$string_output_adapter@_W@__crt_stdio_output@@V?$standard_base@_WV?$string_output_adapter@_W@__crt_stdio_output@@@2@@__crt_stdio_output@@AAE_N_W@Z 10035639 f i libucrt:output.obj
 0001:000346e6       ?write_string@?$stream_output_adapter@D@__crt_stdio_output@@QBEXQBDHQAH1@Z 100356e6 f i libucrt:output.obj
 0001:00034792       ?write_string@?$stream_output_adapter@_W@__crt_stdio_output@@QBEXQB_WHQAH1@Z 10035792 f i libucrt:output.obj
 0001:00034842       ?write_string@?$string_output_adapter@D@__crt_stdio_output@@QBEXQBDHQAH1@Z 10035842 f i libucrt:output.obj
 0001:000348f9       ?write_string@?$string_output_adapter@_W@__crt_stdio_output@@QBEXQB_WHQAH1@Z 100358f9 f i libucrt:output.obj
 0001:000349b9       ___acrt_isleadbyte_l_noupdate 100359b9 f i libucrt:output.obj
 0001:000349da       ___acrt_locale_changed     100359da f i libucrt:output.obj
 0001:000349eb       ___stdio_common_vfprintf   100359eb f   libucrt:output.obj
 0001:00034a7f       ___stdio_common_vfprintf_p 10035a7f f   libucrt:output.obj
 0001:00034b13       ___stdio_common_vfprintf_s 10035b13 f   libucrt:output.obj
 0001:00034ba7       ___stdio_common_vfwprintf  10035ba7 f   libucrt:output.obj
 0001:00034c3b       ___stdio_common_vfwprintf_p 10035c3b f   libucrt:output.obj
 0001:00034ccf       ___stdio_common_vfwprintf_s 10035ccf f   libucrt:output.obj
 0001:00034d63       ___stdio_common_vsnprintf_s 10035d63 f   libucrt:output.obj
 0001:00034d93       ___stdio_common_vsnwprintf_s 10035d93 f   libucrt:output.obj
 0001:00034dc3       ___stdio_common_vsprintf   10035dc3 f   libucrt:output.obj
 0001:00034df0       ___stdio_common_vsprintf_p 10035df0 f   libucrt:output.obj
 0001:00034e1d       ___stdio_common_vsprintf_s 10035e1d f   libucrt:output.obj
 0001:00034e4a       ___stdio_common_vswprintf  10035e4a f   libucrt:output.obj
 0001:00034e77       ___stdio_common_vswprintf_p 10035e77 f   libucrt:output.obj
 0001:00034ea4       ___stdio_common_vswprintf_s 10035ea4 f   libucrt:output.obj
 0001:00034ed1       _ldexp                     10035ed1 f   libucrt:ldexp.obj
 0001:00035131       ??$__vcrt_va_start_verify_argument_type@QB_W@@YAXXZ 10036131 f i libucrt:assert.obj
 0001:000360ce       ??$ftprintf@PAU_iobuf@@PBDABQBDABQBDABI@?$__crt_char_traits@D@@SAH$$QAPAU_iobuf@@$$QAPBDABQBD2ABI@Z 100370ce f i libucrt:assert.obj
 0001:00036100       ??$ftprintf@PAU_iobuf@@PB_WABQB_WABQB_WABI@?$__crt_char_traits@_W@@SAH$$QAPAU_iobuf@@$$QAPB_WABQB_W2ABI@Z 10037100 f i libucrt:assert.obj
 0001:00036132       ??$get_module_file_name@AAPAUHINSTANCE__@@AAY0BAF@DK@?$__crt_char_traits@D@@SAKAAPAUHINSTANCE__@@AAY0BAF@D$$QAK@Z 10037132 f i libucrt:assert.obj
 0001:00036152       ??$get_module_file_name@AAPAUHINSTANCE__@@AAY0BAF@_WK@?$__crt_char_traits@_W@@SAKAAPAUHINSTANCE__@@AAY0BAF@_W$$QAK@Z 10037152 f i libucrt:assert.obj
 0001:00036172       ??$itot_s@ABIQAD$$CBIH@?$__crt_char_traits@D@@SAHABI$$QBQAD$$QBI$$QAH@Z 10037172 f i libucrt:assert.obj
 0001:0003619d       ??$itot_s@ABIQA_W$$CBIH@?$__crt_char_traits@_W@@SAHABI$$QBQA_W$$QBI$$QAH@Z 1003719d f i libucrt:assert.obj
 0001:000361c8       ??$show_message_box@AAY0CEA@DPBDJ@?$__crt_char_traits@D@@SAHAAY0CEA@D$$QAPBD$$QAJ@Z 100371c8 f i libucrt:assert.obj
 0001:000361eb       ??$show_message_box@AAY0CEA@_WPB_WJ@?$__crt_char_traits@_W@@SAHAAY0CEA@_W$$QAPB_W$$QAJ@Z 100371eb f i libucrt:assert.obj
 0001:0003620e       ??$tcscat_s@ABQADABIAAPAD@?$__crt_char_traits@D@@SAHABQADABIAAPAD@Z 1003720e f i libucrt:assert.obj
 0001:00036233       ??$tcscat_s@ABQADABIABQBD@?$__crt_char_traits@D@@SAHABQADABIABQBD@Z 10037233 f i libucrt:assert.obj
 0001:00036258       ??$tcscat_s@ABQADABIPBD@?$__crt_char_traits@D@@SAHABQADABI$$QAPBD@Z 10037258 f i libucrt:assert.obj
 0001:0003627d       ??$tcscat_s@ABQA_WABIAAPA_W@?$__crt_char_traits@_W@@SAHABQA_WABIAAPA_W@Z 1003727d f i libucrt:assert.obj
 0001:000362a2       ??$tcscat_s@ABQA_WABIABQB_W@?$__crt_char_traits@_W@@SAHABQA_WABIABQB_W@Z 100372a2 f i libucrt:assert.obj
 0001:000362c7       ??$tcscat_s@ABQA_WABIPB_W@?$__crt_char_traits@_W@@SAHABQA_WABI$$QAPB_W@Z 100372c7 f i libucrt:assert.obj
 0001:000362ec       ??$tcscpy_s@AAY0BAF@DIPBD@?$__crt_char_traits@D@@SAHAAY0BAF@D$$QAI$$QAPBD@Z 100372ec f i libucrt:assert.obj
 0001:0003630f       ??$tcscpy_s@AAY0BAF@_WIPB_W@?$__crt_char_traits@_W@@SAHAAY0BAF@_W$$QAI$$QAPB_W@Z 1003730f f i libucrt:assert.obj
 0001:00036332       ??$tcscpy_s@ABQADABIPBD@?$__crt_char_traits@D@@SAHABQADABI$$QAPBD@Z 10037332 f i libucrt:assert.obj
 0001:00036357       ??$tcscpy_s@ABQA_WABIPB_W@?$__crt_char_traits@_W@@SAHABQA_WABI$$QAPB_W@Z 10037357 f i libucrt:assert.obj
 0001:0003637c       ??$tcslen@AAY0BAF@D@?$__crt_char_traits@D@@SAIAAY0BAF@D@Z 1003737c f i libucrt:assert.obj
 0001:00036397       ??$tcslen@AAY0BAF@_W@?$__crt_char_traits@_W@@SAIAAY0BAF@_W@Z 10037397 f i libucrt:assert.obj
 0001:000363ba       ??$tcslen@ABQAD@?$__crt_char_traits@D@@SAIABQAD@Z 100373ba f i libucrt:assert.obj
 0001:000363d8       ??$tcslen@ABQA_W@?$__crt_char_traits@_W@@SAIABQA_W@Z 100373d8 f i libucrt:assert.obj
 0001:000363fd       ??$tcslen@ABQBD@?$__crt_char_traits@D@@SAIABQBD@Z 100373fd f i libucrt:assert.obj
 0001:0003641b       ??$tcslen@ABQB_W@?$__crt_char_traits@_W@@SAIABQB_W@Z 1003741b f i libucrt:assert.obj
 0001:00036440       ??$tcsncat_s@ABQADABIAAPBD$$CBI@?$__crt_char_traits@D@@SAHABQADABIAAPBD$$QBI@Z 10037440 f i libucrt:assert.obj
 0001:0003646b       ??$tcsncat_s@ABQADABIABQBDABI@?$__crt_char_traits@D@@SAHABQADABIABQBD1@Z 1003746b f i libucrt:assert.obj
 0001:00036496       ??$tcsncat_s@ABQADABIPBD$$CBI@?$__crt_char_traits@D@@SAHABQADABI$$QAPBD$$QBI@Z 10037496 f i libucrt:assert.obj
 0001:000364c1       ??$tcsncat_s@ABQA_WABIAAPB_W$$CBI@?$__crt_char_traits@_W@@SAHABQA_WABIAAPB_W$$QBI@Z 100374c1 f i libucrt:assert.obj
 0001:000364ec       ??$tcsncat_s@ABQA_WABIABQB_WABI@?$__crt_char_traits@_W@@SAHABQA_WABIABQB_W1@Z 100374ec f i libucrt:assert.obj
 0001:00036517       ??$tcsncat_s@ABQA_WABIPB_W$$CBI@?$__crt_char_traits@_W@@SAHABQA_WABI$$QAPB_W$$QBI@Z 10037517 f i libucrt:assert.obj
 0001:000366bc       __assert                   100376bc f   libucrt:assert.obj
 0001:00036716       __invoke_watson_if_error   10037716 f i libucrt:assert.obj
 0001:00036740       __vfwprintf_l              10037740 f i libucrt:assert.obj
 0001:0003676e       __vswprintf_c_l            1003776e f i libucrt:assert.obj
 0001:000367a8       __wassert                  100377a8 f   libucrt:assert.obj
 0001:00036802       _fwprintf                  10037802 f i libucrt:assert.obj
 0001:000368c4       _swprintf                  100378c4 f i libucrt:assert.obj
 0001:000368e9       __errcode                  100378e9 f   libucrt:fpexcept.obj
 0001:0003692a       __except1                  1003792a f   libucrt:fpexcept.obj
 0001:00036a2b       __except2                  10037a2b f   libucrt:fpexcept.obj
 0001:00036b74       __handle_exc               10037b74 f   libucrt:fpexcept.obj
 0001:00036dcc       __handle_qnan2             10037dcc f   libucrt:fpexcept.obj
 0001:00036ddc       __raise_exc                10037ddc f   libucrt:fpexcept.obj
 0001:00036e07       __raise_exc_ex             10037e07 f   libucrt:fpexcept.obj
 0001:000371b4       __raise_excf               100381b4 f   libucrt:fpexcept.obj
 0001:000371df       __set_errno_from_matherr   100381df f   libucrt:fpexcept.obj
 0001:00037219       __umatherr                 10038219 f   libucrt:fpexcept.obj
 0001:000372e3       __initterm                 100382e3 f   libucrt:initterm.obj
 0001:00037356       __initterm_e               10038356 f   libucrt:initterm.obj
 0001:000373d9       __seh_filter_dll           100383d9 f   libucrt:exception_filter.obj
 0001:00037401       __seh_filter_exe           10038401 f   libucrt:exception_filter.obj
 0001:000375d0       ??$?RE@__crt_internal_free_policy@@QBEXQBE@Z 100385d0 f i libucrt:argv_parsing.obj
 0001:000375e6       ??$?RPAD@__crt_internal_free_policy@@QBEXQBQAD@Z 100385e6 f i libucrt:argv_parsing.obj
 0001:000375fc       ??$?RPA_W@__crt_internal_free_policy@@QBEXQBQA_W@Z 100385fc f i libucrt:argv_parsing.obj
 0001:000378e5       ??$get_module_file_name@$$TAAY0BAF@DH@?$__crt_char_traits@D@@SAK$$QA$$TAAY0BAF@D$$QAH@Z 100388e5 f i libucrt:argv_parsing.obj
 0001:00037905       ??$get_module_file_name@$$TAAY0BAF@_WH@?$__crt_char_traits@_W@@SAK$$QA$$TAAY0BAF@_W$$QAH@Z 10038905 f i libucrt:argv_parsing.obj
 0001:00037cde       ??$set_program_name@PAD@?$__crt_char_traits@D@@SAX$$QAPAD@Z 10038cde f i libucrt:argv_parsing.obj
 0001:00037cf3       ??$set_program_name@PA_W@?$__crt_char_traits@_W@@SAX$$QAPA_W@Z 10038cf3 f i libucrt:argv_parsing.obj
 0001:00037d30       ??0?$__crt_unique_heap_ptr@EU__crt_internal_free_policy@@@@QAE@QAE@Z 10038d30 f i libucrt:argv_parsing.obj
 0001:00037d44       ??0?$__crt_unique_heap_ptr@PADU__crt_internal_free_policy@@@@QAE@QAPAD@Z 10038d44 f i libucrt:argv_parsing.obj
 0001:00037d58       ??0?$__crt_unique_heap_ptr@PA_WU__crt_internal_free_policy@@@@QAE@QAPA_W@Z 10038d58 f i libucrt:argv_parsing.obj
 0001:00037d6c       ??1?$__crt_unique_heap_ptr@EU__crt_internal_free_policy@@@@QAE@XZ 10038d6c f i libucrt:argv_parsing.obj
 0001:00037d82       ??1?$__crt_unique_heap_ptr@PADU__crt_internal_free_policy@@@@QAE@XZ 10038d82 f i libucrt:argv_parsing.obj
 0001:00037d98       ??1?$__crt_unique_heap_ptr@PA_WU__crt_internal_free_policy@@@@QAE@XZ 10038d98 f i libucrt:argv_parsing.obj
 0001:00037dae       ??B?$__crt_unique_heap_ptr@EU__crt_internal_free_policy@@@@QBE_NXZ 10038dae f i libucrt:argv_parsing.obj
 0001:00037dee       ?detach@?$__crt_unique_heap_ptr@EU__crt_internal_free_policy@@@@QAEPAEXZ 10038dee f i libucrt:argv_parsing.obj
 0001:00037df4       ?detach@?$__crt_unique_heap_ptr@PADU__crt_internal_free_policy@@@@QAEPAPADXZ 10038df4 f i libucrt:argv_parsing.obj
 0001:00037dfa       ?detach@?$__crt_unique_heap_ptr@PA_WU__crt_internal_free_policy@@@@QAEPAPA_WXZ 10038dfa f i libucrt:argv_parsing.obj
 0001:00037e20       ?get@?$__crt_unique_heap_ptr@EU__crt_internal_free_policy@@@@QBEPAEXZ 10038e20 f i libucrt:argv_parsing.obj
 0001:00037e23       ?get@?$__crt_unique_heap_ptr@PADU__crt_internal_free_policy@@@@QBEPAPADXZ 10038e23 f i libucrt:argv_parsing.obj
 0001:00037e26       ?get@?$__crt_unique_heap_ptr@PA_WU__crt_internal_free_policy@@@@QBEPAPA_WXZ 10038e26 f i libucrt:argv_parsing.obj
 0001:00037e29       ?get_address_of@?$__crt_unique_heap_ptr@PADU__crt_internal_free_policy@@@@QAEPAPAPADXZ 10038e29 f i libucrt:argv_parsing.obj
 0001:00037e2c       ?get_address_of@?$__crt_unique_heap_ptr@PA_WU__crt_internal_free_policy@@@@QAEPAPAPA_WXZ 10038e2c f i libucrt:argv_parsing.obj
 0001:00037e47       ?is_valid@?$__crt_unique_heap_ptr@EU__crt_internal_free_policy@@@@QBE_NXZ 10038e47 f i libucrt:argv_parsing.obj
 0001:00037e51       ?release@?$__crt_unique_heap_ptr@EU__crt_internal_free_policy@@@@QAEXXZ 10038e51 f i libucrt:argv_parsing.obj
 0001:00037e67       ?release@?$__crt_unique_heap_ptr@PADU__crt_internal_free_policy@@@@QAEXXZ 10038e67 f i libucrt:argv_parsing.obj
 0001:00037e7d       ?release@?$__crt_unique_heap_ptr@PA_WU__crt_internal_free_policy@@@@QAEXXZ 10038e7d f i libucrt:argv_parsing.obj
 0001:00037eb4       ___acrt_allocate_buffer_for_argv 10038eb4 f   libucrt:argv_parsing.obj
 0001:00037f1e       __configure_narrow_argv    10038f1e f   libucrt:argv_parsing.obj
 0001:00037f2b       __configure_wide_argv      10038f2b f   libucrt:argv_parsing.obj
 0001:00037f38       __set_pgmptr               10038f38 f i libucrt:argv_parsing.obj
 0001:00037f4a       __set_wpgmptr              10038f4a f i libucrt:argv_parsing.obj
 0001:00038424       ??$get_environment_from_os@$$$V@?$__crt_char_traits@D@@SAPADXZ 10039424 f i libucrt:environment_initialization.obj
 0001:00038429       ??$get_environment_from_os@$$$V@?$__crt_char_traits@_W@@SAPA_WXZ 10039429 f i libucrt:environment_initialization.obj
 0001:00038563       ??$set_variable_in_environment_nolock@PADH@?$__crt_char_traits@D@@SAH$$QAPAD$$QAH@Z 10039563 f i libucrt:environment_initialization.obj
 0001:00038581       ??$set_variable_in_environment_nolock@PA_WH@?$__crt_char_traits@_W@@SAH$$QAPA_W$$QAH@Z 10039581 f i libucrt:environment_initialization.obj
 0001:0003859f       ??$tcscpy_s@PADABIAAPAD@?$__crt_char_traits@D@@SAH$$QAPADABIAAPAD@Z 1003959f f i libucrt:environment_initialization.obj
 0001:000385c4       ??$tcscpy_s@PA_WABIAAPA_W@?$__crt_char_traits@_W@@SAH$$QAPA_WABIAAPA_W@Z 100395c4 f i libucrt:environment_initialization.obj
 0001:000385e9       ??$tcslen@AAPAD@?$__crt_char_traits@D@@SAIAAPAD@Z 100395e9 f i libucrt:environment_initialization.obj
 0001:00038607       ??$tcslen@AAPA_W@?$__crt_char_traits@_W@@SAIAAPA_W@Z 10039607 f i libucrt:environment_initialization.obj
 0001:0003862c       ??$uninitialize@A6AXAAPAPAD@Z@?$dual_state_global@PAPAD@__crt_state_management@@QAEXA6AXAAPAPAD@Z@Z 1003962c f i libucrt:environment_initialization.obj
 0001:0003867c       ??$uninitialize@A6AXAAPAPA_W@Z@?$dual_state_global@PAPA_W@__crt_state_management@@QAEXA6AXAAPAPA_W@Z@Z 1003967c f i libucrt:environment_initialization.obj
 0001:0003870e       ??B?$__crt_unique_heap_ptr@PADU__crt_internal_free_policy@@@@QBE_NXZ 1003970e f i libucrt:environment_initialization.obj
 0001:00038718       ??B?$__crt_unique_heap_ptr@PA_WU__crt_internal_free_policy@@@@QBE_NXZ 10039718 f i libucrt:environment_initialization.obj
 0001:00038722       ??B?$__crt_unique_heap_ptr@_WU__crt_internal_free_policy@@@@QBE_NXZ 10039722 f i libucrt:environment_initialization.obj
 0001:0003872c       ?__crt_compute_required_transform_buffer_count@@YAIIQBD@Z 1003972c f i libucrt:environment_initialization.obj
 0001:0003874c       ?__crt_compute_required_transform_buffer_count@@YAIIQB_W@Z 1003974c f i libucrt:environment_initialization.obj
 0001:0003876f       ?__crt_transform_string@@YAIIQBDQA_WI@Z 1003976f f i libucrt:environment_initialization.obj
 0001:00038793       ?__crt_transform_string@@YAIIQB_WQADI@Z 10039793 f i libucrt:environment_initialization.obj
 0001:000387bb       ?detach@?$__crt_unique_heap_ptr@DU__crt_internal_free_policy@@@@QAEPADXZ 100397bb f i libucrt:environment_initialization.obj
 0001:000387c1       ?detach@?$__crt_unique_heap_ptr@_WU__crt_internal_free_policy@@@@QAEPA_WXZ 100397c1 f i libucrt:environment_initialization.obj
 0001:000387c7       ?get_current_state_index@__crt_state_management@@YAIXZ 100397c7 f i libucrt:environment_initialization.obj
 0001:000387ee       ?initialize@?$dual_state_global@PAPAD@__crt_state_management@@QAEXQAPAD@Z 100397ee f i libucrt:environment_initialization.obj
 0001:0003882b       ?initialize@?$dual_state_global@PAPA_W@__crt_state_management@@QAEXQAPA_W@Z 1003982b f i libucrt:environment_initialization.obj
 0001:00038868       ?is_valid@?$__crt_unique_heap_ptr@PADU__crt_internal_free_policy@@@@QBE_NXZ 10039868 f i libucrt:environment_initialization.obj
 0001:00038872       ?is_valid@?$__crt_unique_heap_ptr@PA_WU__crt_internal_free_policy@@@@QBE_NXZ 10039872 f i libucrt:environment_initialization.obj
 0001:0003887c       ?is_valid@?$__crt_unique_heap_ptr@_WU__crt_internal_free_policy@@@@QBE_NXZ 1003987c f i libucrt:environment_initialization.obj
 0001:0003888c       ?value@?$dual_state_global@PAPAD@__crt_state_management@@QAEAAPAPADXZ 1003988c f i libucrt:environment_initialization.obj
 0001:0003888f       ?value@?$dual_state_global@PAPA_W@__crt_state_management@@QAEAAPAPA_WXZ 1003988f f i libucrt:environment_initialization.obj
 0001:00038892       ___dcrt_get_or_create_narrow_environment_nolock 10039892 f   libucrt:environment_initialization.obj
 0001:00038897       ___dcrt_get_or_create_wide_environment_nolock 10039897 f   libucrt:environment_initialization.obj
 0001:0003889c       ___dcrt_uninitialize_environments_nolock 1003989c f   libucrt:environment_initialization.obj
 0001:000388e0       ___p__environ              100398e0 f   libucrt:environment_initialization.obj
 0001:000388e6       ___p__wenviron             100398e6 f   libucrt:environment_initialization.obj
 0001:000388ec       __get_initial_narrow_environment 100398ec f   libucrt:environment_initialization.obj
 0001:00038905       __get_initial_wide_environment 10039905 f   libucrt:environment_initialization.obj
 0001:0003891e       __initialize_narrow_environment 1003991e f   libucrt:environment_initialization.obj
 0001:00038923       __initialize_wide_environment 10039923 f   libucrt:environment_initialization.obj
 0001:00038928       ??$?BP6AXXZ@__crt_fast_encoded_nullptr_t@@QBEPAP6AXXZXZ 10039928 f i libucrt:onexit.obj
 0001:00038946       ??$?RP6AXXZ@__crt_internal_free_policy@@QBEXQBQ6AXXZ@Z 10039946 f i libucrt:onexit.obj
 0001:0003895c       ??$?RV<lambda_800076c951b434888f4765a74a194fcc>@@AAV<lambda_4e60a939b0d047cfe11ddc22648dfba9>@@V<lambda_6dbb1268764f43b569ce7b67e331d33a>@@@?$__crt_seh_guarded_call@H@@QAEH$$QAV<lambda_800076c951b434888f4765a74a194fcc>@@AAV<lambda_4e60a939b0d047cfe11ddc22648dfba9>@@$$QAV<lambda_6dbb1268764f43b569ce7b67e331d33a>@@@Z 1003995c f i libucrt:onexit.obj
 0001:000389c1       ??$?RV<lambda_995298e7d72eb4c2aab26c0585b3abe5>@@AAV<lambda_275893d493268fdec8709772e3fcec0e>@@V<lambda_293819299cbf9a7022e18b56a874bb5c>@@@?$__crt_seh_guarded_call@H@@QAEH$$QAV<lambda_995298e7d72eb4c2aab26c0585b3abe5>@@AAV<lambda_275893d493268fdec8709772e3fcec0e>@@$$QAV<lambda_293819299cbf9a7022e18b56a874bb5c>@@@Z 100399c1 f i libucrt:onexit.obj
 0001:00038a26       ??$__acrt_lock_and_call@V<lambda_275893d493268fdec8709772e3fcec0e>@@@@YAHW4__acrt_lock_id@@$$QAV<lambda_275893d493268fdec8709772e3fcec0e>@@@Z 10039a26 f i libucrt:onexit.obj
 0001:00038a58       ??$__acrt_lock_and_call@V<lambda_4e60a939b0d047cfe11ddc22648dfba9>@@@@YAHW4__acrt_lock_id@@$$QAV<lambda_4e60a939b0d047cfe11ddc22648dfba9>@@@Z 10039a58 f i libucrt:onexit.obj
 0001:00038a8a       ??$__crt_fast_encode_pointer@P6AHXZ@@YAP6AHXZQ6AHXZ@Z 10039a8a f i libucrt:onexit.obj
 0001:00038b37       ??0?$__crt_unique_heap_ptr@P6AXXZU__crt_internal_free_policy@@@@QAE@QAP6AXXZ@Z 10039b37 f i libucrt:onexit.obj
 0001:00038b4b       ??1?$__crt_unique_heap_ptr@P6AXXZU__crt_internal_free_policy@@@@QAE@XZ 10039b4b f i libucrt:onexit.obj
 0001:00038e86       ?detach@?$__crt_unique_heap_ptr@P6AXXZU__crt_internal_free_policy@@@@QAEPAP6AXXZXZ 10039e86 f i libucrt:onexit.obj
 0001:00038e8c       ?release@?$__crt_unique_heap_ptr@P6AXXZU__crt_internal_free_policy@@@@QAEXXZ 10039e8c f i libucrt:onexit.obj
 0001:00038ea2       __crt_at_quick_exit        10039ea2 f   libucrt:onexit.obj
 0001:00038ebd       __crt_atexit               10039ebd f   libucrt:onexit.obj
 0001:00038ed8       __execute_onexit_table     10039ed8 f   libucrt:onexit.obj
 0001:00038efc       __initialize_onexit_table  10039efc f   libucrt:onexit.obj
 0001:00038f48       __register_onexit_function 10039f48 f   libucrt:onexit.obj
 0001:000390af       ?initialize@?$dual_state_global@PAU__crt_locale_data@@@__crt_state_management@@QAEXQAU__crt_locale_data@@@Z 1003a0af f i libucrt:initialization.obj
 0001:000390ec       ___acrt_initialize         1003a0ec f   libucrt:initialization.obj
 0001:00039102       ___acrt_thread_attach      1003a102 f   libucrt:initialization.obj
 0001:0003910f       ___acrt_thread_detach      1003a10f f   libucrt:initialization.obj
 0001:00039119       ___acrt_uninitialize       1003a119 f   libucrt:initialization.obj
 0001:0003912f       ___acrt_uninitialize_critical 1003a12f f   libucrt:initialization.obj
 0001:00039160       __get_terminate            1003a160 f   libucrt:terminate.obj
 0001:00039176       _set_terminate             1003a176 f   libucrt:terminate.obj
 0001:0003919e       _terminate                 1003a19e f   libucrt:terminate.obj
 0001:000391e9       ??$__crt_interlocked_exchange_pointer@X$$T@@YAPAXPDSAX$$T@Z 1003a1e9 f i libucrt:free_base.obj
 0001:00039201       ___acrt_get_msvcrt_heap_handle 1003a201 f   libucrt:free_base.obj
 0001:00039292       __free_base                1003a292 f   libucrt:free_base.obj
 0001:000392da       __malloc_base              1003a2da f   libucrt:malloc_base.obj
 0001:000393ab       _strcpy_s                  1003a3ab f   libucrt:strcpy_s.obj
 0001:0003941b       __set_abort_behavior       1003a41b f   libucrt:abort.obj
 0001:00039444       _abort                     1003a444 f   libucrt:abort.obj
 0001:00039497       __calloc_base              1003a497 f   libucrt:calloc_base.obj
 0001:0003950b       ??$is_overflow_condition@K@__crt_strtox@@YA_NIK@Z 1003a50b f i libucrt:atox.obj
 0001:0003954a       ??$is_overflow_condition@_K@__crt_strtox@@YA_NI_K@Z 1003a54a f i libucrt:atox.obj
 0001:0003959d       ??$make_c_string_character_source@D$$T@__crt_strtox@@YA?AV?$c_string_character_source@D@0@QBD$$T@Z 1003a59d f i libucrt:atox.obj
 0001:000395be       ??$make_c_string_character_source@_W$$T@__crt_strtox@@YA?AV?$c_string_character_source@_W@0@QB_W$$T@Z 1003a5be f i libucrt:atox.obj
 0001:000395df       ??$parse_integer@KV?$c_string_character_source@D@__crt_strtox@@@__crt_strtox@@YAKQAU__crt_locale_pointers@@V?$c_string_character_source@D@0@H_N@Z 1003a5df f i libucrt:atox.obj
 0001:00039891       ??$parse_integer@KV?$c_string_character_source@_W@__crt_strtox@@@__crt_strtox@@YAKQAU__crt_locale_pointers@@V?$c_string_character_source@_W@0@H_N@Z 1003a891 f i libucrt:atox.obj
 0001:0003a12f       ??$parse_integer@_KV?$c_string_character_source@D@__crt_strtox@@@__crt_strtox@@YA_KQAU__crt_locale_pointers@@V?$c_string_character_source@D@0@H_N@Z 1003b12f f i libucrt:atox.obj
 0001:0003a47e       ??$parse_integer@_KV?$c_string_character_source@_W@__crt_strtox@@@__crt_strtox@@YA_KQAU__crt_locale_pointers@@V?$c_string_character_source@_W@0@H_N@Z 1003b47e f i libucrt:atox.obj
 0001:0003abf0       ??$parse_integer_from_string@JD$$T@__crt_strtox@@YAJQBD$$THQAU__crt_locale_pointers@@@Z 1003bbf0 f i libucrt:atox.obj
 0001:0003ac28       ??$parse_integer_from_string@J_W$$T@__crt_strtox@@YAJQB_W$$THQAU__crt_locale_pointers@@@Z 1003bc28 f i libucrt:atox.obj
 0001:0003ac60       ??$parse_integer_from_string@_JD$$T@__crt_strtox@@YA_JQBD$$THQAU__crt_locale_pointers@@@Z 1003bc60 f i libucrt:atox.obj
 0001:0003ac98       ??$parse_integer_from_string@_J_W$$T@__crt_strtox@@YA_JQB_W$$THQAU__crt_locale_pointers@@@Z 1003bc98 f i libucrt:atox.obj
 0001:0003acd0       ??0?$c_string_character_source@D@__crt_strtox@@QAE@QBDQAPBD@Z 1003bcd0 f i libucrt:atox.obj
 0001:0003acf3       ??0?$c_string_character_source@_W@__crt_strtox@@QAE@QB_WQAPB_W@Z 1003bcf3 f i libucrt:atox.obj
 0001:0003ad16       ??1?$c_string_character_source@D@__crt_strtox@@QAE@XZ 1003bd16 f i libucrt:atox.obj
 0001:0003ad25       ??1?$c_string_character_source@_W@__crt_strtox@@QAE@XZ 1003bd25 f i libucrt:atox.obj
 0001:0003ad34       ?get@?$c_string_character_source@D@__crt_strtox@@QAEDXZ 1003bd34 f i libucrt:atox.obj
 0001:0003ad3e       ?get@?$c_string_character_source@_W@__crt_strtox@@QAE_WXZ 1003bd3e f i libucrt:atox.obj
 0001:0003ad4b       ?is_space@__crt_strtox@@YA_NDQAU__crt_locale_pointers@@@Z 1003bd4b f i libucrt:atox.obj
 0001:0003ad71       ?is_space@__crt_strtox@@YA_N_WPAU__crt_locale_pointers@@@Z 1003bd71 f i libucrt:atox.obj
 0001:0003ad90       ?maximum_signed_value@__crt_strtox@@YAJK@Z 1003bd90 f i libucrt:atox.obj
 0001:0003ad96       ?maximum_signed_value@__crt_strtox@@YA_J_K@Z 1003bd96 f i libucrt:atox.obj
 0001:0003ada1       ?minimum_signed_value@__crt_strtox@@YAJK@Z 1003bda1 f i libucrt:atox.obj
 0001:0003ada7       ?minimum_signed_value@__crt_strtox@@YA_J_K@Z 1003bda7 f i libucrt:atox.obj
 0001:0003adb1       ?parse_digit@__crt_strtox@@YAID@Z 1003bdb1 f i libucrt:atox.obj
 0001:0003adf9       ?parse_digit@__crt_strtox@@YAI_W@Z 1003bdf9 f i libucrt:atox.obj
 0001:0003b056       ?restore_state@?$c_string_character_source@D@__crt_strtox@@QAE_NQBD@Z 1003c056 f i libucrt:atox.obj
 0001:0003b06a       ?restore_state@?$c_string_character_source@_W@__crt_strtox@@QAE_NQB_W@Z 1003c06a f i libucrt:atox.obj
 0001:0003b07e       ?save_state@?$c_string_character_source@D@__crt_strtox@@QBEPBDXZ 1003c07e f i libucrt:atox.obj
 0001:0003b081       ?save_state@?$c_string_character_source@_W@__crt_strtox@@QBEPB_WXZ 1003c081 f i libucrt:atox.obj
 0001:0003b084       ?unget@?$c_string_character_source@D@__crt_strtox@@QAEXD@Z 1003c084 f i libucrt:atox.obj
 0001:0003b0b6       ?unget@?$c_string_character_source@_W@__crt_strtox@@QAEX_W@Z 1003c0b6 f i libucrt:atox.obj
 0001:0003b0ed       ?validate@?$c_string_character_source@D@__crt_strtox@@QBE_NXZ 1003c0ed f i libucrt:atox.obj
 0001:0003b10e       ?validate@?$c_string_character_source@_W@__crt_strtox@@QBE_NXZ 1003c10e f i libucrt:atox.obj
 0001:0003b12f       ?wide_character_to_digit@__crt_strtox@@YAH_W@Z 1003c12f f i libucrt:atox.obj
 0001:0003b338       ___acrt_get_locale_data_prefix 1003c338 f i libucrt:atox.obj
 0001:0003b347       __atoi64                   1003c347 f   libucrt:atox.obj
 0001:0003b37b       __atoi64_l                 1003c37b f   libucrt:atox.obj
 0001:0003b3b0       __atoi_l                   1003c3b0 f   libucrt:atox.obj
 0001:0003b3e5       __atol_l                   1003c3e5 f   libucrt:atox.obj
 0001:0003b41a       __atoll_l                  1003c41a f   libucrt:atox.obj
 0001:0003b44f       __chvalidchk_l             1003c44f f i libucrt:atox.obj
 0001:0003b483       __ischartype_l             1003c483 f i libucrt:atox.obj
 0001:0003b4c2       __wtoi                     1003c4c2 f   libucrt:atox.obj
 0001:0003b4f6       __wtoi64                   1003c4f6 f   libucrt:atox.obj
 0001:0003b52a       __wtoi64_l                 1003c52a f   libucrt:atox.obj
 0001:0003b55f       __wtoi_l                   1003c55f f   libucrt:atox.obj
 0001:0003b594       __wtol                     1003c594 f   libucrt:atox.obj
 0001:0003b5c8       __wtol_l                   1003c5c8 f   libucrt:atox.obj
 0001:0003b5fd       __wtoll                    1003c5fd f   libucrt:atox.obj
 0001:0003b631       __wtoll_l                  1003c631 f   libucrt:atox.obj
 0001:0003b666       _atoi                      1003c666 f   libucrt:atox.obj
 0001:0003b69a       _atol                      1003c69a f   libucrt:atox.obj
 0001:0003b6ce       _atoll                     1003c6ce f   libucrt:atox.obj
 0001:0003b702       __realloc_base             1003c702 f   libucrt:realloc_base.obj
 0001:0003b785       ___acrt_initialize_locks   1003c785 f   libucrt:locks.obj
 0001:0003b7d6       ___acrt_lock               1003c7d6 f   libucrt:locks.obj
 0001:0003b7f2       ___acrt_uninitialize_locks 1003c7f2 f   libucrt:locks.obj
 0001:0003b82f       ___acrt_unlock             1003c82f f   libucrt:locks.obj
 0001:0003b84b       __lock_locales             1003c84b f   libucrt:locks.obj
 0001:0003b856       __unlock_locales           1003c856 f   libucrt:locks.obj
 0001:0003b8b8       ??$?B$$A6GHPA_WKJ@Z@__crt_fast_encoded_nullptr_t@@QBEP6GHPA_WKJ@ZXZ 1003c8b8 f i libucrt:winapi_thunks.obj
 0001:0003b8d6       ??$?RV<lambda_9227be29367c048ad7fd93a717dcb1a1>@@AAV<lambda_a463b7b0560cfcaf9b17f27c6ef46564>@@V<lambda_ccea11b5727ccf69be64f5f5d9a08d9f>@@@?$__crt_seh_guarded_call@H@@QAEH$$QAV<lambda_9227be29367c048ad7fd93a717dcb1a1>@@AAV<lambda_a463b7b0560cfcaf9b17f27c6ef46564>@@$$QAV<lambda_ccea11b5727ccf69be64f5f5d9a08d9f>@@@Z 1003c8d6 f i libucrt:winapi_thunks.obj
 0001:0003b97b       ??$__acrt_lock_and_call@V<lambda_a463b7b0560cfcaf9b17f27c6ef46564>@@@@YAHW4__acrt_lock_id@@$$QAV<lambda_a463b7b0560cfcaf9b17f27c6ef46564>@@@Z 1003c97b f i libucrt:winapi_thunks.obj
 0001:0003b9ad       ??$__crt_fast_decode_pointer@P6GHPA_WKJ@Z@@YAP6GHPA_WKJ@ZQ6GH0KJ@Z@Z 1003c9ad f i libucrt:winapi_thunks.obj
 0001:0003b9c8       ??$__crt_fast_encode_pointer@P6GHPA_WKJ@Z@@YAP6GHPA_WKJ@ZQ6GH0KJ@Z@Z 1003c9c8 f i libucrt:winapi_thunks.obj
 0001:0003c0f5       ___acrt_AreFileApisANSI@0  1003d0f5 f   libucrt:winapi_thunks.obj
 0001:0003c156       ___acrt_CompareStringEx@36 1003d156 f   libucrt:winapi_thunks.obj
 0001:0003c1e7       ___acrt_EnumSystemLocalesEx@16 1003d1e7 f   libucrt:winapi_thunks.obj
 0001:0003c26f       ___acrt_FlsAlloc@4         1003d26f f   libucrt:winapi_thunks.obj
 0001:0003c2da       ___acrt_FlsFree@4          1003d2da f   libucrt:winapi_thunks.obj
 0001:0003c345       ___acrt_FlsGetValue@4      1003d345 f   libucrt:winapi_thunks.obj
 0001:0003c3b0       ___acrt_FlsSetValue@8      1003d3b0 f   libucrt:winapi_thunks.obj
 0001:0003c41f       ___acrt_GetDateFormatEx@28 1003d41f f   libucrt:winapi_thunks.obj
 0001:0003c4c1       ___acrt_GetEnabledXStateFeatures@0 1003d4c1 f   libucrt:winapi_thunks.obj
 0001:0003c523       ___acrt_GetFileInformationByHandleEx@16 1003d523 f   libucrt:winapi_thunks.obj
 0001:0003c59e       ___acrt_GetLocaleInfoEx@16 1003d59e f   libucrt:winapi_thunks.obj
 0001:0003c622       ___acrt_GetSystemTimePreciseAsFileTime@4 1003d622 f   libucrt:winapi_thunks.obj
 0001:0003c68d       ___acrt_GetTimeFormatEx@24 1003d68d f   libucrt:winapi_thunks.obj
 0001:0003c719       ___acrt_GetUserDefaultLocaleName@8 1003d719 f   libucrt:winapi_thunks.obj
 0001:0003c799       ___acrt_GetXStateFeaturesMask@8 1003d799 f   libucrt:winapi_thunks.obj
 0001:0003c805       ___acrt_InitializeCriticalSectionEx@12 1003d805 f   libucrt:winapi_thunks.obj
 0001:0003c87f       ___acrt_IsValidLocaleName@4 1003d87f f   libucrt:winapi_thunks.obj
 0001:0003c8fa       ___acrt_LCIDToLocaleName@16 1003d8fa f   libucrt:winapi_thunks.obj
 0001:0003c97e       ___acrt_LCMapStringEx@36   1003d97e f   libucrt:winapi_thunks.obj
 0001:0003ca28       ___acrt_LocaleNameToLCID@8 1003da28 f   libucrt:winapi_thunks.obj
 0001:0003ca9b       ___acrt_LocateXStateFeature@12 1003da9b f   libucrt:winapi_thunks.obj
 0001:0003caf2       ___acrt_MessageBoxA@16     1003daf2 f   libucrt:winapi_thunks.obj
 0001:0003cb4d       ___acrt_MessageBoxW@16     1003db4d f   libucrt:winapi_thunks.obj
 0001:0003cba8       ___acrt_RoInitialize@4     1003dba8 f   libucrt:winapi_thunks.obj
 0001:0003cc0e       ___acrt_RoUninitialize@0   1003dc0e f   libucrt:winapi_thunks.obj
 0001:0003cc69       ___acrt_RtlGenRandom@8     1003dc69 f   libucrt:winapi_thunks.obj
 0001:0003ccd5       ___acrt_SetThreadStackGuarantee@4 1003dcd5 f   libucrt:winapi_thunks.obj
 0001:0003cd3b       ___acrt_can_show_message_box 1003dd3b f   libucrt:winapi_thunks.obj
 0001:0003cd5a       ___acrt_can_use_vista_locale_apis 1003dd5a f   libucrt:winapi_thunks.obj
 0001:0003cd69       ___acrt_can_use_xstate_apis 1003dd69 f   libucrt:winapi_thunks.obj
 0001:0003cd78       ___acrt_get_parent_window  1003dd78 f   libucrt:winapi_thunks.obj
 0001:0003ce16       ___acrt_initialize_winapi_thunks 1003de16 f   libucrt:winapi_thunks.obj
 0001:0003ce45       ___acrt_is_interactive     1003de45 f   libucrt:winapi_thunks.obj
 0001:0003cf14       ___acrt_is_packaged_app    1003df14 f   libucrt:winapi_thunks.obj
 0001:0003cfbc       ___acrt_uninitialize_winapi_thunks 1003dfbc f   libucrt:winapi_thunks.obj
 0001:0003cfff       ??$__crt_fast_decode_pointer@P6AXPB_W00II@Z@@YAP6AXPB_W00II@ZQ6AX000II@Z@Z 1003dfff f i libucrt:invalid_parameter.obj
 0001:0003d01a       ??$__crt_fast_encode_pointer@P6AXPB_W00II@Z@@YAP6AXPB_W00II@ZQ6AX000II@Z@Z 1003e01a f i libucrt:invalid_parameter.obj
 0001:0003d040       ?initialize@?$dual_state_global@P6AXPB_W00II@Z@__crt_state_management@@QAEXQ6AXPB_W00II@Z@Z 1003e040 f i libucrt:invalid_parameter.obj
 0001:0003d07d       ?value@?$dual_state_global@P6AXPB_W00II@Z@__crt_state_management@@QAEAAP6AXPB_W00II@ZXZ 1003e07d f i libucrt:invalid_parameter.obj
 0001:0003d080       ___acrt_call_reportfault   1003e080 f   libucrt:invalid_parameter.obj
 0001:0003d209       ___acrt_initialize_invalid_parameter_handler 1003e209 f   libucrt:invalid_parameter.obj
 0001:0003d222       __get_invalid_parameter_handler 1003e222 f   libucrt:invalid_parameter.obj
 0001:0003d239       __get_thread_local_invalid_parameter_handler 1003e239 f   libucrt:invalid_parameter.obj
 0001:0003d24e       __invalid_parameter        1003e24e f   libucrt:invalid_parameter.obj
 0001:0003d2e7       __invalid_parameter_noinfo 1003e2e7 f   libucrt:invalid_parameter.obj
 0001:0003d2fb       __invalid_parameter_noinfo_noreturn 1003e2fb f   libucrt:invalid_parameter.obj
 0001:0003d31f       __invoke_watson            1003e31f f   libucrt:invalid_parameter.obj
 0001:0003d35e       __set_invalid_parameter_handler 1003e35e f   libucrt:invalid_parameter.obj
 0001:0003d39a       __set_thread_local_invalid_parameter_handler 1003e39a f   libucrt:invalid_parameter.obj
 0001:0003d3be       ___acrt_errno_from_os_error 1003e3be f   libucrt:errno.obj
 0001:0003d411       ___acrt_errno_map_os_error 1003e411 f   libucrt:errno.obj
 0001:0003d43c       ___doserrno                1003e43c f   libucrt:errno.obj
 0001:0003d453       __errno                    1003e453 f   libucrt:errno.obj
 0001:0003d46a       __get_doserrno             1003e46a f   libucrt:errno.obj
 0001:0003d498       __get_errno                1003e498 f   libucrt:errno.obj
 0001:0003d4c6       __set_doserrno             1003e4c6 f   libucrt:errno.obj
 0001:0003d4ef       __set_errno                1003e4ef f   libucrt:errno.obj
 0001:0003d518       ??0__crt_stdio_stream@@QAE@QAU__crt_stdio_stream_data@@@Z 1003e518 f i libucrt:closeall.obj
 0001:0003d52c       __fcloseall                1003e52c f   libucrt:closeall.obj
 0001:0003d5f4       ___acrt_stdio_flush_nolock 1003e5f4 f   libucrt:fflush.obj
 0001:0003d673       __fflush_nolock            1003e673 f   libucrt:fflush.obj
 0001:0003d6cb       __flushall                 1003e6cb f   libucrt:fflush.obj
 0001:0003d7e4       _fflush                    1003e7e4 f   libucrt:fflush.obj
 0001:0003d853       ?has_crt_buffer@__crt_stdio_stream@@QBE_NXZ 1003e853 f i libucrt:_freebuf.obj
 0001:0003d862       ___acrt_stdio_free_buffer_nolock 1003e862 f   libucrt:_freebuf.obj
 0001:0003da9f       ___acrt_initialize_lowio   1003ea9f f   libucrt:ioinit.obj
 0001:0003db0a       ___acrt_uninitialize_lowio 1003eb0a f   libucrt:ioinit.obj
 0001:0003db41       ??$?RV<lambda_123407a5e2ac06da108355a851863b7a>@@AAV<lambda_2fe9b910cf3cbf4a0ab98a02ba45b3ec>@@V<lambda_ae55bdf541ad94d75914d381c370e64d>@@@?$__crt_seh_guarded_call@H@@QAEH$$QAV<lambda_123407a5e2ac06da108355a851863b7a>@@AAV<lambda_2fe9b910cf3cbf4a0ab98a02ba45b3ec>@@$$QAV<lambda_ae55bdf541ad94d75914d381c370e64d>@@@Z 1003eb41 f i libucrt:close.obj
 0001:0003dbe3       ??$__acrt_lowio_lock_fh_and_call@V<lambda_2fe9b910cf3cbf4a0ab98a02ba45b3ec>@@@@YAHH$$QAV<lambda_2fe9b910cf3cbf4a0ab98a02ba45b3ec>@@@Z 1003ebe3 f i libucrt:close.obj
 0001:0003dd36       __close                    1003ed36 f   libucrt:close.obj
 0001:0003ddd4       __close_nolock             1003edd4 f   libucrt:close.obj
 0001:0003de97       ?lowio_handle@__crt_stdio_stream@@QBEHXZ 1003ee97 f i libucrt:fileno.obj
 0001:0003de9d       __fileno                   1003ee9d f   libucrt:fileno.obj
 0001:0003decc       ??$?RU__crt_stdio_stream_data@@@__crt_internal_free_policy@@QBEXQBU__crt_stdio_stream_data@@@Z 1003eecc f i libucrt:stream.obj
 0001:0003dee2       ??0?$__crt_unique_heap_ptr@U__crt_stdio_stream_data@@U__crt_internal_free_policy@@@@QAE@QAU__crt_stdio_stream_data@@@Z 1003eee2 f i libucrt:stream.obj
 0001:0003def6       ??0__crt_stdio_stream@@QAE@XZ 1003eef6 f i libucrt:stream.obj
 0001:0003defc       ??1?$__crt_unique_heap_ptr@U__crt_stdio_stream_data@@U__crt_internal_free_policy@@@@QAE@XZ 1003eefc f i libucrt:stream.obj
 0001:0003df12       ?__acrt_stdio_allocate_stream@@YA?AV__crt_stdio_stream@@XZ 1003ef12 f   libucrt:stream.obj
 0001:0003df88       ?__acrt_stdio_free_stream@@YAXV__crt_stdio_stream@@@Z 1003ef88 f   libucrt:stream.obj
 0001:0003dfd1       ?deallocate@__crt_stdio_stream@@QAEXXZ 1003efd1 f i libucrt:stream.obj
 0001:0003dfdd       ?detach@?$__crt_unique_heap_ptr@U__crt_stdio_stream_data@@U__crt_internal_free_policy@@@@QAEPAU__crt_stdio_stream_data@@XZ 1003efdd f i libucrt:stream.obj
 0001:0003e0d6       ?lock@__crt_stdio_stream@@QBEXXZ 1003f0d6 f i libucrt:stream.obj
 0001:0003e0e1       ?release@?$__crt_unique_heap_ptr@U__crt_stdio_stream_data@@U__crt_internal_free_policy@@@@QAEXXZ 1003f0e1 f i libucrt:stream.obj
 0001:0003e0f7       ?try_allocate@__crt_stdio_stream@@QAE_NXZ 1003f0f7 f i libucrt:stream.obj
 0001:0003e120       ??$__acrt_stdio_parse_mode@D@@YA?AU__acrt_stdio_stream_mode@@QBD@Z 1003f120 f i libucrt:openfile.obj
 0001:0003e3de       ??$__acrt_stdio_parse_mode@_W@@YA?AU__acrt_stdio_stream_mode@@QB_W@Z 1003f3de f i libucrt:openfile.obj
 0001:0003e7ff       ??$tcsncmp@AAPBDAAY02$$CBDI@?$__crt_char_traits@D@@SAHAAPBDAAY02$$CBD$$QAI@Z 1003f7ff f i libucrt:openfile.obj
 0001:0003e822       ??$tcsncmp@AAPB_WAAY02$$CB_WI@?$__crt_char_traits@_W@@SAHAAPB_WAAY02$$CB_W$$QAI@Z 1003f822 f i libucrt:openfile.obj
 0001:0003e845       ??$tcsnicmp@AAPBDAAY04$$CBDI@?$__crt_char_traits@D@@SAHAAPBDAAY04$$CBD$$QAI@Z 1003f845 f i libucrt:openfile.obj
 0001:0003e868       ??$tcsnicmp@AAPBDAAY06$$CBDI@?$__crt_char_traits@D@@SAHAAPBDAAY06$$CBD$$QAI@Z 1003f868 f i libucrt:openfile.obj
 0001:0003e88b       ??$tcsnicmp@AAPBDAAY07$$CBDI@?$__crt_char_traits@D@@SAHAAPBDAAY07$$CBD$$QAI@Z 1003f88b f i libucrt:openfile.obj
 0001:0003e8ae       ??$tcsnicmp@AAPB_WAAY04$$CB_WI@?$__crt_char_traits@_W@@SAHAAPB_WAAY04$$CB_W$$QAI@Z 1003f8ae f i libucrt:openfile.obj
 0001:0003e8d1       ??$tcsnicmp@AAPB_WAAY06$$CB_WI@?$__crt_char_traits@_W@@SAHAAPB_WAAY06$$CB_W$$QAI@Z 1003f8d1 f i libucrt:openfile.obj
 0001:0003e8f4       ??$tcsnicmp@AAPB_WAAY07$$CB_WI@?$__crt_char_traits@_W@@SAHAAPB_WAAY07$$CB_W$$QAI@Z 1003f8f4 f i libucrt:openfile.obj
 0001:0003e917       ??$tsopen_s@PAHABQBDABHABHH@?$__crt_char_traits@D@@SAH$$QAPAHABQBDABH2$$QAH@Z 1003f917 f i libucrt:openfile.obj
 0001:0003e949       ??$tsopen_s@PAHABQB_WABHABHH@?$__crt_char_traits@_W@@SAH$$QAPAHABQB_WABH2$$QAH@Z 1003f949 f i libucrt:openfile.obj
 0001:0003e97b       ?__acrt_stdio_parse_mode_D@@YA_NAAU__acrt_stdio_stream_mode@@@Z 1003f97b f i libucrt:openfile.obj
 0001:0003e99c       ?__acrt_stdio_parse_mode_N@@YA_NAAU__acrt_stdio_stream_mode@@@Z 1003f99c f i libucrt:openfile.obj
 0001:0003e9b2       ?__acrt_stdio_parse_mode_R@@YA_NAAU__acrt_stdio_stream_mode@@AA_N@Z 1003f9b2 f i libucrt:openfile.obj
 0001:0003e9d7       ?__acrt_stdio_parse_mode_S@@YA_NAAU__acrt_stdio_stream_mode@@AA_N@Z 1003f9d7 f i libucrt:openfile.obj
 0001:0003e9fc       ?__acrt_stdio_parse_mode_T@@YA_NAAU__acrt_stdio_stream_mode@@@Z 1003f9fc f i libucrt:openfile.obj
 0001:0003ea22       ?__acrt_stdio_parse_mode_b@@YA_NAAU__acrt_stdio_stream_mode@@@Z 1003fa22 f i libucrt:openfile.obj
 0001:0003ea4a       ?__acrt_stdio_parse_mode_c@@YA_NAAU__acrt_stdio_stream_mode@@AA_N@Z 1003fa4a f i libucrt:openfile.obj
 0001:0003ea74       ?__acrt_stdio_parse_mode_n@@YA_NAAU__acrt_stdio_stream_mode@@AA_N@Z 1003fa74 f i libucrt:openfile.obj
 0001:0003ea9e       ?__acrt_stdio_parse_mode_plus@@YA_NAAU__acrt_stdio_stream_mode@@AA_N@Z 1003fa9e f i libucrt:openfile.obj
 0001:0003eae0       ?__acrt_stdio_parse_mode_t@@YA_NAAU__acrt_stdio_stream_mode@@@Z 1003fae0 f i libucrt:openfile.obj
 0001:0003eb08       __openfile                 1003fb08 f   libucrt:openfile.obj
 0001:0003eb15       __wopenfile                1003fb15 f   libucrt:openfile.obj
 0001:0003f1ba       __read                     100401ba f   libucrt:read.obj
 0001:0003f311       __read_nolock              10040311 f   libucrt:read.obj
 0001:0003fca9       ___acrt_stdio_refill_and_read_narrow_nolock 10040ca9 f   libucrt:_filbuf.obj
 0001:0003fcb6       ___acrt_stdio_refill_and_read_wide_nolock 10040cb6 f   libucrt:_filbuf.obj
 0001:00040415       __write                    10041415 f   libucrt:write.obj
 0001:0004053a       __write_nolock             1004153a f   libucrt:write.obj
 0001:00040c80       ___acrt_stdio_flush_and_write_narrow_nolock 10041c80 f   libucrt:_flsbuf.obj
 0001:00040c8d       ___acrt_stdio_flush_and_write_wide_nolock 10041c8d f   libucrt:_flsbuf.obj
 0001:00040c9a       ?has_temporary_buffer@__crt_stdio_stream@@QBE_NXZ 10041c9a f i libucrt:_sftbuf.obj
 0001:00040ca9       ___acrt_stdio_begin_temporary_buffering_nolock 10041ca9 f   libucrt:_sftbuf.obj
 0001:00040d8b       ___acrt_stdio_end_temporary_buffering_nolock 10041d8b f   libucrt:_sftbuf.obj
 0001:00040dd2       ___acrt_copy_path_to_wide_string 10041dd2 f   libucrt:string_utilities.obj
 0001:00040eca       ___acrt_copy_to_char       10041eca f   libucrt:string_utilities.obj
 0001:00040fb5       __wremove                  10041fb5 f   libucrt:wunlink.obj
 0001:00040fe7       __wunlink                  10041fe7 f   libucrt:wunlink.obj
 0001:0004145b       __lseek                    1004245b f   libucrt:lseek.obj
 0001:00041468       __lseek_nolock             10042468 f   libucrt:lseek.obj
 0001:00041475       __lseeki64                 10042475 f   libucrt:lseek.obj
 0001:00041496       __lseeki64_nolock          10042496 f   libucrt:lseek.obj
 0001:000414d2       ___isascii                 100424d2 f i libucrt:_ctype.obj
 0001:000414e8       ___iscsym                  100424e8 f i libucrt:_ctype.obj
 0001:00041512       ___iscsymf                 10042512 f i libucrt:_ctype.obj
 0001:00041538       ___toascii                 10042538 f i libucrt:_ctype.obj
 0001:00041548       __isalnum_l                10042548 f i libucrt:_ctype.obj
 0001:00041591       __isalpha_l                10042591 f i libucrt:_ctype.obj
 0001:000415da       __isblank_l                100425da f i libucrt:_ctype.obj
 0001:0004162d       __iscntrl_l                1004262d f i libucrt:_ctype.obj
 0001:00041673       __iscsym_l                 10042673 f i libucrt:_ctype.obj
 0001:0004169e       __iscsymf_l                1004269e f i libucrt:_ctype.obj
 0001:000416c9       __isdigit_l                100426c9 f i libucrt:_ctype.obj
 0001:0004170f       __isgraph_l                1004270f f i libucrt:_ctype.obj
 0001:00041758       __islower_l                10042758 f i libucrt:_ctype.obj
 0001:0004179e       __isprint_l                1004279e f i libucrt:_ctype.obj
 0001:000417e7       __ispunct_l                100427e7 f i libucrt:_ctype.obj
 0001:0004182d       __isspace_l                1004282d f i libucrt:_ctype.obj
 0001:00041873       __isupper_l                10042873 f i libucrt:_ctype.obj
 0001:000418b9       __isxdigit_l               100428b9 f i libucrt:_ctype.obj
 0001:00041902       _isalnum                   10042902 f i libucrt:_ctype.obj
 0001:0004193c       _isalpha                   1004293c f i libucrt:_ctype.obj
 0001:00041976       _isblank                   10042976 f i libucrt:_ctype.obj
 0001:000419ba       _iscntrl                   100429ba f i libucrt:_ctype.obj
 0001:000419f2       _isdigit                   100429f2 f i libucrt:_ctype.obj
 0001:00041a2a       _isgraph                   10042a2a f i libucrt:_ctype.obj
 0001:00041a64       _islower                   10042a64 f i libucrt:_ctype.obj
 0001:00041a9c       _isprint                   10042a9c f i libucrt:_ctype.obj
 0001:00041ad6       _ispunct                   10042ad6 f i libucrt:_ctype.obj
 0001:00041b0e       _isspace                   10042b0e f i libucrt:_ctype.obj
 0001:00041b46       _isupper                   10042b46 f i libucrt:_ctype.obj
 0001:00041b7e       _isxdigit                  10042b7e f i libucrt:_ctype.obj
 0001:00041f76       __tolower                  10042f76 f   libucrt:tolower_toupper.obj
 0001:00041f86       __tolower_l                10042f86 f   libucrt:tolower_toupper.obj
 0001:00041fa6       __toupper                  10042fa6 f   libucrt:tolower_toupper.obj
 0001:00041fb6       __toupper_l                10042fb6 f   libucrt:tolower_toupper.obj
 0001:00041fd6       _tolower                   10042fd6 f   libucrt:tolower_toupper.obj
 0001:00042012       _toupper                   10043012 f   libucrt:tolower_toupper.obj
 0001:0004204e       ??$make_c_string_character_source@DPAPAD@__crt_strtox@@YA?AV?$c_string_character_source@D@0@QBDQAPAD@Z 1004304e f i libucrt:strtox.obj
 0001:0004206f       ??$make_c_string_character_source@_WPAPA_W@__crt_strtox@@YA?AV?$c_string_character_source@_W@0@QB_WQAPA_W@Z 1004306f f i libucrt:strtox.obj
 0001:00042090       ??$parse_integer_from_string@JDPAPAD@__crt_strtox@@YAJQBDQAPADHQAU__crt_locale_pointers@@@Z 10043090 f i libucrt:strtox.obj
 0001:000420c8       ??$parse_integer_from_string@J_WPAPA_W@__crt_strtox@@YAJQB_WQAPA_WHQAU__crt_locale_pointers@@@Z 100430c8 f i libucrt:strtox.obj
 0001:00042100       ??$parse_integer_from_string@KDPAPAD@__crt_strtox@@YAKQBDQAPADHQAU__crt_locale_pointers@@@Z 10043100 f i libucrt:strtox.obj
 0001:00042138       ??$parse_integer_from_string@K_WPAPA_W@__crt_strtox@@YAKQB_WQAPA_WHQAU__crt_locale_pointers@@@Z 10043138 f i libucrt:strtox.obj
 0001:00042170       ??$parse_integer_from_string@_JDPAPAD@__crt_strtox@@YA_JQBDQAPADHQAU__crt_locale_pointers@@@Z 10043170 f i libucrt:strtox.obj
 0001:000421a8       ??$parse_integer_from_string@_J_WPAPA_W@__crt_strtox@@YA_JQB_WQAPA_WHQAU__crt_locale_pointers@@@Z 100431a8 f i libucrt:strtox.obj
 0001:000421e0       ??$parse_integer_from_string@_KDPAPAD@__crt_strtox@@YA_KQBDQAPADHQAU__crt_locale_pointers@@@Z 100431e0 f i libucrt:strtox.obj
 0001:00042218       ??$parse_integer_from_string@_K_WPAPA_W@__crt_strtox@@YA_KQB_WQAPA_WHQAU__crt_locale_pointers@@@Z 10043218 f i libucrt:strtox.obj
 0001:00042250       __strtoi64                 10043250 f   libucrt:strtox.obj
 0001:00042287       __strtoi64_l               10043287 f   libucrt:strtox.obj
 0001:000422bf       __strtoimax_l              100432bf f   libucrt:strtox.obj
 0001:000422f7       __strtol_l                 100432f7 f   libucrt:strtox.obj
 0001:0004232f       __strtoll_l                1004332f f   libucrt:strtox.obj
 0001:00042367       __strtoui64                10043367 f   libucrt:strtox.obj
 0001:0004239e       __strtoui64_l              1004339e f   libucrt:strtox.obj
 0001:000423d6       __strtoul_l                100433d6 f   libucrt:strtox.obj
 0001:0004240e       __strtoull_l               1004340e f   libucrt:strtox.obj
 0001:00042446       __strtoumax_l              10043446 f   libucrt:strtox.obj
 0001:0004247e       __wcstoi64                 1004347e f   libucrt:strtox.obj
 0001:000424b5       __wcstoi64_l               100434b5 f   libucrt:strtox.obj
 0001:000424ed       __wcstoimax_l              100434ed f   libucrt:strtox.obj
 0001:00042525       __wcstol_l                 10043525 f   libucrt:strtox.obj
 0001:0004255d       __wcstoll_l                1004355d f   libucrt:strtox.obj
 0001:00042595       __wcstoui64                10043595 f   libucrt:strtox.obj
 0001:000425cc       __wcstoui64_l              100435cc f   libucrt:strtox.obj
 0001:00042604       __wcstoul_l                10043604 f   libucrt:strtox.obj
 0001:0004263c       __wcstoull_l               1004363c f   libucrt:strtox.obj
 0001:00042674       __wcstoumax_l              10043674 f   libucrt:strtox.obj
 0001:000426ac       _strtoimax                 100436ac f   libucrt:strtox.obj
 0001:000426e3       _strtol                    100436e3 f   libucrt:strtox.obj
 0001:0004271a       _strtoll                   1004371a f   libucrt:strtox.obj
 0001:00042751       _strtoul                   10043751 f   libucrt:strtox.obj
 0001:00042788       _strtoull                  10043788 f   libucrt:strtox.obj
 0001:000427bf       _strtoumax                 100437bf f   libucrt:strtox.obj
 0001:000427f6       _wcstoimax                 100437f6 f   libucrt:strtox.obj
 0001:0004282d       _wcstol                    1004382d f   libucrt:strtox.obj
 0001:00042864       _wcstoll                   10043864 f   libucrt:strtox.obj
 0001:0004289b       _wcstoul                   1004389b f   libucrt:strtox.obj
 0001:000428d2       _wcstoull                  100438d2 f   libucrt:strtox.obj
 0001:00042909       _wcstoumax                 10043909 f   libucrt:strtox.obj
 0001:00042940       __mbtowc_l                 10043940 f   libucrt:mbtowc.obj
 0001:00042a78       _mbtowc                    10043a78 f   libucrt:mbtowc.obj
 0001:00042a98       __wctomb_l                 10043a98 f   libucrt:wctomb.obj
 0001:00042aff       __wctomb_s_l               10043aff f   libucrt:wctomb.obj
 0001:00042c68       _wctomb                    10043c68 f   libucrt:wctomb.obj
 0001:00042ca9       _wctomb_s                  10043ca9 f   libucrt:wctomb.obj
 0001:000433c1       ??1?$__crt_simd_cleanup_guard@$00@@QAE@XZ 100443c1 f i libucrt:strnlen.obj
 0001:000433c5       ??1?$__crt_simd_cleanup_guard@$0A@@@QAE@XZ 100443c5 f i libucrt:strnlen.obj
 0001:000433c6       ?compare_equals@?$__crt_simd_traits@$00E@@SA?AT__m256i@@T2@0@Z 100443c6 f i libucrt:strnlen.obj
 0001:000433cb       ?compare_equals@?$__crt_simd_traits@$00G@@SA?AT__m256i@@T2@0@Z 100443cb f i libucrt:strnlen.obj
 0001:000433d0       ?compare_equals@?$__crt_simd_traits@$0A@E@@SA?AT__m128i@@T2@0@Z 100443d0 f i libucrt:strnlen.obj
 0001:000433d5       ?compare_equals@?$__crt_simd_traits@$0A@G@@SA?AT__m128i@@T2@0@Z 100443d5 f i libucrt:strnlen.obj
 0001:000433da       ?compute_byte_mask@?$__crt_simd_pack_traits@$00@@SAHT__m256i@@@Z 100443da f i libucrt:strnlen.obj
 0001:000433df       ?compute_byte_mask@?$__crt_simd_pack_traits@$0A@@@SAHT__m128i@@@Z 100443df f i libucrt:strnlen.obj
 0001:000433e4       ?get_zero_pack@?$__crt_simd_pack_traits@$00@@SA?AT__m256i@@XZ 100443e4 f i libucrt:strnlen.obj
 0001:000433e9       ?get_zero_pack@?$__crt_simd_pack_traits@$0A@@@SA?AT__m128i@@XZ 100443e9 f i libucrt:strnlen.obj
 0001:000433ee       _strnlen                   100443ee f   libucrt:strnlen.obj
 0001:0004355e       _wcsnlen                   1004455e f   libucrt:strnlen.obj
 0001:00043782       ??$?RU__acrt_ptd@@@__crt_internal_free_policy@@QBEXQBU__acrt_ptd@@@Z 10044782 f i libucrt:per_thread_data.obj
 0001:00043798       ??$?RV<lambda_3518db117f0e7cdb002338c5d3c47b6c>@@AAV<lambda_b2ea41f6bbb362cd97d94c6828d90b61>@@V<lambda_abdedf541bb04549bc734292b4a045d4>@@@?$__crt_seh_guarded_call@X@@QAEX$$QAV<lambda_3518db117f0e7cdb002338c5d3c47b6c>@@AAV<lambda_b2ea41f6bbb362cd97d94c6828d90b61>@@$$QAV<lambda_abdedf541bb04549bc734292b4a045d4>@@@Z 10044798 f i libucrt:per_thread_data.obj
 0001:000437fc       ??$?RV<lambda_51b6e8b1eb166f2a3faf91f424b38130>@@AAV<lambda_6250bd4b2a391816dd638c3bf72b0bcb>@@V<lambda_0b5a4a3e68152e1d9b943535f5f47bed>@@@?$__crt_seh_guarded_call@X@@QAEX$$QAV<lambda_51b6e8b1eb166f2a3faf91f424b38130>@@AAV<lambda_6250bd4b2a391816dd638c3bf72b0bcb>@@$$QAV<lambda_0b5a4a3e68152e1d9b943535f5f47bed>@@@Z 100447fc f i libucrt:per_thread_data.obj
 0001:00043875       ??$?RV<lambda_5b71d36f03204c0beab531769a5b5694>@@AAV<lambda_be2b3da3f62db62e9dad5dc70221a656>@@V<lambda_8f9ce462984622f9bf76b59e2aaaf805>@@@?$__crt_seh_guarded_call@X@@QAEX$$QAV<lambda_5b71d36f03204c0beab531769a5b5694>@@AAV<lambda_be2b3da3f62db62e9dad5dc70221a656>@@$$QAV<lambda_8f9ce462984622f9bf76b59e2aaaf805>@@@Z 10044875 f i libucrt:per_thread_data.obj
 0001:000438d2       ??$?RV<lambda_9df27f884b057bc3edfc946cb5b7cf47>@@AAV<lambda_e69574bed617af4e071282c136b37893>@@V<lambda_cc0d902bcbbeb830f749456577db4721>@@@?$__crt_seh_guarded_call@X@@QAEX$$QAV<lambda_9df27f884b057bc3edfc946cb5b7cf47>@@AAV<lambda_e69574bed617af4e071282c136b37893>@@$$QAV<lambda_cc0d902bcbbeb830f749456577db4721>@@@Z 100448d2 f i libucrt:per_thread_data.obj
 0001:0004392c       ??$__acrt_lock_and_call@V<lambda_6250bd4b2a391816dd638c3bf72b0bcb>@@@@YAXW4__acrt_lock_id@@$$QAV<lambda_6250bd4b2a391816dd638c3bf72b0bcb>@@@Z 1004492c f i libucrt:per_thread_data.obj
 0001:0004395e       ??$__acrt_lock_and_call@V<lambda_b2ea41f6bbb362cd97d94c6828d90b61>@@@@YAXW4__acrt_lock_id@@$$QAV<lambda_b2ea41f6bbb362cd97d94c6828d90b61>@@@Z 1004495e f i libucrt:per_thread_data.obj
 0001:00043990       ??$__acrt_lock_and_call@V<lambda_be2b3da3f62db62e9dad5dc70221a656>@@@@YAXW4__acrt_lock_id@@$$QAV<lambda_be2b3da3f62db62e9dad5dc70221a656>@@@Z 10044990 f i libucrt:per_thread_data.obj
 0001:000439c2       ??$__acrt_lock_and_call@V<lambda_e69574bed617af4e071282c136b37893>@@@@YAXW4__acrt_lock_id@@$$QAV<lambda_e69574bed617af4e071282c136b37893>@@@Z 100449c2 f i libucrt:per_thread_data.obj
 0001:00043afb       ??0?$__crt_unique_heap_ptr@U__acrt_ptd@@U__crt_internal_free_policy@@@@QAE@QAU__acrt_ptd@@@Z 10044afb f i libucrt:per_thread_data.obj
 0001:00043b0f       ??0__crt_scoped_get_last_error_reset@@QAE@XZ 10044b0f f i libucrt:per_thread_data.obj
 0001:00043b24       ??1?$__crt_unique_heap_ptr@U__acrt_ptd@@U__crt_internal_free_policy@@@@QAE@XZ 10044b24 f i libucrt:per_thread_data.obj
 0001:00043b3a       ??1__crt_scoped_get_last_error_reset@@QAE@XZ 10044b3a f i libucrt:per_thread_data.obj
 0001:00043b45       ??B?$__crt_unique_heap_ptr@U__acrt_ptd@@U__crt_internal_free_policy@@@@QBE_NXZ 10044b45 f i libucrt:per_thread_data.obj
 0001:00043cbb       ?dangerous_get_state_array@?$dual_state_global@PAU__crt_locale_data@@@__crt_state_management@@QAEPAPAU__crt_locale_data@@XZ 10044cbb f i libucrt:per_thread_data.obj
 0001:00043dbf       ?detach@?$__crt_unique_heap_ptr@U__acrt_ptd@@U__crt_internal_free_policy@@@@QAEPAU__acrt_ptd@@XZ 10044dbf f i libucrt:per_thread_data.obj
 0001:00043dc5       ?get@?$__crt_unique_heap_ptr@U__acrt_ptd@@U__crt_internal_free_policy@@@@QBEPAU__acrt_ptd@@XZ 10044dc5 f i libucrt:per_thread_data.obj
 0001:00043ed4       ?is_valid@?$__crt_unique_heap_ptr@U__acrt_ptd@@U__crt_internal_free_policy@@@@QBE_NXZ 10044ed4 f i libucrt:per_thread_data.obj
 0001:00043ede       ?release@?$__crt_unique_heap_ptr@U__acrt_ptd@@U__crt_internal_free_policy@@@@QAEXXZ 10044ede f i libucrt:per_thread_data.obj
 0001:00043f6a       ?value@?$dual_state_global@PAU__crt_locale_data@@@__crt_state_management@@QAEAAPAU__crt_locale_data@@XZ 10044f6a f i libucrt:per_thread_data.obj
 0001:00043f6d       ___acrt_freeptd            10044f6d f   libucrt:per_thread_data.obj
 0001:00043fa4       ___acrt_getptd             10044fa4 f   libucrt:per_thread_data.obj
 0001:00044049       ___acrt_getptd_noexit      10045049 f   libucrt:per_thread_data.obj
 0001:000440ef       ___acrt_initialize_ptd     100450ef f   libucrt:per_thread_data.obj
 0001:00044126       ___acrt_uninitialize_ptd   10045126 f   libucrt:per_thread_data.obj
 0001:00044146       ___threadhandle            10045146 f   libucrt:per_thread_data.obj
 0001:0004414c       ___threadid                1004514c f   libucrt:per_thread_data.obj
 0001:00044152       ___acrt_update_locale_info 10045152 f   libucrt:locale_update.obj
 0001:0004418a       ___acrt_update_multibyte_info 1004518a f   libucrt:locale_update.obj
 0001:000441c2       ?__acrt_fp_classify@@YA?AW4__acrt_fp_class@@ABN@Z 100451c2 f i libucrt:cvt.obj
 0001:00044249       ?__acrt_fp_is_negative@@YA_NABN@Z 10045249 f i libucrt:cvt.obj
 0001:00044cbc       ?strrchr@@YAPADQADH@Z      10045cbc f i libucrt:cvt.obj
 0001:00044cc9       ___acrt_fp_format          10045cc9 f   libucrt:cvt.obj
 0001:00044ea3       __fputwc_nolock            10045ea3 f   libucrt:fputwc.obj
 0001:00045012       __fputwchar                10046012 f   libucrt:fputwc.obj
 0001:00045032       __putwc_nolock             10046032 f   libucrt:fputwc.obj
 0001:0004503f       _fputwc                    1004603f f   libucrt:fputwc.obj
 0001:000450d8       _putwc                     100460d8 f   libucrt:fputwc.obj
 0001:000450e5       _putwchar                  100460e5 f   libucrt:fputwc.obj
 0001:000450f2       __fputc_nolock             100460f2 f   libucrt:fputc.obj
 0001:00045125       __fputchar                 10046125 f   libucrt:fputc.obj
 0001:00045145       __putc_nolock              10046145 f   libucrt:fputc.obj
 0001:00045152       _fputc                     10046152 f   libucrt:fputc.obj
 0001:00045297       _putc                      10046297 f   libucrt:fputc.obj
 0001:000452a4       _putchar                   100462a4 f   libucrt:fputc.obj
 0001:000452b1       __get_printf_count_output  100462b1 f   libucrt:printf_count_output.obj
 0001:000452cb       __set_printf_count_output  100462cb f   libucrt:printf_count_output.obj
 0001:00045302       ??$?RU__crt_locale_data@@@__crt_internal_free_policy@@QBEXQBU__crt_locale_data@@@Z 10046302 f i libucrt:wsetlocale.obj
 0001:00045318       ??$?RU__crt_locale_pointers@@@__crt_internal_free_policy@@QBEXQBU__crt_locale_pointers@@@Z 10046318 f i libucrt:wsetlocale.obj
 0001:0004532e       ??$?RU__crt_multibyte_data@@@__crt_internal_free_policy@@QBEXQBU__crt_multibyte_data@@@Z 1004632e f i libucrt:wsetlocale.obj
 0001:00045344       ??$?RV<lambda_70818de7b02deff9841e8b0962a60ed9>@@AAV<lambda_2af78c5f5901b1372d98f9ab3177dfa6>@@AAV<lambda_f51fe5fd7c79a33db34fc9310f277369>@@@?$__crt_seh_guarded_call@X@@QAEX$$QAV<lambda_70818de7b02deff9841e8b0962a60ed9>@@AAV<lambda_2af78c5f5901b1372d98f9ab3177dfa6>@@AAV<lambda_f51fe5fd7c79a33db34fc9310f277369>@@@Z 10046344 f i libucrt:wsetlocale.obj
 0001:0004538d       ??$?RV<lambda_76aaead6e312921abc834cb00a638bdd>@@AAV<lambda_176e34f99554166dd2fac165c457248c>@@V<lambda_998ee1c9f4290b119b936bcd6215875a>@@@?$__crt_seh_guarded_call@X@@QAEX$$QAV<lambda_76aaead6e312921abc834cb00a638bdd>@@AAV<lambda_176e34f99554166dd2fac165c457248c>@@$$QAV<lambda_998ee1c9f4290b119b936bcd6215875a>@@@Z 1004638d f i libucrt:wsetlocale.obj
 0001:000453e9       ??$?RV<lambda_c76fdea48760d5f9368b465f31df4405>@@AAV<lambda_e378711a6f6581bf7f0efd7cdf97f5d9>@@V<lambda_e927a58b2a85c081d733e8c6192ae2d2>@@@?$__crt_seh_guarded_call@X@@QAEX$$QAV<lambda_c76fdea48760d5f9368b465f31df4405>@@AAV<lambda_e378711a6f6581bf7f0efd7cdf97f5d9>@@$$QAV<lambda_e927a58b2a85c081d733e8c6192ae2d2>@@@Z 100463e9 f i libucrt:wsetlocale.obj
 0001:0004543c       ??$?RV<lambda_c9469061b39d205f0f236529d4a41659>@@AAV<lambda_b7fb1a997d3ebc0cc0186c5835178808>@@V<lambda_14b92c79d699846b5cc916cd4cf280e4>@@@?$__crt_seh_guarded_call@X@@QAEX$$QAV<lambda_c9469061b39d205f0f236529d4a41659>@@AAV<lambda_b7fb1a997d3ebc0cc0186c5835178808>@@$$QAV<lambda_14b92c79d699846b5cc916cd4cf280e4>@@@Z 1004643c f i libucrt:wsetlocale.obj
 0001:00045496       ??$__acrt_lock_and_call@V<lambda_176e34f99554166dd2fac165c457248c>@@@@YAXW4__acrt_lock_id@@$$QAV<lambda_176e34f99554166dd2fac165c457248c>@@@Z 10046496 f i libucrt:wsetlocale.obj
 0001:000454c8       ??$__acrt_lock_and_call@V<lambda_b7fb1a997d3ebc0cc0186c5835178808>@@@@YAXW4__acrt_lock_id@@$$QAV<lambda_b7fb1a997d3ebc0cc0186c5835178808>@@@Z 100464c8 f i libucrt:wsetlocale.obj
 0001:000454fa       ??$__acrt_lock_and_call@V<lambda_e378711a6f6581bf7f0efd7cdf97f5d9>@@@@YAXW4__acrt_lock_id@@$$QAV<lambda_e378711a6f6581bf7f0efd7cdf97f5d9>@@@Z 100464fa f i libucrt:wsetlocale.obj
 0001:0004552c       ??$__crt_call_and_cleanup@V<lambda_2af78c5f5901b1372d98f9ab3177dfa6>@@V<lambda_f51fe5fd7c79a33db34fc9310f277369>@@@@YAX$$QAV<lambda_2af78c5f5901b1372d98f9ab3177dfa6>@@$$QAV<lambda_f51fe5fd7c79a33db34fc9310f277369>@@@Z 1004652c f i libucrt:wsetlocale.obj
 0001:0004554f       ??$__vcrt_va_start_verify_argument_type@H@@YAXXZ 1004654f f i libucrt:wsetlocale.obj
 0001:00045674       ??0?$__crt_unique_heap_ptr@U__crt_locale_data@@U__crt_internal_free_policy@@@@QAE@QAU__crt_locale_data@@@Z 10046674 f i libucrt:wsetlocale.obj
 0001:00045688       ??0?$__crt_unique_heap_ptr@U__crt_locale_pointers@@U__crt_internal_free_policy@@@@QAE@QAU__crt_locale_pointers@@@Z 10046688 f i libucrt:wsetlocale.obj
 0001:0004569c       ??0?$__crt_unique_heap_ptr@U__crt_multibyte_data@@U__crt_internal_free_policy@@@@QAE@QAU__crt_multibyte_data@@@Z 1004669c f i libucrt:wsetlocale.obj
 0001:000456b0       ??1?$__crt_unique_heap_ptr@U__crt_locale_data@@U__crt_internal_free_policy@@@@QAE@XZ 100466b0 f i libucrt:wsetlocale.obj
 0001:000456c6       ??1?$__crt_unique_heap_ptr@U__crt_locale_pointers@@U__crt_internal_free_policy@@@@QAE@XZ 100466c6 f i libucrt:wsetlocale.obj
 0001:000456dc       ??1?$__crt_unique_heap_ptr@U__crt_multibyte_data@@U__crt_internal_free_policy@@@@QAE@XZ 100466dc f i libucrt:wsetlocale.obj
 0001:000456f2       ??B?$__crt_unique_heap_ptr@U__crt_locale_data@@U__crt_internal_free_policy@@@@QBE_NXZ 100466f2 f i libucrt:wsetlocale.obj
 0001:000456fc       ??B?$__crt_unique_heap_ptr@U__crt_locale_pointers@@U__crt_internal_free_policy@@@@QBE_NXZ 100466fc f i libucrt:wsetlocale.obj
 0001:00045706       ??B?$__crt_unique_heap_ptr@U__crt_multibyte_data@@U__crt_internal_free_policy@@@@QBE_NXZ 10046706 f i libucrt:wsetlocale.obj
 0001:0004592f       ?detach@?$__crt_unique_heap_ptr@U__crt_locale_data@@U__crt_internal_free_policy@@@@QAEPAU__crt_locale_data@@XZ 1004692f f i libucrt:wsetlocale.obj
 0001:00045935       ?detach@?$__crt_unique_heap_ptr@U__crt_locale_pointers@@U__crt_internal_free_policy@@@@QAEPAU__crt_locale_pointers@@XZ 10046935 f i libucrt:wsetlocale.obj
 0001:0004593b       ?detach@?$__crt_unique_heap_ptr@U__crt_multibyte_data@@U__crt_internal_free_policy@@@@QAEPAU__crt_multibyte_data@@XZ 1004693b f i libucrt:wsetlocale.obj
 0001:00045941       ?get@?$__crt_unique_heap_ptr@U__crt_locale_data@@U__crt_internal_free_policy@@@@QBEPAU__crt_locale_data@@XZ 10046941 f i libucrt:wsetlocale.obj
 0001:00045944       ?get@?$__crt_unique_heap_ptr@U__crt_locale_pointers@@U__crt_internal_free_policy@@@@QBEPAU__crt_locale_pointers@@XZ 10046944 f i libucrt:wsetlocale.obj
 0001:00045947       ?get@?$__crt_unique_heap_ptr@U__crt_multibyte_data@@U__crt_internal_free_policy@@@@QBEPAU__crt_multibyte_data@@XZ 10046947 f i libucrt:wsetlocale.obj
 0001:0004594a       ?is_valid@?$__crt_unique_heap_ptr@U__crt_locale_data@@U__crt_internal_free_policy@@@@QBE_NXZ 1004694a f i libucrt:wsetlocale.obj
 0001:00045954       ?is_valid@?$__crt_unique_heap_ptr@U__crt_locale_pointers@@U__crt_internal_free_policy@@@@QBE_NXZ 10046954 f i libucrt:wsetlocale.obj
 0001:0004595e       ?is_valid@?$__crt_unique_heap_ptr@U__crt_multibyte_data@@U__crt_internal_free_policy@@@@QBE_NXZ 1004695e f i libucrt:wsetlocale.obj
 0001:00045968       ?release@?$__crt_unique_heap_ptr@U__crt_locale_data@@U__crt_internal_free_policy@@@@QAEXXZ 10046968 f i libucrt:wsetlocale.obj
 0001:0004597e       ?release@?$__crt_unique_heap_ptr@U__crt_locale_pointers@@U__crt_internal_free_policy@@@@QAEXXZ 1004697e f i libucrt:wsetlocale.obj
 0001:00045994       ?release@?$__crt_unique_heap_ptr@U__crt_multibyte_data@@U__crt_internal_free_policy@@@@QAEXXZ 10046994 f i libucrt:wsetlocale.obj
 0001:000459aa       ___acrt_copy_locale_name   100469aa f   libucrt:wsetlocale.obj
 0001:00045a29       ___acrt_set_locale_changed 10046a29 f   libucrt:wsetlocale.obj
 0001:00045a36       ___acrt_uninitialize_locale 10046a36 f   libucrt:wsetlocale.obj
 0001:00045a9c       ___lc_lctowcs              10046a9c f   libucrt:wsetlocale.obj
 0001:00045b28       ___lc_wcstolc              10046b28 f   libucrt:wsetlocale.obj
 0001:00045ca2       __configthreadlocale       10046ca2 f   libucrt:wsetlocale.obj
 0001:00045d56       __create_locale            10046d56 f   libucrt:wsetlocale.obj
 0001:00045dd3       __expandlocale             10046dd3 f   libucrt:wsetlocale.obj
 0001:00046227       __free_locale              10047227 f   libucrt:wsetlocale.obj
 0001:0004630d       __get_current_locale       1004730d f   libucrt:wsetlocale.obj
 0001:000463a6       __wcreate_locale           100473a6 f   libucrt:wsetlocale.obj
 0001:000464f1       __wcscats                  100474f1 f   libucrt:wsetlocale.obj
 0001:00046542       __wsetlocale               10047542 f   libucrt:wsetlocale.obj
 0001:00047068       ___p___mb_cur_max          10048068 f   libucrt:nlsdata.obj
 0001:00047098       __chgsign                  10048098 f   libucrt:ieeemisc.obj
 0001:000470d2       __chgsignf                 100480d2 f   libucrt:ieeemisc.obj
 0001:000470fd       __copysign                 100480fd f   libucrt:ieeemisc.obj
 0001:00047131       __copysignf                10048131 f   libucrt:ieeemisc.obj
 0001:00047156       __finite                   10048156 f   libucrt:ieeemisc.obj
 0001:00047176       __fpclass                  10048176 f   libucrt:ieeemisc.obj
 0001:00047243       __isnan                    10048243 f   libucrt:ieeemisc.obj
 0001:00047286       __logb                     10048286 f   libucrt:ieeemisc.obj
 0001:0004738b       __nextafter                1004838b f   libucrt:ieeemisc.obj
 0001:000473b1       __scalb                    100483b1 f   libucrt:ieeemisc.obj
 0001:000473d1       __add_exp                  100483d1 f   libucrt:util.obj
 0001:0004740b       __decomp                   1004840b f   libucrt:util.obj
 0001:00047514       __get_exp                  10048514 f   libucrt:util.obj
 0001:00047533       __set_bexp                 10048533 f   libucrt:util.obj
 0001:00047566       __set_exp                  10048566 f   libucrt:util.obj
 0001:000475a0       __sptype                   100485a0 f   libucrt:util.obj
 0001:00047615       ___clrfp_sse2              10048615 f   libucrt:fpctrl.obj
 0001:0004763e       ___ctrlfp_sse2             1004863e f   libucrt:fpctrl.obj
 0001:00047687       ___fclrf_sse2              10048687 f   libucrt:fpctrl.obj
 0001:000476ad       ___get_fpsr_sse2           100486ad f   libucrt:fpctrl.obj
 0001:000476d2       ___set_fpsr_sse2           100486d2 f   libucrt:fpctrl.obj
 0001:00047765       ___set_statfp_sse2         10048765 f   libucrt:fpctrl.obj
 0001:00047786       ___statfp_sse2             10048786 f   libucrt:fpctrl.obj
 0001:000477a0       __clrfp                    100487a0 f   libucrt:fpctrl.obj
 0001:000477b7       __ctrlfp                   100487b7 f   libucrt:fpctrl.obj
 0001:000477ee       __set_statfp               100487ee f   libucrt:fpctrl.obj
 0001:0004785f       __statfp                   1004885f f   libucrt:fpctrl.obj
 0001:0004793c       ___acrt_report_runtime_error 1004893c f   libucrt:report_runtime_error.obj
 0001:00047aa2       __query_app_type           10048aa2 f   libucrt:report_runtime_error.obj
 0001:00047aa8       __set_app_type             10048aa8 f   libucrt:report_runtime_error.obj
 0001:00047f94       __i64toa                   10048f94 f   libucrt:xtoa.obj
 0001:00047fe7       __i64toa_s                 10048fe7 f   libucrt:xtoa.obj
 0001:00048038       __i64tow                   10049038 f   libucrt:xtoa.obj
 0001:0004808b       __i64tow_s                 1004908b f   libucrt:xtoa.obj
 0001:000480dc       __itoa                     100490dc f   libucrt:xtoa.obj
 0001:00048120       __itoa_s                   10049120 f   libucrt:xtoa.obj
 0001:00048162       __itow                     10049162 f   libucrt:xtoa.obj
 0001:000481a6       __itow_s                   100491a6 f   libucrt:xtoa.obj
 0001:000481e8       __ltoa                     100491e8 f   libucrt:xtoa.obj
 0001:0004822c       __ltoa_s                   1004922c f   libucrt:xtoa.obj
 0001:0004826e       __ltow                     1004926e f   libucrt:xtoa.obj
 0001:000482b2       __ltow_s                   100492b2 f   libucrt:xtoa.obj
 0001:000482f4       __ui64toa                  100492f4 f   libucrt:xtoa.obj
 0001:0004831e       __ui64toa_s                1004931e f   libucrt:xtoa.obj
 0001:00048346       __ui64tow                  10049346 f   libucrt:xtoa.obj
 0001:00048370       __ui64tow_s                10049370 f   libucrt:xtoa.obj
 0001:00048398       __ultoa                    10049398 f   libucrt:xtoa.obj
 0001:000483be       __ultoa_s                  100493be f   libucrt:xtoa.obj
 0001:000483e2       __ultow                    100493e2 f   libucrt:xtoa.obj
 0001:00048408       __ultow_s                  10049408 f   libucrt:xtoa.obj
 0001:0004842c       __set_error_mode           1004942c f   libucrt:set_error_mode.obj
 0001:00048508       _wcscat_s                  10049508 f   libucrt:wcscat_s.obj
 0001:00048612       _wcscpy_s                  10049612 f   libucrt:wcscpy_s.obj
 0001:000487b2       _wcsncat_s                 100497b2 f   libucrt:wcsncat_s.obj
 0001:00048842       _strcat_s                  10049842 f   libucrt:strcat_s.obj
 0001:000489c9       _strncat_s                 100499c9 f   libucrt:strncat_s.obj
 0001:00048bf4       ??$message_box@$$TAAPBDAAPBDAAI@?$__crt_char_traits@D@@SAH$$QA$$TAAPBD1AAI@Z 10049bf4 f i libucrt:crtmbox.obj
 0001:00048c1c       ??$message_box@$$TAAPB_WAAPB_WAAI@?$__crt_char_traits@_W@@SAH$$QA$$TAAPB_W1AAI@Z 10049c1c f i libucrt:crtmbox.obj
 0001:00048c44       ??$message_box@$$TABQBDABQBDK@?$__crt_char_traits@D@@SAH$$QA$$TABQBD1$$QAK@Z 10049c44 f i libucrt:crtmbox.obj
 0001:00048c6c       ??$message_box@$$TABQB_WABQB_WK@?$__crt_char_traits@_W@@SAH$$QA$$TABQB_W1$$QAK@Z 10049c6c f i libucrt:crtmbox.obj
 0001:00048c94       ??$message_box@PAUHWND__@@ABQBDABQBDABI@?$__crt_char_traits@D@@SAH$$QAPAUHWND__@@ABQBD1ABI@Z 10049c94 f i libucrt:crtmbox.obj
 0001:00048cbc       ??$message_box@PAUHWND__@@ABQB_WABQB_WABI@?$__crt_char_traits@_W@@SAH$$QAPAUHWND__@@ABQB_W1ABI@Z 10049cbc f i libucrt:crtmbox.obj
 0001:00048d38       ??$output_debug_string@ABQBD@?$__crt_char_traits@D@@SAXABQBD@Z 10049d38 f i libucrt:crtmbox.obj
 0001:00048d4e       ??$output_debug_string@ABQB_W@?$__crt_char_traits@_W@@SAXABQB_W@Z 10049d4e f i libucrt:crtmbox.obj
 0001:00048d64       ??0?$__crt_unique_handle_t@U__crt_handle_traits@@@@QAE@QAX@Z 10049d64 f i libucrt:crtmbox.obj
 0001:00048d78       ??1?$__crt_unique_handle_t@U__crt_handle_traits@@@@QAE@XZ 10049d78 f i libucrt:crtmbox.obj
 0001:00048d94       ??B?$__crt_unique_handle_t@U__crt_handle_traits@@@@QBE_NXZ 10049d94 f i libucrt:crtmbox.obj
 0001:00048d9f       ?close@?$__crt_unique_handle_t@U__crt_handle_traits@@@@QAEXXZ 10049d9f f i libucrt:crtmbox.obj
 0001:00048dbb       ?close@__crt_handle_traits@@SA_NPAX@Z 10049dbb f i libucrt:crtmbox.obj
 0001:00048dd6       ?get@?$__crt_unique_handle_t@U__crt_handle_traits@@@@QBEPAXXZ 10049dd6 f i libucrt:crtmbox.obj
 0001:00048dd9       ?get_invalid_value@__crt_handle_traits@@SAPAXXZ 10049dd9 f i libucrt:crtmbox.obj
 0001:00048ddd       ?is_valid@?$__crt_unique_handle_t@U__crt_handle_traits@@@@QBE_NXZ 10049ddd f i libucrt:crtmbox.obj
 0001:00048de8       ___acrt_show_narrow_message_box 10049de8 f   libucrt:crtmbox.obj
 0001:00048df5       ___acrt_show_wide_message_box 10049df5 f   libucrt:crtmbox.obj
 0001:00048e02       ??$?RV<lambda_d92cfe8357b99225085016881b624cb0>@@AAV<lambda_b721fa326cdb32351d23dfa67958c160>@@V<lambda_42d75b0848218ec137fa420c8ba9fdf9>@@@?$__crt_seh_guarded_call@H@@QAEH$$QAV<lambda_d92cfe8357b99225085016881b624cb0>@@AAV<lambda_b721fa326cdb32351d23dfa67958c160>@@$$QAV<lambda_42d75b0848218ec137fa420c8ba9fdf9>@@@Z 10049e02 f i libucrt:setvbuf.obj
 0001:00048e67       ??$__acrt_lock_stream_and_call@V<lambda_b721fa326cdb32351d23dfa67958c160>@@@@YAHQAU_iobuf@@$$QAV<lambda_b721fa326cdb32351d23dfa67958c160>@@@Z 10049e67 f i libucrt:setvbuf.obj
 0001:00049004       _setvbuf                   1004a004 f   libucrt:setvbuf.obj
 0001:00049097       ??$?B$$A6AXH@Z@__crt_fast_encoded_nullptr_t@@QBEP6AXH@ZXZ 1004a097 f i libucrt:signal.obj
 0001:000490b5       ??$?RV<lambda_a048d3beccc847880fc8490e18b82769>@@AAV<lambda_ec61778202f4f5fc7e7711acc23c3bca>@@V<lambda_f7496a158712204296dd6628a163878e>@@@?$__crt_seh_guarded_call@P6AXH@Z@@QAEP6AXH@Z$$QAV<lambda_a048d3beccc847880fc8490e18b82769>@@AAV<lambda_ec61778202f4f5fc7e7711acc23c3bca>@@$$QAV<lambda_f7496a158712204296dd6628a163878e>@@@Z 1004a0b5 f i libucrt:signal.obj
 0001:00049125       ??$__acrt_lock_and_call@V<lambda_ec61778202f4f5fc7e7711acc23c3bca>@@@@YAP6AXH@ZW4__acrt_lock_id@@$$QAV<lambda_ec61778202f4f5fc7e7711acc23c3bca>@@@Z 1004a125 f i libucrt:signal.obj
 0001:00049157       ??$__crt_fast_decode_pointer@P6AXH@Z@@YAP6AXH@ZQ6AXH@Z@Z 1004a157 f i libucrt:signal.obj
 0001:00049172       ??$__crt_fast_encode_pointer@P6AXH@Z@@YAP6AXH@ZQ6AXH@Z@Z 1004a172 f i libucrt:signal.obj
 0001:0004931c       ?initialize@?$dual_state_global@P6AXH@Z@__crt_state_management@@QAEXQ6AXH@Z@Z 1004a31c f i libucrt:signal.obj
 0001:000493c8       ?value@?$dual_state_global@P6AXH@Z@__crt_state_management@@QAEAAP6AXH@ZXZ 1004a3c8 f i libucrt:signal.obj
 0001:000493cb       ___acrt_get_sigabrt_handler 1004a3cb f   libucrt:signal.obj
 0001:000493e7       ___acrt_initialize_signal_handlers 1004a3e7 f   libucrt:signal.obj
 0001:00049430       ___fpecode                 1004a430 f   libucrt:signal.obj
 0001:0004943b       ___pxcptinfoptrs           1004a43b f   libucrt:signal.obj
 0001:00049446       _raise                     1004a446 f   libucrt:signal.obj
 0001:000496d0       _signal                    1004a6d0 f   libucrt:signal.obj
 0001:000498ee       ??$__crt_fast_decode_pointer@P6AHPAU_exception@@@Z@@YAP6AHPAU_exception@@@ZQ6AH0@Z@Z 1004a8ee f i libucrt:matherr.obj
 0001:00049909       ??$__crt_fast_encode_pointer@P6AHPAU_exception@@@Z@@YAP6AHPAU_exception@@@ZQ6AH0@Z@Z 1004a909 f i libucrt:matherr.obj
 0001:0004992f       ?initialize@?$dual_state_global@P6AHPAU_exception@@@Z@__crt_state_management@@QAEXQ6AHPAU_exception@@@Z@Z 1004a92f f i libucrt:matherr.obj
 0001:0004996c       ?value@?$dual_state_global@P6AHPAU_exception@@@Z@__crt_state_management@@QAEAAP6AHPAU_exception@@@ZXZ 1004a96c f i libucrt:matherr.obj
 0001:0004996f       ___acrt_has_user_matherr   1004a96f f   libucrt:matherr.obj
 0001:0004998e       ___acrt_initialize_user_matherr 1004a98e f   libucrt:matherr.obj
 0001:000499a7       ___acrt_invoke_user_matherr 1004a9a7 f   libucrt:matherr.obj
 0001:00049a02       ___setusermatherr          1004aa02 f   libucrt:matherr.obj
 0001:0004a414       ??$find_first_file_ex@ABQADW4_FINDEX_INFO_LEVELS@@PAU_WIN32_FIND_DATAA@@W4_FINDEX_SEARCH_OPS@@$$TH@?$__crt_char_traits@D@@SAPAXABQAD$$QAW4_FINDEX_INFO_LEVELS@@$$QAPAU_WIN32_FIND_DATAA@@$$QAW4_FINDEX_SEARCH_OPS@@$$QA$$T$$QAH@Z 1004b414 f i libucrt:argv_wildcards.obj
 0001:0004a449       ??$find_first_file_ex@ABQA_WW4_FINDEX_INFO_LEVELS@@PAU_WIN32_FIND_DATAW@@W4_FINDEX_SEARCH_OPS@@$$TH@?$__crt_char_traits@_W@@SAPAXABQA_W$$QAW4_FINDEX_INFO_LEVELS@@$$QAPAU_WIN32_FIND_DATAW@@$$QAW4_FINDEX_SEARCH_OPS@@$$QA$$T$$QAH@Z 1004b449 f i libucrt:argv_wildcards.obj
 0001:0004a47e       ??$find_next_file@PAXPAU_WIN32_FIND_DATAA@@@?$__crt_char_traits@D@@SAH$$QAPAX$$QAPAU_WIN32_FIND_DATAA@@@Z 1004b47e f i libucrt:argv_wildcards.obj
 0001:0004a49a       ??$find_next_file@PAXPAU_WIN32_FIND_DATAW@@@?$__crt_char_traits@_W@@SAH$$QAPAX$$QAPAU_WIN32_FIND_DATAW@@@Z 1004b49a f i libucrt:argv_wildcards.obj
 0001:0004a4b6       ??$tcsncpy_s@AAPADIAAPADABI@?$__crt_char_traits@D@@SAHAAPAD$$QAI0ABI@Z 1004b4b6 f i libucrt:argv_wildcards.obj
 0001:0004a4e1       ??$tcsncpy_s@AAPA_WIAAPA_WABI@?$__crt_char_traits@_W@@SAHAAPA_W$$QAI0ABI@Z 1004b4e1 f i libucrt:argv_wildcards.obj
 0001:0004a50c       ??$tcsncpy_s@PAD$$CBIABQBDABI@?$__crt_char_traits@D@@SAH$$QAPAD$$QBIABQBDABI@Z 1004b50c f i libucrt:argv_wildcards.obj
 0001:0004a537       ??$tcsncpy_s@PADABIABQBDABI@?$__crt_char_traits@D@@SAH$$QAPADABIABQBD1@Z 1004b537 f i libucrt:argv_wildcards.obj
 0001:0004a562       ??$tcsncpy_s@PA_W$$CBIABQB_WABI@?$__crt_char_traits@_W@@SAH$$QAPA_W$$QBIABQB_WABI@Z 1004b562 f i libucrt:argv_wildcards.obj
 0001:0004a58d       ??$tcsncpy_s@PA_WABIABQB_WABI@?$__crt_char_traits@_W@@SAH$$QAPA_WABIABQB_W1@Z 1004b58d f i libucrt:argv_wildcards.obj
 0001:0004a5b8       ??$tcspbrk@AAPADAAY02$$CBD@?$__crt_char_traits@D@@SAPADAAPADAAY02$$CBD@Z 1004b5b8 f i libucrt:argv_wildcards.obj
 0001:0004a5d3       ??$tcspbrk@AAPA_WAAY02$$CB_W@?$__crt_char_traits@_W@@SAPA_WAAPA_WAAY02$$CB_W@Z 1004b5d3 f i libucrt:argv_wildcards.obj
 0001:0004a5ee       ??0?$__crt_unique_handle_t@U__crt_findfile_traits@@@@QAE@QAX@Z 1004b5ee f i libucrt:argv_wildcards.obj
 0001:0004a602       ??0?$argument_list@D@?A0xb0e4b824@@QAE@XZ 1004b602 f i libucrt:argv_wildcards.obj
 0001:0004a612       ??0?$argument_list@_W@?A0xb0e4b824@@QAE@XZ 1004b612 f i libucrt:argv_wildcards.obj
 0001:0004a622       ??1?$__crt_unique_handle_t@U__crt_findfile_traits@@@@QAE@XZ 1004b622 f i libucrt:argv_wildcards.obj
 0001:0004a63e       ??1?$argument_list@D@?A0xb0e4b824@@QAE@XZ 1004b63e f i libucrt:argv_wildcards.obj
 0001:0004a66c       ??1?$argument_list@_W@?A0xb0e4b824@@QAE@XZ 1004b66c f i libucrt:argv_wildcards.obj
 0001:0004a6fa       ?append@?$argument_list@D@?A0xb0e4b824@@QAEHQAD@Z 1004b6fa f i libucrt:argv_wildcards.obj
 0001:0004a73c       ?append@?$argument_list@_W@?A0xb0e4b824@@QAEHQA_W@Z 1004b73c f i libucrt:argv_wildcards.obj
 0001:0004a77e       ?begin@?$argument_list@D@?A0xb0e4b824@@QBEPAPADXZ 1004b77e f i libucrt:argv_wildcards.obj
 0001:0004a781       ?begin@?$argument_list@_W@?A0xb0e4b824@@QBEPAPA_WXZ 1004b781 f i libucrt:argv_wildcards.obj
 0001:0004a784       ?close@?$__crt_unique_handle_t@U__crt_findfile_traits@@@@QAEXXZ 1004b784 f i libucrt:argv_wildcards.obj
 0001:0004a7a0       ?close@__crt_findfile_traits@@SA_NPAX@Z 1004b7a0 f i libucrt:argv_wildcards.obj
 0001:0004a7bb       ?end@?$argument_list@D@?A0xb0e4b824@@QBEPAPADXZ 1004b7bb f i libucrt:argv_wildcards.obj
 0001:0004a7bf       ?end@?$argument_list@_W@?A0xb0e4b824@@QBEPAPA_WXZ 1004b7bf f i libucrt:argv_wildcards.obj
 0001:0004a7c3       ?expand_if_necessary@?$argument_list@D@?A0xb0e4b824@@AAEHXZ 1004b7c3 f i libucrt:argv_wildcards.obj
 0001:0004a86b       ?expand_if_necessary@?$argument_list@_W@?A0xb0e4b824@@AAEHXZ 1004b86b f i libucrt:argv_wildcards.obj
 0001:0004a913       ?get@?$__crt_unique_handle_t@U__crt_findfile_traits@@@@QBEPAXXZ 1004b913 f i libucrt:argv_wildcards.obj
 0001:0004a916       ?get_invalid_value@__crt_findfile_traits@@SAPAXXZ 1004b916 f i libucrt:argv_wildcards.obj
 0001:0004a937       ?size@?$argument_list@D@?A0xb0e4b824@@QBEIXZ 1004b937 f i libucrt:argv_wildcards.obj
 0001:0004a942       ?size@?$argument_list@_W@?A0xb0e4b824@@QBEIXZ 1004b942 f i libucrt:argv_wildcards.obj
 0001:0004a94d       ?strpbrk@@YAPADQADQBD@Z    1004b94d f i libucrt:argv_wildcards.obj
 0001:0004a95a       ?wcspbrk@@YAPA_WPA_WPB_W@Z 1004b95a f i libucrt:argv_wildcards.obj
 0001:0004a967       ___acrt_expand_narrow_argv_wildcards 1004b967 f   libucrt:argv_wildcards.obj
 0001:0004a974       ___acrt_expand_wide_argv_wildcards 1004b974 f   libucrt:argv_wildcards.obj
 0001:0004a981       ??$?RV<lambda_978dc153c237d78434369da87b74ff60>@@AAV<lambda_ad1ced32f4ac17aa236e5ef05d6b3b7c>@@V<lambda_4a8533e2866a575feecb8298ce776b0d>@@@?$__crt_seh_guarded_call@X@@QAEX$$QAV<lambda_978dc153c237d78434369da87b74ff60>@@AAV<lambda_ad1ced32f4ac17aa236e5ef05d6b3b7c>@@$$QAV<lambda_4a8533e2866a575feecb8298ce776b0d>@@@Z 1004b981 f i libucrt:mbctype.obj
 0001:0004a9d4       ??$__acrt_lock_and_call@V<lambda_ad1ced32f4ac17aa236e5ef05d6b3b7c>@@@@YAXW4__acrt_lock_id@@$$QAV<lambda_ad1ced32f4ac17aa236e5ef05d6b3b7c>@@@Z 1004b9d4 f i libucrt:mbctype.obj
 0001:0004afe5       ___acrt_initialize_multibyte 1004bfe5 f   libucrt:mbctype.obj
 0001:0004b00a       ___acrt_update_thread_multibyte_data 1004c00a f   libucrt:mbctype.obj
 0001:0004b0d4       ___p__mbcasemap            1004c0d4 f   libucrt:mbctype.obj
 0001:0004b0da       ___p__mbctype              1004c0da f   libucrt:mbctype.obj
 0001:0004b0e0       __getmbcp                  1004c0e0 f   libucrt:mbctype.obj
 0001:0004b123       __setmbcp                  1004c123 f   libucrt:mbctype.obj
 0001:0004b13a       __setmbcp_nolock           1004c13a f   libucrt:mbctype.obj
 0001:0004b4b7       __ismbbalnum               1004c4b7 f   libucrt:ismbbyte.obj
 0001:0004b4d8       __ismbbalnum_l             1004c4d8 f   libucrt:ismbbyte.obj
 0001:0004b4fb       __ismbbalpha               1004c4fb f   libucrt:ismbbyte.obj
 0001:0004b51c       __ismbbalpha_l             1004c51c f   libucrt:ismbbyte.obj
 0001:0004b53f       __ismbbblank               1004c53f f   libucrt:ismbbyte.obj
 0001:0004b56a       __ismbbblank_l             1004c56a f   libucrt:ismbbyte.obj
 0001:0004b597       __ismbbgraph               1004c597 f   libucrt:ismbbyte.obj
 0001:0004b5b8       __ismbbgraph_l             1004c5b8 f   libucrt:ismbbyte.obj
 0001:0004b5db       __ismbbkalnum              1004c5db f   libucrt:ismbbyte.obj
 0001:0004b5f9       __ismbbkalnum_l            1004c5f9 f   libucrt:ismbbyte.obj
 0001:0004b618       __ismbbkana                1004c618 f   libucrt:ismbbyte.obj
 0001:0004b62f       __ismbbkana_l              1004c62f f   libucrt:ismbbyte.obj
 0001:0004b694       __ismbbkprint              1004c694 f   libucrt:ismbbyte.obj
 0001:0004b6b2       __ismbbkprint_l            1004c6b2 f   libucrt:ismbbyte.obj
 0001:0004b6d1       __ismbbkpunct              1004c6d1 f   libucrt:ismbbyte.obj
 0001:0004b6ef       __ismbbkpunct_l            1004c6ef f   libucrt:ismbbyte.obj
 0001:0004b70e       __ismbblead                1004c70e f   libucrt:ismbbyte.obj
 0001:0004b72c       __ismbblead_l              1004c72c f   libucrt:ismbbyte.obj
 0001:0004b74b       __ismbbprint               1004c74b f   libucrt:ismbbyte.obj
 0001:0004b76c       __ismbbprint_l             1004c76c f   libucrt:ismbbyte.obj
 0001:0004b78f       __ismbbpunct               1004c78f f   libucrt:ismbbyte.obj
 0001:0004b7ad       __ismbbpunct_l             1004c7ad f   libucrt:ismbbyte.obj
 0001:0004b7cc       __ismbbtrail               1004c7cc f   libucrt:ismbbyte.obj
 0001:0004b7ea       __ismbbtrail_l             1004c7ea f   libucrt:ismbbyte.obj
 0001:0004b809       ___acrt_initialize_command_line 1004c809 f   libucrt:argv_data.obj
 0001:0004b828       ___acrt_uninitialize_command_line 1004c828 f   libucrt:argv_data.obj
 0001:0004b82b       ___p___argc                1004c82b f   libucrt:argv_data.obj
 0001:0004b831       ___p___argv                1004c831 f   libucrt:argv_data.obj
 0001:0004b837       ___p___wargv               1004c837 f   libucrt:argv_data.obj
 0001:0004b83d       ___p__acmdln               1004c83d f   libucrt:argv_data.obj
 0001:0004b843       ___p__pgmptr               1004c843 f   libucrt:argv_data.obj
 0001:0004b849       ___p__wcmdln               1004c849 f   libucrt:argv_data.obj
 0001:0004b84f       ___p__wpgmptr              1004c84f f   libucrt:argv_data.obj
 0001:0004b855       __get_pgmptr               1004c855 f   libucrt:argv_data.obj
 0001:0004b892       __get_wpgmptr              1004c892 f   libucrt:argv_data.obj
 0001:0004b8cf       ??0?$__crt_unique_handle_t@Uenvironment_strings_traits@?A0x588e5281@@@@QAE@QA_W@Z 1004c8cf f i libucrt:get_environment_from_os.obj
 0001:0004b8e3       ??1?$__crt_unique_handle_t@Uenvironment_strings_traits@?A0x588e5281@@@@QAE@XZ 1004c8e3 f i libucrt:get_environment_from_os.obj
 0001:0004b8ff       ??B?$__crt_unique_handle_t@Uenvironment_strings_traits@?A0x588e5281@@@@QBE_NXZ 1004c8ff f i libucrt:get_environment_from_os.obj
 0001:0004b909       ?close@?$__crt_unique_handle_t@Uenvironment_strings_traits@?A0x588e5281@@@@QAEXXZ 1004c909 f i libucrt:get_environment_from_os.obj
 0001:0004b925       ?close@environment_strings_traits@?A0x588e5281@@SA_NPA_W@Z 1004c925 f i libucrt:get_environment_from_os.obj
 0001:0004b97f       ?get@?$__crt_unique_handle_t@Uenvironment_strings_traits@?A0x588e5281@@@@QBEPA_WXZ 1004c97f f i libucrt:get_environment_from_os.obj
 0001:0004b982       ?get_invalid_value@environment_strings_traits@?A0x588e5281@@SAPA_WXZ 1004c982 f i libucrt:get_environment_from_os.obj
 0001:0004b985       ?is_valid@?$__crt_unique_handle_t@Uenvironment_strings_traits@?A0x588e5281@@@@QBE_NXZ 1004c985 f i libucrt:get_environment_from_os.obj
 0001:0004b98f       ___dcrt_get_narrow_environment_from_os 1004c98f f   libucrt:get_environment_from_os.obj
 0001:0004ba32       ___dcrt_get_wide_environment_from_os 1004ca32 f   libucrt:get_environment_from_os.obj
 0001:0004c2ca       ??$get_or_create_environment_nolock@$$$V@?$__crt_char_traits@D@@SAPAPADXZ 1004d2ca f i libucrt:setenv.obj
 0001:0004c2cf       ??$get_or_create_environment_nolock@$$$V@?$__crt_char_traits@_W@@SAPAPA_WXZ 1004d2cf f i libucrt:setenv.obj
 0001:0004c2d4       ??$set_environment_variable@ABQADQAD@?$__crt_char_traits@D@@SAHABQAD$$QBQAD@Z 1004d2d4 f i libucrt:setenv.obj
 0001:0004c2f0       ??$set_environment_variable@ABQA_WQA_W@?$__crt_char_traits@_W@@SAHABQA_W$$QBQA_W@Z 1004d2f0 f i libucrt:setenv.obj
 0001:0004c30c       ??$tcschr@ABQADD@?$__crt_char_traits@D@@SAPADABQAD$$QAD@Z 1004d30c f i libucrt:setenv.obj
 0001:0004c32c       ??$tcschr@ABQA_WD@?$__crt_char_traits@_W@@SAPA_WABQA_W$$QAD@Z 1004d32c f i libucrt:setenv.obj
 0001:0004c351       ??$tcscpy_s@AAPADABIAAPAD@?$__crt_char_traits@D@@SAHAAPADABI0@Z 1004d351 f i libucrt:setenv.obj
 0001:0004c376       ??$tcscpy_s@AAPA_WABIAAPA_W@?$__crt_char_traits@_W@@SAHAAPA_WABI0@Z 1004d376 f i libucrt:setenv.obj
 0001:0004c39b       ??$tcscpy_s@ABQADABIABQAD@?$__crt_char_traits@D@@SAHABQADABI0@Z 1004d39b f i libucrt:setenv.obj
 0001:0004c3c0       ??$tcscpy_s@ABQA_WABIABQA_W@?$__crt_char_traits@_W@@SAHABQA_WABI0@Z 1004d3c0 f i libucrt:setenv.obj
 0001:0004c3e5       ??$tcsnicoll@ABQBDAAPADABI@?$__crt_char_traits@D@@SAHABQBDAAPADABI@Z 1004d3e5 f i libucrt:setenv.obj
 0001:0004c40a       ??$tcsnicoll@ABQB_WAAPA_WABI@?$__crt_char_traits@_W@@SAHABQB_WAAPA_WABI@Z 1004d40a f i libucrt:setenv.obj
 0001:0004c453       ?strchr@@YAPADQADH@Z       1004d453 f i libucrt:setenv.obj
 0001:0004c460       ?wcschr@@YAPA_WPA_W_W@Z    1004d460 f i libucrt:setenv.obj
 0001:0004c46d       ___dcrt_set_variable_in_narrow_environment_nolock 1004d46d f   libucrt:setenv.obj
 0001:0004c47a       ___dcrt_set_variable_in_wide_environment_nolock 1004d47a f   libucrt:setenv.obj
 0001:0004c487       __recalloc                 1004d487 f   libucrt:recalloc.obj
 0001:0004c494       __recalloc_base            1004d494 f   libucrt:recalloc.obj
 0001:0004c51c       ___acrt_getheap            1004d51c f   libucrt:heap_handle.obj
 0001:0004c522       ___acrt_initialize_heap    1004d522 f   libucrt:heap_handle.obj
 0001:0004c537       ___acrt_uninitialize_heap  1004d537 f   libucrt:heap_handle.obj
 0001:0004c543       __get_heap_handle          1004d543 f   libucrt:heap_handle.obj
 0001:0004c549       ___acrt_execute_initializers 1004d549 f   libucrt:shared_initialization.obj
 0001:0004c5ec       ___acrt_execute_uninitializers 1004d5ec f   libucrt:shared_initialization.obj
 0001:0004c64c       ??$?B$$A6AHI@Z@__crt_fast_encoded_nullptr_t@@QBEP6AHI@ZXZ 1004d64c f i libucrt:new_handler.obj
 0001:0004c66a       ??$__crt_fast_decode_pointer@P6AHI@Z@@YAP6AHI@ZQ6AHI@Z@Z 1004d66a f i libucrt:new_handler.obj
 0001:0004c685       ??$__crt_fast_encode_pointer@P6AHI@Z@@YAP6AHI@ZQ6AHI@Z@Z 1004d685 f i libucrt:new_handler.obj
 0001:0004c6ab       ?_set_new_handler@@YAP6AHI@ZH@Z 1004d6ab f   libucrt:new_handler.obj
 0001:0004c6d1       ?initialize@?$dual_state_global@P6AHI@Z@__crt_state_management@@QAEXQ6AHI@Z@Z 1004d6d1 f i libucrt:new_handler.obj
 0001:0004c70e       ?value@?$dual_state_global@P6AHI@Z@__crt_state_management@@QAEAAP6AHI@ZXZ 1004d70e f i libucrt:new_handler.obj
 0001:0004c711       ___acrt_initialize_new_handler 1004d711 f   libucrt:new_handler.obj
 0001:0004c72a       __callnewh                 1004d72a f   libucrt:new_handler.obj
 0001:0004c77f       __query_new_handler        1004d77f f   libucrt:new_handler.obj
 0001:0004c7e5       __set_new_handler          1004d7e5 f   libucrt:new_handler.obj
 0001:0004c85d       ?value@?$dual_state_global@J@__crt_state_management@@QAEAAJXZ 1004d85d f i libucrt:new_mode.obj
 0001:0004c860       __query_new_mode           1004d860 f   libucrt:new_mode.obj
 0001:0004c866       __set_new_mode             1004d866 f   libucrt:new_mode.obj
 0001:0004c8a0       ___pctype_func             1004d8a0 f   libucrt:ctype.obj
 0001:0004c8cf       ___pwctype_func            1004d8cf f   libucrt:ctype.obj
 0001:0004c8d5       __iswctype_l               1004d8d5 f   libucrt:iswctype.obj
 0001:0004c8ee       _iswctype                  1004d8ee f   libucrt:iswctype.obj
 0001:0004c964       __isctype                  1004d964 f   libucrt:isctype.obj
 0001:0004c9a1       __isctype_l                1004d9a1 f   libucrt:isctype.obj
 0001:0004cc68       ___acrt_DownlevelLCIDToLocaleName 1004dc68 f   libucrt:lcidtoname_downlevel.obj
 0001:0004cd3c       ___acrt_DownlevelLocaleNameToLCID 1004dd3c f   libucrt:lcidtoname_downlevel.obj
 0001:0004cd73       ??$?RV<lambda_61cee617f5178ae960314fd4d05640a0>@@AAV<lambda_6978c1fb23f02e42e1d9e99668cc68aa>@@V<lambda_9cd88cf8ad10232537feb2133f08c833>@@@?$__crt_seh_guarded_call@H@@QAEH$$QAV<lambda_61cee617f5178ae960314fd4d05640a0>@@AAV<lambda_6978c1fb23f02e42e1d9e99668cc68aa>@@$$QAV<lambda_9cd88cf8ad10232537feb2133f08c833>@@@Z 1004dd73 f i libucrt:commit.obj
 0001:0004ce31       ??$__acrt_lowio_lock_fh_and_call@V<lambda_6978c1fb23f02e42e1d9e99668cc68aa>@@@@YAHH$$QAV<lambda_6978c1fb23f02e42e1d9e99668cc68aa>@@@Z 1004de31 f i libucrt:commit.obj
 0001:0004cf23       __commit                   1004df23 f   libucrt:commit.obj
 0001:0004cfad       ??$?RU__crt_lowio_handle_data@@@__crt_internal_free_policy@@QBEXQBU__crt_lowio_handle_data@@@Z 1004dfad f i libucrt:osfinfo.obj
 0001:0004cfc3       ??0?$__crt_unique_heap_ptr@U__crt_lowio_handle_data@@U__crt_internal_free_policy@@@@QAE@QAU__crt_lowio_handle_data@@@Z 1004dfc3 f i libucrt:osfinfo.obj
 0001:0004cfd7       ??1?$__crt_unique_heap_ptr@U__crt_lowio_handle_data@@U__crt_internal_free_policy@@@@QAE@XZ 1004dfd7 f i libucrt:osfinfo.obj
 0001:0004cfed       ??B?$__crt_unique_heap_ptr@U__crt_lowio_handle_data@@U__crt_internal_free_policy@@@@QBE_NXZ 1004dfed f i libucrt:osfinfo.obj
 0001:0004cff7       ?detach@?$__crt_unique_heap_ptr@U__crt_lowio_handle_data@@U__crt_internal_free_policy@@@@QAEPAU__crt_lowio_handle_data@@XZ 1004dff7 f i libucrt:osfinfo.obj
 0001:0004cffd       ?get@?$__crt_unique_heap_ptr@U__crt_lowio_handle_data@@U__crt_internal_free_policy@@@@QBEPAU__crt_lowio_handle_data@@XZ 1004dffd f i libucrt:osfinfo.obj
 0001:0004d000       ?is_valid@?$__crt_unique_heap_ptr@U__crt_lowio_handle_data@@U__crt_internal_free_policy@@@@QBE_NXZ 1004e000 f i libucrt:osfinfo.obj
 0001:0004d00a       ?release@?$__crt_unique_heap_ptr@U__crt_lowio_handle_data@@U__crt_internal_free_policy@@@@QAEXXZ 1004e00a f i libucrt:osfinfo.obj
 0001:0004d020       ___acrt_lowio_create_handle_array 1004e020 f   libucrt:osfinfo.obj
 0001:0004d0b8       ___acrt_lowio_destroy_handle_array 1004e0b8 f   libucrt:osfinfo.obj
 0001:0004d0fa       ___acrt_lowio_ensure_fh_exists 1004e0fa f   libucrt:osfinfo.obj
 0001:0004d1b8       ___acrt_lowio_lock_fh      1004e1b8 f   libucrt:osfinfo.obj
 0001:0004d1e3       ___acrt_lowio_set_os_handle 1004e1e3 f   libucrt:osfinfo.obj
 0001:0004d29c       ___acrt_lowio_unlock_fh    1004e29c f   libucrt:osfinfo.obj
 0001:0004d2c7       __alloc_osfhnd             1004e2c7 f   libucrt:osfinfo.obj
 0001:0004d41d       __free_osfhnd              1004e41d f   libucrt:osfinfo.obj
 0001:0004d4d2       __get_osfhandle            1004e4d2 f   libucrt:osfinfo.obj
 0001:0004d556       __open_osfhandle           1004e556 f   libucrt:osfinfo.obj
 0001:0004d6a7       _wcsncmp                   1004e6a7 f   libucrt:wcsncmp.obj
 0001:0004d6ef       __wcsnicmp                 1004e6ef f   libucrt:wcsnicmp.obj
 0001:0004d7d5       __wcsnicmp_l               1004e7d5 f   libucrt:wcsnicmp.obj
 0001:0004d920       _strncmp                   1004e920 f   libucrt:strncmp.obj
 0001:0004d9b6       __strnicmp                 1004e9b6 f   libucrt:strnicmp.obj
 0001:0004da3d       __strnicmp_l               1004ea3d f   libucrt:strnicmp.obj
 0001:0004db21       ??$__vcrt_va_start_verify_argument_type@$$CBH@@YAXXZ 1004eb21 f i libucrt:open.obj
 0001:0004ded8       ??$tsopen_nolock@PAHABQAHABQBDABHABHABHABH@?$__crt_char_traits@D@@SAH$$QAPAHABQAHABQBDABH333@Z 1004eed8 f i libucrt:open.obj
 0001:0004df16       ??$tsopen_nolock@PAHABQAHABQB_WABHABHABHABH@?$__crt_char_traits@_W@@SAH$$QAPAHABQAHABQB_WABH333@Z 1004ef16 f i libucrt:open.obj
 0001:0004df54       ??$tsopen_nolock@PAHPAHABQBDABHHABHH@?$__crt_char_traits@D@@SAH$$QAPAH0ABQBDABH$$QAH23@Z 1004ef54 f i libucrt:open.obj
 0001:0004df92       ??$tsopen_nolock@PAHPAHABQB_WABHHABHH@?$__crt_char_traits@_W@@SAH$$QAPAH0ABQB_WABH$$QAH23@Z 1004ef92 f i libucrt:open.obj
 0001:0004e760       __open                     1004f760 f   libucrt:open.obj
 0001:0004e77e       __sopen                    1004f77e f   libucrt:open.obj
 0001:0004e7c0       __sopen_dispatch           1004f7c0 f   libucrt:open.obj
 0001:0004e7cd       __sopen_nolock             1004f7cd f   libucrt:open.obj
 0001:0004e832       __sopen_s                  1004f832 f   libucrt:open.obj
 0001:0004e85a       __wopen                    1004f85a f   libucrt:open.obj
 0001:0004e878       __wsopen                   1004f878 f   libucrt:open.obj
 0001:0004e8ba       __wsopen_dispatch          1004f8ba f   libucrt:open.obj
 0001:0004e8c7       __wsopen_nolock            1004f8c7 f   libucrt:open.obj
 0001:0004ecba       __wsopen_s                 1004fcba f   libucrt:open.obj
 0001:0004ece2       ___p__commode              1004fce2 f   libucrt:ncommode.obj
 0001:0004ece8       __isatty                   1004fce8 f   libucrt:isatty.obj
 0001:0004ed53       ___acrt_stdio_allocate_buffer_nolock 1004fd53 f   libucrt:_getbuf.obj
 0001:0004edc7       ??$?RV<lambda_4980db0136e49a56f91ef52c46ca659a>@@AAV<lambda_6e3e78bb6855d1e4040e022c1b427e22>@@V<lambda_9c074eaf62197b4fd0274ed9e7824161>@@@?$__crt_seh_guarded_call@G@@QAEG$$QAV<lambda_4980db0136e49a56f91ef52c46ca659a>@@AAV<lambda_6e3e78bb6855d1e4040e022c1b427e22>@@$$QAV<lambda_9c074eaf62197b4fd0274ed9e7824161>@@@Z 1004fdc7 f i libucrt:putwch.obj
 0001:0004ee3c       ??$__acrt_lock_and_call@V<lambda_6e3e78bb6855d1e4040e022c1b427e22>@@@@YAGW4__acrt_lock_id@@$$QAV<lambda_6e3e78bb6855d1e4040e022c1b427e22>@@@Z 1004fe3c f i libucrt:putwch.obj
 0001:0004eed4       __putwch                   1004fed4 f   libucrt:putwch.obj
 0001:0004eef8       __putwch_nolock            1004fef8 f   libucrt:putwch.obj
 0001:0004ef4e       ___iswcsym                 1004ff4e f i libucrt:_wctype.obj
 0001:0004ef7d       ___iswcsymf                1004ff7d f i libucrt:_wctype.obj
 0001:0004efac       __isleadbyte_l             1004ffac f i libucrt:_wctype.obj
 0001:0004eff3       __iswalnum_l               1004fff3 f i libucrt:_wctype.obj
 0001:0004f00e       __iswalpha_l               1005000e f i libucrt:_wctype.obj
 0001:0004f029       __iswblank_l               10050029 f i libucrt:_wctype.obj
 0001:0004f04d       __iswcntrl_l               1005004d f i libucrt:_wctype.obj
 0001:0004f064       __iswcsym_l                10050064 f i libucrt:_wctype.obj
 0001:0004f093       __iswcsymf_l               10050093 f i libucrt:_wctype.obj
 0001:0004f0c2       __iswdigit_l               100500c2 f i libucrt:_wctype.obj
 0001:0004f0d9       __iswgraph_l               100500d9 f i libucrt:_wctype.obj
 0001:0004f0f4       __iswlower_l               100500f4 f i libucrt:_wctype.obj
 0001:0004f10b       __iswprint_l               1005010b f i libucrt:_wctype.obj
 0001:0004f126       __iswpunct_l               10050126 f i libucrt:_wctype.obj
 0001:0004f13d       __iswspace_l               1005013d f i libucrt:_wctype.obj
 0001:0004f154       __iswupper_l               10050154 f i libucrt:_wctype.obj
 0001:0004f16b       __iswxdigit_l              1005016b f i libucrt:_wctype.obj
 0001:0004f186       _isleadbyte                10050186 f i libucrt:_wctype.obj
 0001:0004f19d       _iswalnum                  1005019d f i libucrt:_wctype.obj
 0001:0004f1b8       _iswalpha                  100501b8 f i libucrt:_wctype.obj
 0001:0004f1d3       _iswascii                  100501d3 f i libucrt:_wctype.obj
 0001:0004f1ec       _iswblank                  100501ec f i libucrt:_wctype.obj
 0001:0004f210       _iswcntrl                  10050210 f i libucrt:_wctype.obj
 0001:0004f227       _iswdigit                  10050227 f i libucrt:_wctype.obj
 0001:0004f23e       _iswgraph                  1005023e f i libucrt:_wctype.obj
 0001:0004f259       _iswlower                  10050259 f i libucrt:_wctype.obj
 0001:0004f270       _iswprint                  10050270 f i libucrt:_wctype.obj
 0001:0004f28b       _iswpunct                  1005028b f i libucrt:_wctype.obj
 0001:0004f2a2       _iswspace                  100502a2 f i libucrt:_wctype.obj
 0001:0004f2b9       _iswupper                  100502b9 f i libucrt:_wctype.obj
 0001:0004f2d0       _iswxdigit                 100502d0 f i libucrt:_wctype.obj
 0001:0004f2eb       ??0?$__crt_scoped_stack_ptr@_W@@QAE@U?$__crt_scoped_stack_ptr_tag@_W@@@Z 100502eb f i libucrt:lcmapstringa.obj
 0001:0004f2ff       ??0?$__crt_scoped_stack_ptr_tag@_W@@QAE@QA_W@Z 100502ff f i libucrt:lcmapstringa.obj
 0001:0004f313       ??1?$__crt_scoped_stack_ptr@_W@@QAE@XZ 10050313 f i libucrt:lcmapstringa.obj
 0001:0004f31e       ??B?$__crt_scoped_stack_ptr@_W@@QBE_NXZ 1005031e f i libucrt:lcmapstringa.obj
 0001:0004f5cc       ?get@?$__crt_scoped_stack_ptr@_W@@QBEPA_WXZ 100505cc f i libucrt:lcmapstringa.obj
 0001:0004f5cf       __MallocaComputeSize       100505cf f i libucrt:lcmapstringa.obj
 0001:0004f5e6       __MarkAllocaS              100505e6 f i libucrt:lcmapstringa.obj
 0001:0004f601       ___acrt_LCMapStringA       10050601 f   libucrt:lcmapstringa.obj
 0001:0004f65e       __freea_crt                1005065e f i libucrt:lcmapstringa.obj
 0001:0004f686       ??$?RG@__crt_internal_free_policy@@QBEXQBG@Z 10050686 f i libucrt:initctype.obj
 0001:0004f69c       ??$?RJ@__crt_internal_free_policy@@QBEXQBJ@Z 1005069c f i libucrt:initctype.obj
 0001:0004f6b2       ??0?$__crt_unique_heap_ptr@GU__crt_internal_free_policy@@@@QAE@QAG@Z 100506b2 f i libucrt:initctype.obj
 0001:0004f6c6       ??0?$__crt_unique_heap_ptr@JU__crt_internal_free_policy@@@@QAE@QAJ@Z 100506c6 f i libucrt:initctype.obj
 0001:0004f6da       ??1?$__crt_unique_heap_ptr@GU__crt_internal_free_policy@@@@QAE@XZ 100506da f i libucrt:initctype.obj
 0001:0004f6f0       ??1?$__crt_unique_heap_ptr@JU__crt_internal_free_policy@@@@QAE@XZ 100506f0 f i libucrt:initctype.obj
 0001:0004f706       ?detach@?$__crt_unique_heap_ptr@GU__crt_internal_free_policy@@@@QAEPAGXZ 10050706 f i libucrt:initctype.obj
 0001:0004f70c       ?detach@?$__crt_unique_heap_ptr@JU__crt_internal_free_policy@@@@QAEPAJXZ 1005070c f i libucrt:initctype.obj
 0001:0004f712       ?release@?$__crt_unique_heap_ptr@GU__crt_internal_free_policy@@@@QAEXXZ 10050712 f i libucrt:initctype.obj
 0001:0004f728       ?release@?$__crt_unique_heap_ptr@JU__crt_internal_free_policy@@@@QAEXXZ 10050728 f i libucrt:initctype.obj
 0001:0004f73e       ____lc_codepage_func       1005073e f   libucrt:initctype.obj
 0001:0004f76e       ____lc_collate_cp_func     1005076e f   libucrt:initctype.obj
 0001:0004f79e       ____lc_locale_name_func    1005079e f   libucrt:initctype.obj
 0001:0004f7d1       ____mb_cur_max_func        100507d1 f   libucrt:initctype.obj
 0001:0004f801       ____mb_cur_max_l_func      10050801 f   libucrt:initctype.obj
 0001:0004f820       ___acrt_locale_initialize_ctype 10050820 f   libucrt:initctype.obj
 0001:0004fca5       ___acrt_add_locale_ref     10050ca5 f   libucrt:locale_refcounting.obj
 0001:0004fd41       ___acrt_free_locale        10050d41 f   libucrt:locale_refcounting.obj
 0001:0004fedd       ___acrt_locale_add_lc_time_reference 10050edd f   libucrt:locale_refcounting.obj
 0001:0004ff10       ___acrt_locale_free_lc_time_if_unreferenced 10050f10 f   libucrt:locale_refcounting.obj
 0001:0004ff4c       ___acrt_locale_release_lc_time_reference 10050f4c f   libucrt:locale_refcounting.obj
 0001:0004ff7f       ___acrt_release_locale_ref 10050f7f f   libucrt:locale_refcounting.obj
 0001:00050020       ___acrt_update_thread_locale_data 10051020 f   libucrt:locale_refcounting.obj
 0001:000500b4       __updatetlocinfoEx_nolock  100510b4 f   libucrt:locale_refcounting.obj
 0001:00050118       ___acrt_fp_strflt_to_string 10051118 f   libucrt:_fptostr.obj
 0001:00051950       ??0big_integer@__crt_strtox@@QAE@ABU01@@Z 10052950 f i libucrt:cfout.obj
 0001:00051990       ??0big_integer@__crt_strtox@@QAE@XZ 10052990 f i libucrt:cfout.obj
 0001:0005199b       ??0scoped_fp_state_reset@?A0x48fbfdd4@@QAE@XZ 1005299b f i libucrt:cfout.obj
 0001:000519cf       ??1scoped_fp_state_reset@?A0x48fbfdd4@@QAE@XZ 100529cf f i libucrt:cfout.obj
 0001:000519e0       ??4big_integer@__crt_strtox@@QAEAAU01@ABU01@@Z 100529e0 f i libucrt:cfout.obj
 0001:00051a20       ??8__crt_strtox@@YA_NABUbig_integer@0@0@Z 10052a20 f i libucrt:cfout.obj
 0001:00051a70       ??9__crt_strtox@@YA_NABUbig_integer@0@0@Z 10052a70 f i libucrt:cfout.obj
 0001:00051ad0       ?add_carry@__crt_strtox@@YAIAAIII@Z 10052ad0 f i libucrt:cfout.obj
 0001:00051b00       ?add_multiply_carry@__crt_strtox@@YAIAAIIII@Z 10052b00 f i libucrt:cfout.obj
 0001:00051b30       ?bit_scan_reverse@__crt_strtox@@YAII@Z 10052b30 f i libucrt:cfout.obj
 0001:00051b60       ?count_sequential_high_zeroes@__crt_strtox@@YAII@Z 10052b60 f i libucrt:cfout.obj
 0001:00051b90       ?divide@__crt_strtox@@YA_KAAUbig_integer@1@ABU21@@Z 10052b90 f i libucrt:cfout.obj
 0001:00052170       ?is_zero@__crt_strtox@@YA_NABUbig_integer@1@@Z 10053170 f i libucrt:cfout.obj
 0001:00052190       ?make_big_integer@__crt_strtox@@YA?AUbig_integer@1@_K@Z 10053190 f i libucrt:cfout.obj
 0001:000521c0       ?make_big_integer_power_of_two@__crt_strtox@@YA?AUbig_integer@1@I@Z 100531c0 f i libucrt:cfout.obj
 0001:00052220       ?multiply@__crt_strtox@@YA_NAAUbig_integer@1@ABU21@@Z 10053220 f i libucrt:cfout.obj
 0001:000526d0       ?multiply@__crt_strtox@@YA_NAAUbig_integer@1@I@Z 100536d0 f i libucrt:cfout.obj
 0001:000527d0       ?multiply_64_32@__crt_strtox@@YA_K_KI@Z 100537d0 f i libucrt:cfout.obj
 0001:000527f0       ?multiply_by_power_of_ten@__crt_strtox@@YA_NAAUbig_integer@1@I@Z 100537f0 f i libucrt:cfout.obj
 0001:00052ef0       ?multiply_core@__crt_strtox@@YAIQAIII@Z 10053ef0 f i libucrt:cfout.obj
 0001:00052f40       ?shift_left@__crt_strtox@@YA_NAAUbig_integer@1@I@Z 10053f40 f i libucrt:cfout.obj
 0001:000530e2       ___acrt_fltout             100540e2 f   libucrt:cfout.obj
 0001:00054a06       ??$?RUlconv@@@__crt_internal_free_policy@@QBEXQBUlconv@@@Z 10055a06 f i libucrt:initmon.obj
 0001:00054a1c       ??0?$__crt_unique_heap_ptr@Ulconv@@U__crt_internal_free_policy@@@@QAE@QAUlconv@@@Z 10055a1c f i libucrt:initmon.obj
 0001:00054a30       ??1?$__crt_unique_heap_ptr@Ulconv@@U__crt_internal_free_policy@@@@QAE@XZ 10055a30 f i libucrt:initmon.obj
 0001:00054a46       ?detach@?$__crt_unique_heap_ptr@Ulconv@@U__crt_internal_free_policy@@@@QAEPAUlconv@@XZ 10055a46 f i libucrt:initmon.obj
 0001:00054a4c       ?release@?$__crt_unique_heap_ptr@Ulconv@@U__crt_internal_free_policy@@@@QAEXXZ 10055a4c f i libucrt:initmon.obj
 0001:00054a62       ___acrt_locale_free_monetary 10055a62 f   libucrt:initmon.obj
 0001:00054b9f       ___acrt_locale_initialize_monetary 10055b9f f   libucrt:initmon.obj
 0001:00055092       ___acrt_locale_free_numeric 10056092 f   libucrt:initnum.obj
 0001:00055115       ___acrt_locale_initialize_numeric 10056115 f   libucrt:initnum.obj
 0001:00055400       ??$?RU__crt_lc_time_data@@@__crt_internal_free_policy@@QBEXQBU__crt_lc_time_data@@@Z 10056400 f i libucrt:inittime.obj
 0001:000554a0       ??0?$__crt_unique_heap_ptr@U__crt_lc_time_data@@U__crt_internal_free_policy@@@@QAE@QAU__crt_lc_time_data@@@Z 100564a0 f i libucrt:inittime.obj
 0001:000554b4       ??1?$__crt_unique_heap_ptr@U__crt_lc_time_data@@U__crt_internal_free_policy@@@@QAE@XZ 100564b4 f i libucrt:inittime.obj
 0001:000554ca       ??B?$__crt_unique_heap_ptr@U__crt_lc_time_data@@U__crt_internal_free_policy@@@@QBE_NXZ 100564ca f i libucrt:inittime.obj
 0001:000554d4       ?detach@?$__crt_unique_heap_ptr@U__crt_lc_time_data@@U__crt_internal_free_policy@@@@QAEPAU__crt_lc_time_data@@XZ 100564d4 f i libucrt:inittime.obj
 0001:00055525       ?get@?$__crt_unique_heap_ptr@U__crt_lc_time_data@@U__crt_internal_free_policy@@@@QBEPAU__crt_lc_time_data@@XZ 10056525 f i libucrt:inittime.obj
 0001:000558bd       ?is_valid@?$__crt_unique_heap_ptr@U__crt_lc_time_data@@U__crt_internal_free_policy@@@@QBE_NXZ 100568bd f i libucrt:inittime.obj
 0001:000558c7       ?release@?$__crt_unique_heap_ptr@U__crt_lc_time_data@@U__crt_internal_free_policy@@@@QAEXXZ 100568c7 f i libucrt:inittime.obj
 0001:000558dd       ___acrt_locale_free_time   100568dd f   libucrt:inittime.obj
 0001:000559fa       ___acrt_locale_initialize_time 100569fa f   libucrt:inittime.obj
 0001:00055b98       _wcsncpy_s                 10056b98 f   libucrt:wcsncpy_s.obj
 0001:00055ba5       _wcscspn                   10056ba5 f   libucrt:wcscspn.obj
 0001:00055c09       _wcspbrk                   10056c09 f   libucrt:wcspbrk.obj
 0001:00055c5f       ___acrt_GetStringTypeA     10056c5f f   libucrt:getstringtypea.obj
 0001:000566d3       ___acrt_get_qualified_locale 100576d3 f   libucrt:get_qualified_locale.obj
 0001:0005727a       ___acrt_get_qualified_locale_downlevel 1005827a f   libucrt:getqloc_downlevel.obj
 0001:00057502       _localeconv                10058502 f   libucrt:localeconv.obj
 0001:00057536       _nextafter                 10058536 f   libucrt:nextafter.obj
 0001:0005755c       ??1scoped_global_state_reset@__crt_state_management@@QAE@XZ 1005855c f i libucrt:qsort.obj
 0001:00057670       _qsort                     10058670 f   libucrt:qsort.obj
 0001:00057bcd       _strncpy_s                 10058bcd f   libucrt:strncpy_s.obj
 0001:00057be0       _strpbrk                   10058be0 f   libucrt:strpbrk.obj
 0001:00057c30       __mbsdec                   10058c30 f   libucrt:mbsdec.obj
 0001:00057c4c       __mbsdec_l                 10058c4c f   libucrt:mbsdec.obj
 0001:00057d0e       __wcsnicoll                10058d0e f   libucrt:wcsnicol.obj
 0001:00057e12       __wcsnicoll_l              10058e12 f   libucrt:wcsnicol.obj
 0001:00057f8a       __strnicoll                10058f8a f   libucrt:strnicol.obj
 0001:00057fbd       __strnicoll_l              10058fbd f   libucrt:strnicol.obj
 0001:000580f8       __msize                    100590f8 f   libucrt:msize.obj
 0001:00058137       __towlower_l               10059137 f   libucrt:towlower.obj
 0001:00058232       _towlower                  10059232 f   libucrt:towlower.obj
 0001:00058250       ___ascii_strnicmp          10059250 f   libucrt:_strnicm.obj
 0001:000582c9       ??$__crt_interlocked_read@H@@YAHPDH@Z 100592c9 f i libucrt:setmode.obj
 0001:000582d8       __get_fmode                100592d8 f   libucrt:setmode.obj
 0001:0005830f       __set_fmode                1005930f f   libucrt:setmode.obj
 0001:0005835b       __setmode                  1005935b f   libucrt:setmode.obj
 0001:000584ac       __setmode_nolock           100594ac f   libucrt:setmode.obj
 0001:000585b1       ??$?RV<lambda_4cfda81533ccf5a03113a1ca40a30445>@@AAV<lambda_1cffa78e445b1da5fba1a2e0e533226f>@@V<lambda_68c952aa1b860373b2109ef12d0bba9d>@@@?$__crt_seh_guarded_call@H@@QAEH$$QAV<lambda_4cfda81533ccf5a03113a1ca40a30445>@@AAV<lambda_1cffa78e445b1da5fba1a2e0e533226f>@@$$QAV<lambda_68c952aa1b860373b2109ef12d0bba9d>@@@Z 100595b1 f i libucrt:chsize.obj
 0001:0005865b       ??$__acrt_lowio_lock_fh_and_call@V<lambda_1cffa78e445b1da5fba1a2e0e533226f>@@@@YAHH$$QAV<lambda_1cffa78e445b1da5fba1a2e0e533226f>@@@Z 1005965b f i libucrt:chsize.obj
 0001:0005873d       __chsize                   1005973d f   libucrt:chsize.obj
 0001:00058760       __chsize_nolock            10059760 f   libucrt:chsize.obj
 0001:00058955       __chsize_s                 10059955 f   libucrt:chsize.obj
 0001:00058a16       __umask                    10059a16 f   libucrt:umask.obj
 0001:00058a44       __umask_s                  10059a44 f   libucrt:umask.obj
 0001:00058a8d       ___dcrt_lowio_initialize_console_output 10059a8d f   libucrt:initcon.obj
 0001:00058ab3       ___dcrt_terminate_console_output 10059ab3 f   libucrt:initcon.obj
 0001:00058acf       ___strncnt                 10059acf f   libucrt:strncnt.obj
 0001:00058c2b       ___acrt_GetLocaleInfoA     10059c2b f   libucrt:getlocaleinfoa.obj
 0001:00058e49       _fegetenv                  10059e49 f   libucrt:fegetenv.obj
 0001:00058e6d       _fesetenv                  10059e6d f   libucrt:fesetenv.obj
 0001:00058ec8       _feholdexcept              10059ec8 f   libucrt:feholdexcept.obj
 0001:00058f30       _log10                     10059f30 f   libucrt:log10.obj
 0001:00058f70       __CIlog10                  10059f70 f   libucrt:log10.obj
 0001:00058fab       __CIlog10_default          10059fab f   libucrt:log10.obj
 0001:00058fbf       __log10_default            10059fbf     libucrt:log10.obj
 0001:000590e0       _ceil                      1005a0e0 f   libucrt:ceil_pentium4.obj
 0001:00059120       __ceil_pentium4            1005a120 f   libucrt:ceil_pentium4.obj
 0001:00059244       __wcsicmp                  1005a244 f   libucrt:wcsicmp.obj
 0001:000592fe       __wcsicmp_l                1005a2fe f   libucrt:wcsicmp.obj
 0001:00059416       _nexttoward                1005a416 f   libucrt:nexttoward.obj
 0001:000595c7       ___acrt_CompareStringW     1005a5c7 f   libucrt:comparestringw.obj
 0001:0005999b       ___acrt_CompareStringA     1005a99b f   libucrt:comparestringa.obj
 0001:000599f5       ___acrt_LCMapStringW       1005a9f5 f   libucrt:lcmapstringw.obj
 0001:00059a42       ___p__fmode                1005aa42 f   libucrt:txtmode.obj
 0001:00059a48       ___acrt_fenv_get_fp_status_word_from_exception_mask 1005aa48 f   libucrt:_fenvutils.obj
 0001:00059e8b       __getfpcontrolword         1005ae8b f   libucrt:_fenvutils.obj
 0001:00059ede       __getfpstatusword          1005aede f   libucrt:_fenvutils.obj
 0001:00059fb0       __setfpcontrolword         1005afb0 f   libucrt:_fenvutils.obj
 0001:0005a050       __setfpstatusword          1005b050 f   libucrt:_fenvutils.obj
 0001:0005a286       ___control87_2             1005b286 f   libucrt:ieee87.obj
 0001:0005a85a       ___fpreset_sse2            1005b85a f   libucrt:ieee87.obj
 0001:0005aaad       __clearfp                  1005baad f   libucrt:ieee87.obj
 0001:0005abc2       __control87                1005bbc2 f   libucrt:ieee87.obj
 0001:0005af84       __controlfp                1005bf84 f   libucrt:ieee87.obj
 0001:0005afa4       __fpreset                  1005bfa4 f   libucrt:ieee87.obj
 0001:0005b0a1       __set_controlfp            1005c0a1 f   libucrt:ieee87.obj
 0001:0005b137       __statusfp                 1005c137 f   libucrt:ieee87.obj
 0001:0005b1fa       __statusfp2                1005c1fa f   libucrt:ieee87.obj
 0001:0005b277       ___acrt_initialize_sse2    1005c277 f   libucrt:mathfcns.obj
 0001:0005b289       __set_SSE2_enable          1005c289 f   libucrt:mathfcns.obj
 0001:0005b2c0       __CIlog10_pentium4         1005c2c0 f   libucrt:log10_pentium4.obj
 0001:0005b2d8       __log10_pentium4           1005c2d8     libucrt:log10_pentium4.obj
 0001:0005b611       __fFEXP                    1005c611     libucrt:87tran.obj
 0001:0005b668       __rtinfpopse               1005c668     libucrt:87tran.obj
 0001:0005b66a       __rtinfnpopse              1005c66a     libucrt:87tran.obj
 0001:0005b67a       __fFLN                     1005c67a     libucrt:87tran.obj
 0001:0005b72f       __rtinfpop                 1005c72f     libucrt:87tran.obj
 0001:0005b731       __rtinfnpop                1005c731     libucrt:87tran.obj
 0001:0005b74e       __ffexpm1                  1005c74e     libucrt:87tran.obj
 0001:0005b880       __trandisp1                1005c880 f   libucrt:87disp.obj
 0001:0005b8e7       __trandisp2                1005c8e7 f   libucrt:87disp.obj
 0001:0005b973       __rttospopde               1005c973     libucrt:87disp.obj
 0001:0005b978       __rttospop                 1005c978     libucrt:87disp.obj
 0001:0005b97a       __rtnospop                 1005c97a     libucrt:87disp.obj
 0001:0005b97c       __rttosnpop                1005c97c     libucrt:87disp.obj
 0001:0005b97d       __rtnospopde               1005c97d     libucrt:87disp.obj
 0001:0005b984       __rtzeropop                1005c984     libucrt:87disp.obj
 0001:0005b986       __rtzeronpop               1005c986     libucrt:87disp.obj
 0001:0005b98b       __rtzerospop               1005c98b     libucrt:87disp.obj
 0001:0005b998       __rtonepop                 1005c998     libucrt:87disp.obj
 0001:0005b99a       __rtonenpop                1005c99a     libucrt:87disp.obj
 0001:0005b99f       __tosnan1                  1005c99f     libucrt:87disp.obj
 0001:0005b9ca       __nosnan2                  1005c9ca     libucrt:87disp.obj
 0001:0005b9cc       __tosnan2                  1005c9cc     libucrt:87disp.obj
 0001:0005b9f4       __nan2                     1005c9f4     libucrt:87disp.obj
 0001:0005ba33       __rtindfpop                1005ca33     libucrt:87disp.obj
 0001:0005ba35       __rtindfnpop               1005ca35     libucrt:87disp.obj
 0001:0005ba46       __rttosnpopde              1005ca46     libucrt:87disp.obj
 0001:0005ba50       __rtatan2inf               1005ca50     libucrt:87disp.obj
 0001:0005ba6d       __rtchsifneg               1005ca6d     libucrt:87disp.obj
 0001:0005baf1       ___setfflag                1005caf1 f   libucrt:fp_flags.obj
 0001:0005bb10       __twoToTOS                 1005cb10 f   libucrt:common.obj
 0001:0005bb25       __load_CW                  1005cb25 f   libucrt:common.obj
 0001:0005bb3c       __convertTOStoQNaN         1005cb3c f   libucrt:common.obj
 0001:0005bb55       __fload_withFB             1005cb55 f   libucrt:common.obj
 0001:0005bb98       __checkTOS_withFB          1005cb98 f   libucrt:common.obj
 0001:0005bbae       __fast_exit                1005cbae f   libucrt:common.obj
 0001:0005bbbb       __math_exit                1005cbbb f   libucrt:common.obj
 0001:0005bbe5       __check_overflow_exit      1005cbe5 f   libucrt:common.obj
 0001:0005bbf9       __check_range_exit         1005cbf9 f   libucrt:common.obj
 0001:0005bd00       __startTwoArgErrorHandling 1005cd00 f   libucrt:genexcep.obj
 0001:0005bd17       __startOneArgErrorHandling 1005cd17 f   libucrt:genexcep.obj
 0001:0005bd67       ___libm_error_support      1005cd67 f   libucrt:libm_error.obj
 0001:0005c005       ___libm_setusermatherr     1005d005 f   libucrt:libm_error.obj
 0001:0005c03e       __ceil_default             1005d03e f   libucrt:ceil.obj
 0001:0005c125       __d_int                    1005d125 f   libucrt:_test.obj
 0001:0005c26d       __dtest                    1005d26d f   libucrt:_test.obj
 0001:0005c2ea       __fd_int                   1005d2ea f   libucrt:_test.obj
 0001:0005c3ec       __fdtest                   1005d3ec f   libucrt:_test.obj
 0001:0005c44d       __fperrraise               1005d44d f   libucrt:_test.obj
 0001:0005c478       __ld_int                   1005d478 f   libucrt:_test.obj
 0001:0005c485       __ldtest                   1005d485 f   libucrt:_test.obj
 0001:0005c52a       __controlfp_s              1005d52a f   libucrt:contrlfp.obj
 0001:0005c5a0       __d_inttype                1005d5a0 f   libucrt:powhlp.obj
 0001:0005c624       __powhlp                   1005d624 f   libucrt:powhlp.obj
 0001:0005c799       __87except                 1005d799 f   libucrt:87except.obj
 0001:0005c8e6       __frnd                     1005d8e6 f   libucrt:frnd.obj
 0001:0005c901       _fegetexceptflag           1005d901 f   libucrt:fegetexceptflag.obj
 0001:0005c93e       _fesetexceptflag           1005d93e f   libucrt:fesetexceptflag.obj
 0001:0005c99f       _fetestexcept              1005d99f f   libucrt:fetestexcept.obj
 0001:0005c9d0       __FindPESection            1005d9d0 f   LIBCMT:pesect.obj
 0001:0005ca30       __IsNonwritableInCurrentImage 1005da30 f   LIBCMT:pesect.obj
 0001:0005cb20       __ValidateImageBase        1005db20 f   LIBCMT:pesect.obj
 0001:0005cb60       __aulldvrm                 1005db60 f   LIBCMT:ulldvrm.obj
 0001:0005cc1a       ??1type_info@@UAE@XZ       1005dc1a f   LIBCMT:std_type_info_static.obj
 0001:0005cc21       ??_Etype_info@@UAEPAXI@Z   1005dc21 f i LIBCMT:std_type_info_static.obj
 0001:0005cc21       ??_Gtype_info@@UAEPAXI@Z   1005dc21 f i LIBCMT:std_type_info_static.obj
 0001:0005cc50       __SEH_prolog4_GS           1005dc50 f   LIBCMT:_sehprolg4gs_.obj
 0001:0005cc99       __SEH_epilog4_GS           1005dc99 f   LIBCMT:_sehprolg4gs_.obj
 0001:0005ccc0       __allmul                   1005dcc0 f   LIBCMT:llmul.obj
 0001:0005cd10       __chkstk                   1005dd10 f   LIBCMT:chkstk.obj
 0001:0005cd10       __alloca_probe             1005dd10 f   LIBCMT:chkstk.obj
 0001:0005cd50       __alldvrm                  1005dd50 f   LIBCMT:lldvrm.obj
 0001:0005ce70       __aullshr                  1005de70 f   LIBCMT:ullshr.obj
 0001:0005cea0       __alloca_probe_16          1005dea0 f   LIBCMT:alloca16.obj
 0001:0005ceb6       __alloca_probe_8           1005deb6     LIBCMT:alloca16.obj
 0001:0005cee0       __allshl                   1005dee0 f   LIBCMT:llshl.obj
 0001:0005cf10       __ftol2_sse                1005df10 f   LIBCMT:_ftol2_.obj
 0001:0005cf19       __ftol2_pentium4           1005df19 f   LIBCMT:_ftol2_.obj
 0001:0005cf2c       __ftol2_sse_excpt          1005df2c f   LIBCMT:_ftol2_.obj
 0001:0005cf50       __ftol2                    1005df50 f   LIBCMT:_ftol2_.obj
 0001:0005cff2       __initialize_default_precision 1005dff2 f   LIBCMT:default_precision.obj
 0001:0005d01b       ??3@YAXPAXI@Z              1005e01b f   LIBCMT:delete_scalar_size.obj
 0001:0005d02c       ??3@YAXPAX@Z               1005e02c f   LIBCMT:delete_scalar.obj
 0001:0005d032       _InterlockedPushEntrySList@8 1005e032 f   kernel32:KERNEL32.dll
 0001:0005d038       _InterlockedFlushSList@4   1005e038 f   kernel32:KERNEL32.dll
 0001:0005d03e       _RtlUnwind@16              1005e03e f   kernel32:KERNEL32.dll
 0001:0005d044       _GetLastError@0            1005e044 f   kernel32:KERNEL32.dll
 0001:0005d04a       _SetLastError@4            1005e04a f   kernel32:KERNEL32.dll
 0001:0005d050       _EnterCriticalSection@4    1005e050 f   kernel32:KERNEL32.dll
 0001:0005d056       _LeaveCriticalSection@4    1005e056 f   kernel32:KERNEL32.dll
 0001:0005d05c       _DeleteCriticalSection@4   1005e05c f   kernel32:KERNEL32.dll
 0001:0005d062       _InitializeCriticalSectionAndSpinCount@8 1005e062 f   kernel32:KERNEL32.dll
 0001:0005d068       _TlsAlloc@0                1005e068 f   kernel32:KERNEL32.dll
 0001:0005d06e       _TlsGetValue@4             1005e06e f   kernel32:KERNEL32.dll
 0001:0005d074       _TlsSetValue@8             1005e074 f   kernel32:KERNEL32.dll
 0001:0005d07a       _TlsFree@4                 1005e07a f   kernel32:KERNEL32.dll
 0001:0005d080       _FreeLibrary@4             1005e080 f   kernel32:KERNEL32.dll
 0001:0005d086       _LoadLibraryExW@12         1005e086 f   kernel32:KERNEL32.dll
 0001:0005d08c       _ExitProcess@4             1005e08c f   kernel32:KERNEL32.dll
 0001:0005d092       _GetModuleHandleExW@12     1005e092 f   kernel32:KERNEL32.dll
 0001:0005d098       _GetStdHandle@4            1005e098 f   kernel32:KERNEL32.dll
 0001:0005d09e       _GetFileType@4             1005e09e f   kernel32:KERNEL32.dll
 0001:0005d0a4       _GetModuleFileNameA@12     1005e0a4 f   kernel32:KERNEL32.dll
 0001:0005d0aa       _GetModuleFileNameW@12     1005e0aa f   kernel32:KERNEL32.dll
 0001:0005d0b0       _WriteConsoleW@20          1005e0b0 f   kernel32:KERNEL32.dll
 0001:0005d0b6       _RaiseException@16         1005e0b6 f   kernel32:KERNEL32.dll
 0001:0005d0bc       _MultiByteToWideChar@24    1005e0bc f   kernel32:KERNEL32.dll
 0001:0005d0c2       _WideCharToMultiByte@32    1005e0c2 f   kernel32:KERNEL32.dll
 0001:0005d0c8       _HeapFree@12               1005e0c8 f   kernel32:KERNEL32.dll
 0001:0005d0ce       _HeapAlloc@12              1005e0ce f   kernel32:KERNEL32.dll
 0001:0005d0d4       _HeapReAlloc@16            1005e0d4 f   kernel32:KERNEL32.dll
 0001:0005d0da       _GetDateFormatW@24         1005e0da f   kernel32:KERNEL32.dll
 0001:0005d0e0       _GetTimeFormatW@24         1005e0e0 f   kernel32:KERNEL32.dll
 0001:0005d0e6       _CompareStringW@24         1005e0e6 f   kernel32:KERNEL32.dll
 0001:0005d0ec       _LCMapStringW@24           1005e0ec f   kernel32:KERNEL32.dll
 0001:0005d0f2       _GetLocaleInfoW@16         1005e0f2 f   kernel32:KERNEL32.dll
 0001:0005d0f8       _IsValidLocale@8           1005e0f8 f   kernel32:KERNEL32.dll
 0001:0005d0fe       _GetUserDefaultLCID@0      1005e0fe f   kernel32:KERNEL32.dll
 0001:0005d104       _EnumSystemLocalesW@8      1005e104 f   kernel32:KERNEL32.dll
 0001:0005d10a       _CloseHandle@4             1005e10a f   kernel32:KERNEL32.dll
 0001:0005d110       _ReadFile@20               1005e110 f   kernel32:KERNEL32.dll
 0001:0005d116       _GetConsoleMode@8          1005e116 f   kernel32:KERNEL32.dll
 0001:0005d11c       _ReadConsoleW@20           1005e11c f   kernel32:KERNEL32.dll
 0001:0005d122       _WriteFile@20              1005e122 f   kernel32:KERNEL32.dll
 0001:0005d128       _GetConsoleCP@0            1005e128 f   kernel32:KERNEL32.dll
 0001:0005d12e       _DeleteFileW@4             1005e12e f   kernel32:KERNEL32.dll
 0001:0005d134       _SetFilePointerEx@20       1005e134 f   kernel32:KERNEL32.dll
 0001:0005d13a       _GetCurrentThread@0        1005e13a f   kernel32:KERNEL32.dll
 0001:0005d140       _GetACP@0                  1005e140 f   kernel32:KERNEL32.dll
 0001:0005d146       _OutputDebugStringA@4      1005e146 f   kernel32:KERNEL32.dll
 0001:0005d14c       _OutputDebugStringW@4      1005e14c f   kernel32:KERNEL32.dll
 0001:0005d152       _WaitForSingleObjectEx@12  1005e152 f   kernel32:KERNEL32.dll
 0001:0005d158       _CreateThread@24           1005e158 f   kernel32:KERNEL32.dll
 0001:0005d15e       _SetConsoleCtrlHandler@8   1005e15e f   kernel32:KERNEL32.dll
 0001:0005d164       _FindClose@4               1005e164 f   kernel32:KERNEL32.dll
 0001:0005d16a       _FindFirstFileExA@24       1005e16a f   kernel32:KERNEL32.dll
 0001:0005d170       _FindFirstFileExW@24       1005e170 f   kernel32:KERNEL32.dll
 0001:0005d176       _FindNextFileA@8           1005e176 f   kernel32:KERNEL32.dll
 0001:0005d17c       _FindNextFileW@8           1005e17c f   kernel32:KERNEL32.dll
 0001:0005d182       _IsValidCodePage@4         1005e182 f   kernel32:KERNEL32.dll
 0001:0005d188       _GetOEMCP@0                1005e188 f   kernel32:KERNEL32.dll
 0001:0005d18e       _GetCPInfo@8               1005e18e f   kernel32:KERNEL32.dll
 0001:0005d194       _GetCommandLineA@0         1005e194 f   kernel32:KERNEL32.dll
 0001:0005d19a       _GetCommandLineW@0         1005e19a f   kernel32:KERNEL32.dll
 0001:0005d1a0       _GetEnvironmentStringsW@0  1005e1a0 f   kernel32:KERNEL32.dll
 0001:0005d1a6       _FreeEnvironmentStringsW@4 1005e1a6 f   kernel32:KERNEL32.dll
 0001:0005d1ac       _SetEnvironmentVariableA@8 1005e1ac f   kernel32:KERNEL32.dll
 0001:0005d1b2       _SetEnvironmentVariableW@8 1005e1b2 f   kernel32:KERNEL32.dll
 0001:0005d1b8       _GetProcessHeap@0          1005e1b8 f   kernel32:KERNEL32.dll
 0001:0005d1be       _GetStringTypeW@16         1005e1be f   kernel32:KERNEL32.dll
 0001:0005d1c4       _FlushFileBuffers@4        1005e1c4 f   kernel32:KERNEL32.dll
 0001:0005d1ca       _SetStdHandle@8            1005e1ca f   kernel32:KERNEL32.dll
 0001:0005d1d0       _CreateFileW@28            1005e1d0 f   kernel32:KERNEL32.dll
 0001:0005d1d6       _HeapSize@12               1005e1d6 f   kernel32:KERNEL32.dll
 0001:0005d1dc       _SetEndOfFile@4            1005e1dc f   kernel32:KERNEL32.dll
 0001:0005d1e2       _EncodePointer@4           1005e1e2 f   kernel32:KERNEL32.dll
 0001:0005d1e8       _DecodePointer@4           1005e1e8 f   kernel32:KERNEL32.dll
 0001:0005d1f0       _strrchr                   1005e1f0 f   libvcruntime:strrchr.obj
 0001:0005d4d7       _memcmp                    1005e4d7 f   libvcruntime:_memcmp_.obj
 0001:00060fbf       _wcschr                    10061fbf f   libvcruntime:wcschr.obj
 0002:00000000       ___xc_a                    10063000     LIBCMT:initializers.obj
 0002:00000104       ___xc_z                    10063104     LIBCMT:initializers.obj
 0002:00000208       ___xi_a                    10063208     LIBCMT:initializers.obj
 0002:0000030c       ___acrt_stdio_initializer  1006330c     libucrt:stdio_initializer.obj
 0002:00000310       ___acrt_multibyte_initializer 10063310     libucrt:multibyte_initializer.obj
 0002:00000314       ___acrt_tran_sse2_initializer 10063314     libucrt:sse2_initializer.obj
 0002:0000041c       ___xi_z                    1006341c     LIBCMT:initializers.obj
 0002:00000520       ___xp_a                    10063520     LIBCMT:initializers.obj
 0002:00000624       ___acrt_locale_terminator  10063624     libucrt:locale_initializer.obj
 0002:00000628       ___dcrt_console_output_terminator 10063628     libucrt:console_output_initializer.obj
 0002:00000730       ___acrt_stdio_terminator   10063730     libucrt:stdio_initializer.obj
 0002:00000834       ___xp_z                    10063834     LIBCMT:initializers.obj
 0002:00000938       ___xt_a                    10063938     LIBCMT:initializers.obj
 0002:00000a3c       ___xt_z                    10063a3c     LIBCMT:initializers.obj
 0002:00000b40       _driver_test_M             10063b40     driver_test.obj
 0002:00000b44       ??_C@_0BC@OJJPBDHH@FixedStepDiscrete?$AA@ 10063b44     driver_test.obj
 0002:00000b5c       ??_C@_04EPKDLPPB@tout?$AA@ 10063b5c     driver_test.obj
 0002:00000b62       ??_C@_00CNPNBAHC@?$AA@     10063b62     driver_test.obj
 0002:00000b64       ??_C@_03HBFGMJOD@rt_?$AA@  10063b64     driver_test.obj
 0002:00000b68       ??_C@_0L@CBNPOGNB@S?9Function?$AA@ 10063b68     driver_test.obj
 0002:00000b78       ??_C@_0BH@IBDKDGEJ@driver_test?1S?9Function?$AA@ 10063b78     driver_test.obj
 0002:00000b98       __real@3f50624dd2f1a9fc    10063b98     driver_test.obj
 0002:00000ba8       __real@40ac200000000000    10063ba8     driver_test.obj
 0002:00000bb8       __real@41f0000000000000    10063bb8     driver_test.obj
 0002:00000bd0       __xmm@00000000000000003f50624dd2f1a9fc 10063bd0     driver_test.obj
 0002:00000bf0       __xmm@0000001a000000010000000300000001 10063bf0     driver_test.obj
 0002:00000c10       __xmm@41f00000000000000000000000000000 10063c10     driver_test.obj
 0002:00000c28       __real@3cb0000000000000    10063c28     rt_matrx.obj
 0002:00000c38       __real@3fe0000000000000    10063c38     rt_matrx.obj
 0002:00000c48       __real@3ff0000000000000    10063c48     rt_matrx.obj
 0002:000014b8       ??_C@_0DJ@FHKINPLE@Unexpected?5itemKind?5?$DN?5DATA_ITEM?5@ 100644b8     rt_logging.obj
 0002:000014fc       ??_C@_0DA@IEHFPFCJ@Unexpected?5itemKind?$DN?$CFd?5in?5rt_Pro@ 100644fc     rt_logging.obj
 0002:00001538       ??_C@_0DA@IFLHJPBO@Unexpected?5itemKind?$DN?$CFd?5in?5rt_Pro@ 10064538     rt_logging.obj
 0002:00001574       ??_C@_0DA@IAPIIJJL@Unexpected?5itemKind?$DN?$CFd?5in?5rt_Pro@ 10064574     rt_logging.obj
 0002:000015b0       ??_C@_0BE@LCIGPJIG@MATLAB?55?40?5MAT?9file?$AA@ 100645b0     rt_logging.obj
 0002:000015c8       ??_C@_0FB@PCJEAJIB@?$CK?$CK?$CK?5Log?5variable?5?$CFs?5has?5wrapped?5@ 100645c8     rt_logging.obj
 0002:00001630       ??_C@_0MG@NKMLMOGF@?$CK?$CK?$CK?5To?5avoid?5wrapping?0?5explicitl@ 10064630     rt_logging.obj
 0002:00001720       ??_C@_0N@IPAEOLLP@_rtw_tmw?4tmw?$AA@ 10064720     rt_logging.obj
 0002:00001730       ??_C@_04HDOCAJNK@?$CFs?$CFs?$AA@ 10064730     rt_logging.obj
 0002:00001738       ??_C@_03ELIABIOC@w?$CLb?$AA@ 10064738     rt_logging.obj
 0002:0000173c       ??_C@_0BF@JPILDDFA@?$CK?$CK?$CK?5Error?5opening?5?$CFs?$AA@ 1006473c     rt_logging.obj
 0002:00001758       ??_C@_0BK@EEMDELA@unable?5to?5open?5data?5file?6?$AA@ 10064758     rt_logging.obj
 0002:00001778       ??_C@_04CGFJFPFD@none?$AA@ 10064778     rt_logging.obj
 0002:00001780       ??_C@_0EE@LCGFPNON@?$CK?$CK?$CK?5Error?5creating?5signals?5struc@ 10064780     rt_logging.obj
 0002:000017d4       ??_C@_0CE@NHECEDMK@?$CK?$CK?$CK?5Error?5creating?5log?5variable?5@ 100647d4     rt_logging.obj
 0002:00001800       ??_C@_0DB@IOCGKAGH@?$CK?$CK?$CK?5Errors?5occurred?5when?5startin@ 10064800     rt_logging.obj
 0002:0000183c       ??_C@_0BO@BBLOGEBK@?$CK?$CK?$CK?5Memory?5allocation?5error?4?6?$AA@ 1006483c     rt_logging.obj
 0002:00001860       ??_C@_0N@LGFBAGEL@?5?$CIreal?5part?$CJ?$AA@ 10064860     rt_logging.obj
 0002:00001870       ??_C@_0KH@CGNMHNFE@?5?5?5?5varName?5?5?5?5?5?5?5?5?5?5?$DN?5?$CFs?$CFs?6?5?5?5?5@ 10064870     rt_logging.obj
 0002:00001938       ??_C@_0LE@OALKKEFM@?5?5?5?5varName?5?5?5?5?5?5?5?5?5?5?$DN?5?$CFs?5?$CIcompl@ 10064938     rt_logging.obj
 0002:00001a10       ??_C@_0KF@JDDLEOKO@?5?5?5?5varName?5?5?5?5?5?5?5?5?5?5?$DN?5?$CFs?6?5?5?5?5nR@ 10064a10     rt_logging.obj
 0002:00001ad8       ??_C@_0DP@HPDMIOFM@?$CK?$CK?$CK?5Using?5a?5default?5buffer?5of?5si@ 10064ad8     rt_logging.obj
 0002:00001b28       ??_C@_0KE@JEFOLKNF@?6?$CK?$CK?$CK?5Memory?5required?5to?5log?5vari@ 10064b28     rt_logging.obj
 0002:00001bf0       ??_C@_0JP@DKLMHCBI@?$CK?$CK?$CK?5Details?3?6?5?5?5?5?5?5?5varName?5?5?5?5?5@ 10064bf0     rt_logging.obj
 0002:00001cb0       ??_C@_0CM@CAMILBED@?$CK?$CK?$CK?5Error?5allocating?5memory?5for?5@ 10064cb0     rt_logging.obj
 0002:00001ce4       ??_C@_0DF@BBCNMOPM@?$CK?$CK?$CK?5Error?5allocating?5memory?5for?5@ 10064ce4     rt_logging.obj
 0002:00001d28       ??_C@_0JP@DBCLPCCI@?$CK?$CK?$CK?5Details?3?6?5?5?5?5?5?5?5varName?5?5?5?5?5@ 10064d28     rt_logging.obj
 0002:00001de8       ??_C@_0FK@DPGAOBGA@?$CK?$CK?$CK?5Error?5allocating?5memory?5for?5@ 10064de8     rt_logging.obj
 0002:00001e54       ??_C@_0BI@GGDNPHLJ@?$CK?$CK?$CK?5Error?5writing?5to?5?$CFs?$AA@ 10064e54     rt_logging.obj
 0002:00001e70       ??_C@_0CB@IBGJGELG@?$CK?$CK?$CK?5Error?5writing?5?$CFs?5due?5to?3?5?$CFs?6@ 10064e70     rt_logging.obj
 0002:00001e98       ??_C@_0CN@FLMCHCPB@?$CK?$CK?$CK?5Error?5writing?5log?5variable?5?$CF@ 10064e98     rt_logging.obj
 0002:00001ed0       ??_C@_0DH@GAJCNOJP@?$CK?$CK?$CK?5Error?5writing?5structure?5log?5@ 10064ed0     rt_logging.obj
 0002:00001f14       ??_C@_0BD@POEALECL@?$CK?$CK?5created?5?$CFs?5?$CK?$CK?6?6?$AA@ 10064f14     rt_logging.obj
 0002:00001f30       __real@0000000000000000    10064f30     rt_logging.obj
 0002:00001f40       __real@4020000000000000    10064f40     rt_logging.obj
 0002:00001f50       __real@41dfffffffc00000    10064f50     rt_logging.obj
 0002:00001f60       __real@41efffffffe00000    10064f60     rt_logging.obj
 0002:00001f70       __real@4330000000000000    10064f70     rt_logging.obj
 0002:00001f80       __real@8000000000000000    10064f80     rt_logging.obj
 0002:00001f90       __real@bfbf9add3afd2773    10064f90     rt_logging.obj
 0002:00001fa0       __real@bff0000000000000    10064fa0     rt_logging.obj
 0002:00001fb0       __real@c000000000000000    10064fb0     rt_logging.obj
 0002:00001fc0       __xmm@20202020202020202020202020202020 10064fc0     rt_logging.obj
 0002:000021a0       ??_C@_04OMOMKKFL@Gain?$AA@ 100651a0     driver_test_capi.obj
 0002:000021a8       ??_C@_09IIHOELEE@Constant1?$AA@ 100651a8     driver_test_capi.obj
 0002:000021b4       ??_C@_05LPIJGKJ@Value?$AA@ 100651b4     driver_test_capi.obj
 0002:000021bc       ??_C@_02KKFPAPOP@P1?$AA@   100651bc     driver_test_capi.obj
 0002:000021c0       ??_C@_02IBHCFMCM@P2?$AA@   100651c0     driver_test_capi.obj
 0002:000021c4       ??_C@_02JIGJGNGN@P3?$AA@   100651c4     driver_test_capi.obj
 0002:000021c8       ??_C@_02NHCIPLKK@P4?$AA@   100651c8     driver_test_capi.obj
 0002:000021cc       ??_C@_02MODDMKOL@P5?$AA@   100651cc     driver_test_capi.obj
 0002:000021d0       ??_C@_02OFBOJJCI@P6?$AA@   100651d0     driver_test_capi.obj
 0002:000021d4       ??_C@_06BNJCAIGJ@double?$AA@ 100651d4     driver_test_capi.obj
 0002:000021dc       ??_C@_06CNMIJIPB@real_T?$AA@ 100651dc     driver_test_capi.obj
 0002:000021e4       ??_C@_05KNFBNCOH@float?$AA@ 100651e4     driver_test_capi.obj
 0002:000021ec       ??_C@_0DL@PGGFBBLM@Error?3?5task?5ID?5?$CFd?5is?5out?5of?5rang@ 100651ec     driver_test_xcp_TET.obj
 0002:00002238       __real@3e112e0be826d695    10065238     driver_test_xcp_TET.obj
 0002:00002248       __real@3f847ae147ae147b    10065248     driver_test_xcp_TET.obj
 0002:00002258       __real@3fefae147ae147ae    10065258     driver_test_xcp_TET.obj
 0002:00002264       _serialfifoground          10065264     xpc_datatype_ground.obj
 0002:00002270       _bcmsg1553ground           10065270     xpc_datatype_ground.obj
 0002:00002280       _bcstatground              10065280     xpc_datatype_ground.obj
 0002:00002298       _bmmsg1553ground           10065298     xpc_datatype_ground.obj
 0002:000022d4       ??_C@_0BI@INNPNFJN@Memory?5Allocation?5Error?$AA@ 100652d4     rtw_modelmap_utils.obj
 0002:000022f0       ??_C@_1HC@FPPMHEFB@?$AAC?$AA?3?$AA?2?$AAP?$AAR?$AAO?$AAG?$AAR?$AAA?$AA?$HO?$AA1?$AA?2?$AAM?$AAA?$AAT?$AAL?$AAA?$AAB?$AA?2?$AAR?$AA2?$AA0?$AA1?$AA7?$AAb?$AA?2?$AAr?$AAt?$AAw?$AA?2?$AAc?$AA?2@ 100652f0     rtw_modelmap_utils.obj
 0002:00002378       ??_C@_1CI@OEAJCJND@?$AAj?$AA?5?$AA?$DN?$AA?$DN?$AA?5?$AAe?$AAn?$AAc?$AAo?$AAd?$AAe?$AAd?$AAP?$AAa?$AAt?$AAh?$AAL?$AAe?$AAn?$AA?$AA@ 10065378     rtw_modelmap_utils.obj
 0002:000023a8       ??_C@_1DC@NFAOIFKB@?$AAe?$AAn?$AAc?$AAo?$AAd?$AAe?$AAd?$AAP?$AAa?$AAt?$AAh?$AA?$FL?$AAj?$AA?9?$AA1?$AA?$FN?$AA?5?$AA?$DN?$AA?$DN?$AA?5?$AA?8?$AA?2?$AA0?$AA?8?$AA?$AA@ 100653a8     rtw_modelmap_utils.obj
 0002:000023e4       ??_C@_1DI@FLNJGPEE@?$AAs?$AAi?$AAg?$AAC?$AAo?$AAm?$AAp?$AAl?$AAe?$AAx?$AAi?$AAt?$AAy?$AA?$FL?$AA?$CK?$AAs?$AAi?$AAg?$AAI?$AAd?$AAx?$AA?$FN?$AA?5?$AA?$CB?$AA?$DN?$AA?5?$AA1?$AA?$AA@ 100653e4     rtw_modelmap_utils.obj
 0002:00002428       ??_C@_1KI@OFELMGBG@?$AA?$CI?$AA?$CI?$AA?$CI?$AAd?$AAa?$AAt?$AAa?$AAT?$AAy?$AAp?$AAe?$AAM?$AAa?$AAp?$AA?$CJ?$AA?$FL?$AA?$CI?$AA?$CI?$AA?$CI?$AAs?$AAt?$AAa?$AAt?$AAe?$AAs?$AA?$CJ?$AA?$FL?$AA?$CI?$AAi?$AA?$CJ?$AA?$FN?$AA?4@ 10065428     rtw_modelmap_utils.obj
 0002:000024f4       ??_C@_1DA@ILCMPHNE@?$AAf?$AAu?$AAl?$AAl?$AAP?$AAa?$AAt?$AAh?$AA?5?$AA?$CB?$AA?$DN?$AA?5?$AA?$CI?$AA?$CI?$AAv?$AAo?$AAi?$AAd?$AA?5?$AA?$CK?$AA?$CJ?$AA0?$AA?$CJ?$AA?$AA@ 100654f4     rtw_modelmap_utils.obj
 0002:00002530       ??_C@_1CI@OEPPFCCA@?$AAp?$AAa?$AAt?$AAh?$AA?5?$AA?$CB?$AA?$DN?$AA?5?$AA?$CI?$AA?$CI?$AAv?$AAo?$AAi?$AAd?$AA?5?$AA?$CK?$AA?$CJ?$AA0?$AA?$CJ?$AA?$AA@ 10065530     rtw_modelmap_utils.obj
 0002:00002560       ??_C@_1FK@GLJIMFHB@?$AA?$CI?$AA?$CI?$AAm?$AAm?$AAi?$AA?$CJ?$AA?9?$AA?$DO?$AAI?$AAn?$AAs?$AAt?$AAa?$AAn?$AAc?$AAe?$AAM?$AAa?$AAp?$AA?4?$AAf?$AAu?$AAl?$AAl?$AAP?$AAa?$AAt?$AAh?$AA?$CJ?$AA?5?$AA?$DN?$AA?$DN@ 10065560     rtw_modelmap_utils.obj
 0002:000025cc       ??_C@_1DG@HPCJGNCE@?$AAm?$AAm?$AAi?$AAP?$AAa?$AAt?$AAh?$AA?$FL?$AAp?$AAa?$AAt?$AAh?$AAL?$AAe?$AAn?$AA?9?$AA1?$AA?$FN?$AA?5?$AA?$DN?$AA?$DN?$AA?5?$AA?8?$AA?2?$AA0?$AA?8?$AA?$AA@ 100655cc     rtw_modelmap_utils.obj
 0002:0000260c       ??_C@_1DM@DBAOGGOO@?$AAm?$AAm?$AAi?$AAP?$AAa?$AAt?$AAh?$AA?$FL?$AAm?$AAm?$AAi?$AAP?$AAa?$AAt?$AAh?$AAL?$AAe?$AAn?$AA?9?$AA1?$AA?$FN?$AA?5?$AA?$DN?$AA?$DN?$AA?5?$AA?8?$AA?2?$AA0?$AA?8?$AA?$AA@ 1006560c     rtw_modelmap_utils.obj
 0002:00002654       ??_C@_1DC@LHIAKAFE@?$AAb?$AAl?$AAo?$AAc?$AAk?$AAP?$AAa?$AAt?$AAh?$AA?5?$AA?$CB?$AA?$DN?$AA?5?$AA?$CI?$AA?$CI?$AAv?$AAo?$AAi?$AAd?$AA?5?$AA?$CK?$AA?$CJ?$AA0?$AA?$CJ?$AA?$AA@ 10065654     rtw_modelmap_utils.obj
 0002:00002690       ??_C@_1GI@KIEJKPGC@?$AAf?$AAu?$AAl?$AAl?$AAS?$AAt?$AAa?$AAt?$AAe?$AAB?$AAl?$AAo?$AAc?$AAk?$AAP?$AAa?$AAt?$AAh?$AA?$FL?$AAf?$AAu?$AAl?$AAl?$AAS?$AAt?$AAa?$AAt?$AAe?$AAB?$AAl?$AAo?$AAc@ 10065690     rtw_modelmap_utils.obj
 0002:00002710       ??_C@_1EE@DNPIBJHC@?$AA?$CI?$AA?$CI?$AAd?$AAi?$AAm?$AAM?$AAa?$AAp?$AA?$CJ?$AA?$FL?$AA?$CI?$AAm?$AAa?$AAp?$AAI?$AAd?$AAx?$AA?$CJ?$AA?$FN?$AA?4?$AAn?$AAu?$AAm?$AAD?$AAi?$AAm?$AAs?$AA?$CJ?$AA?5?$AA?$DN?$AA?$DN?$AA?5@ 10065710     rtw_modelmap_utils.obj
 0002:00002764       ??_C@_06JFOKFOED@CSTATE?$AA@ 10065764     rtw_modelmap_utils.obj
 0002:0000276c       ??_C@_06FAENGAMN@DSTATE?$AA@ 1006576c     rtw_modelmap_utils.obj
 0002:00002774       ??_C@_1BI@LEBJNOGG@?$AAc?$AAs?$AAv?$AAI?$AAd?$AAx?$AA?5?$AA?$DO?$AA?$DN?$AA?5?$AA0?$AA?$AA@ 10065774     rtw_modelmap_utils.obj
 0002:00002790       ??_C@_1BA@KDMGHCHP@?$AAT?$AAI?$AAD?$AA?$DN?$AA?$DN?$AA?9?$AA1?$AA?$AA@ 10065790     rtw_modelmap_utils.obj
 0002:000027a4       ??_C@_1DM@DHGKBPCE@?$AAs?$AAi?$AAg?$AAP?$AAa?$AAt?$AAh?$AA?$FL?$AAs?$AAi?$AAg?$AAP?$AAa?$AAt?$AAh?$AAL?$AAe?$AAn?$AA?9?$AA1?$AA?$FN?$AA?5?$AA?$DN?$AA?$DN?$AA?5?$AA?8?$AA?2?$AA0?$AA?8?$AA?$AA@ 100657a4     rtw_modelmap_utils.obj
 0002:000027ec       _ptsetfilename             100657ec     xpctarget.obj
 0002:000027f0       _xmlfile                   100657f0     xpctarget.obj
 0002:000027f8       ??_C@_0M@KEBBOOAK@driver_test?$AA@ 100657f8     xpctarget.obj
 0002:00002808       ??_C@_03KJCPEMEA@6?47?$AA@ 10065808     xpctarget.obj
 0002:00002810       __real@3fb999999999999a    10065810     xpctarget.obj
 0002:00002820       __real@408f400000000000    10065820     xpctarget.obj
 0002:00002830       _driver_test_BIOMAP        10065830     appmappingData.obj
 0002:00002848       _driver_test_LBLMAP        10065848     appmappingData.obj
 0002:00002860       _driver_test_SIDMAP        10065860     appmappingData.obj
 0002:00002878       _driver_test_SBIO          10065878     appmappingData.obj
 0002:00002880       _driver_test_SLBL          10065880     appmappingData.obj
 0002:00002888       _driver_test_PTIDSMAP      10065888     appmappingData.obj
 0002:000028d0       _driver_test_PTNAMESMAP    100658d0     appmappingData.obj
 0002:00002918       _driver_test_SPTMAP        10065918     appmappingData.obj
 0002:0000293c       _driver_test_dtmap         1006593c     appmappingData.obj
 0002:00002948       _appInfo                   10065948     appmappingData.obj
 0002:000029dc       ??_C@_0CC@FIFFDAB@?$CFd?5input?5args?5expected?0?5?$CFd?5passe@ 100659dc     advantechpci1723.obj
 0002:00002a04       ??_C@_08IECOEMIL@PCI?91723?$AA@ 10065a04     advantechpci1723.obj
 0002:00002a10       ??_C@_0M@COPLEAKP@No?5?$CFs?5found?$AA@ 10065a10     advantechpci1723.obj
 0002:00002a20       ??_C@_0BC@HLILJAKJ@?$CFs?5has?5been?5found?$AA@ 10065a20     advantechpci1723.obj
 0002:00002a38       ??_C@_0BI@IHCNPKCM@No?5?$CFs?5at?5bus?5?$CFd?5slot?5?$CFd?$AA@ 10065a38     advantechpci1723.obj
 0002:00002a58       __real@4024000000000000    10065a58     advantechpci1723.obj
 0002:00002a68       __real@40a9996666666666    10065a68     advantechpci1723.obj
 0002:00002a78       __real@40dfffc000000000    10065a78     advantechpci1723.obj
 0002:00002a88       __real@c024000000000000    10065a88     advantechpci1723.obj
 0002:00002a94       ??_C@_0BK@EBKJELMI@maxfunc?5?$DN?5?$CFd?5at?5?$FL?$CFd?0?5?$CFd?$FN?6?$AA@ 10065a94     xpcruntime:xpcimports.obj
 0002:00002ab4       ??_C@_0CC@DMFKNLL@VendorId?5?$DN?50x?$CFx?0?5DeviceId?5?$DN?50x?$CFx@ 10065ab4     xpcruntime:xpcimports.obj
 0002:00002adc       ??_C@_0DH@OHCBLNMG@Subsystem?5Device?5ID?5?$DN?50x?$CFx?6Subsy@ 10065adc     xpcruntime:xpcimports.obj
 0002:00002b20       ??_C@_0BD@MMMMEFCM@Class?5Code?5?$DN?50x?$CFx?6?$AA@ 10065b20     xpcruntime:xpcimports.obj
 0002:00002b38       ??_C@_0BE@OLDDDNHM@InterruptLine?5?$DN?5?$CFd?6?$AA@ 10065b38     xpcruntime:xpcimports.obj
 0002:00002b50       ??_C@_0CE@IBMFFAPN@bus?5?$DN?5?$CFd?0?5slot?5?$DN?5?$CFd?0?5function?5?$DN?5@ 10065b50     xpcruntime:xpcimports.obj
 0002:00002b7c       ??_C@_0CE@DGLLGDFH@?5?5?5?5Phys?5?5?5Virtual?5?5?5Length?5IO?1M@ 10065b7c     xpcruntime:xpcimports.obj
 0002:00002ba8       ??_C@_0BI@FEOPLEMG@?$CF08x?5?$CF08x?5?$CF08x?5?5?5?5?5?5?$CFc?6?$AA@ 10065ba8     xpcruntime:xpcimports.obj
 0002:00002bc4       ??_C@_0BB@BNNCEDPC@rl32eScopeExists?$AA@ 10065bc4     xpcruntime:xpcimports.obj
 0002:00002bd8       ??_C@_0BM@FJBFEGFG@rl32eScopeExists?5not?5found?6?$AA@ 10065bd8     xpcruntime:xpcimports.obj
 0002:00002bfc       ??_C@_0O@BNNGKJEA@rl32eDefScope?$AA@ 10065bfc     xpcruntime:xpcimports.obj
 0002:00002c0c       ??_C@_0BJ@CDNOENKA@rl32eDefScope?5not?5found?6?$AA@ 10065c0c     xpcruntime:xpcimports.obj
 0002:00002c2c       ??_C@_0P@CKNKILDP@rl32eAddSignal?$AA@ 10065c2c     xpcruntime:xpcimports.obj
 0002:00002c40       ??_C@_0BK@GMJAJBAI@rl32eAddSignal?5not?5found?6?$AA@ 10065c40     xpcruntime:xpcimports.obj
 0002:00002c60       ??_C@_0BB@LDMIHGCE@rl32eGetSignalNo?$AA@ 10065c60     xpcruntime:xpcimports.obj
 0002:00002c74       ??_C@_0BM@LGAMBAID@rl32eGetSignalNo?5not?5found?6?$AA@ 10065c74     xpcruntime:xpcimports.obj
 0002:00002c98       ??_C@_0O@CFDGALBP@rl32eSetScope?$AA@ 10065c98     xpcruntime:xpcimports.obj
 0002:00002ca8       ??_C@_0BJ@JCLHHIN@rl32eSetScope?5not?5found?6?$AA@ 10065ca8     xpcruntime:xpcimports.obj
 0002:00002cc8       ??_C@_0P@IKMCBMHH@xpceFSScopeSet?$AA@ 10065cc8     xpcruntime:xpcimports.obj
 0002:00002cdc       ??_C@_0BK@JODJPNNH@xpceFSScopeSet?5not?5found?6?$AA@ 10065cdc     xpcruntime:xpcimports.obj
 0002:00002cfc       ??_C@_0BE@DLACEEJM@rl32eSetTargetScope?$AA@ 10065cfc     xpcruntime:xpcimports.obj
 0002:00002d14       ??_C@_0BP@JCHFMKPJ@rl32eSetTargetScope?5not?5found?6?$AA@ 10065d14     xpcruntime:xpcimports.obj
 0002:00002d3c       ??_C@_0BJ@LIDLNDHC@rl32eSetTargetScopeSigFt?$AA@ 10065d3c     xpcruntime:xpcimports.obj
 0002:00002d5c       ??_C@_0CE@JLGHCFHI@rl32eSetTargetScopeSigFt?5not?5fou@ 10065d5c     xpcruntime:xpcimports.obj
 0002:00002d88       ??_C@_0BI@JAPOIDNG@rl32eRestartAcquisition?$AA@ 10065d88     xpcruntime:xpcimports.obj
 0002:00002da4       ??_C@_0CD@LLBEFFBO@rl32eRestartAcquisition?5not?5foun@ 10065da4     xpcruntime:xpcimports.obj
 0002:00002dd0       ??_C@_0P@IEIIADJB@xpceScopeAcqOK?$AA@ 10065dd0     xpcruntime:xpcimports.obj
 0002:00002de4       ??_C@_0BK@NJCKNFPN@xpceScopeAcqOK?5not?5found?6?$AA@ 10065de4     xpcruntime:xpcimports.obj
 0002:00002e04       ??_C@_0BA@IJINKAHF@xpceRegisterISR?$AA@ 10065e04     xpcruntime:xpcimports.obj
 0002:00002e18       ??_C@_0BL@NNDLOEJE@xpceRegisterISR?5not?5found?6?$AA@ 10065e18     xpcruntime:xpcimports.obj
 0002:00002e38       ??_C@_0BC@NLBADGKF@xpceDeRegisterISR?$AA@ 10065e38     xpcruntime:xpcimports.obj
 0002:00002e50       ??_C@_0BN@DCAIKFFD@xpceDeRegisterISR?5not?5found?6?$AA@ 10065e50     xpcruntime:xpcimports.obj
 0002:00002e74       ??_C@_07JPMEPILD@xpcInpB?$AA@ 10065e74     xpcruntime:xpcimports.obj
 0002:00002e80       ??_C@_0BD@PGABEJOL@xpcInpB?5not?5found?6?$AA@ 10065e80     xpcruntime:xpcimports.obj
 0002:00002e98       ??_C@_07KIHBBOKH@xpcInpW?$AA@ 10065e98     xpcruntime:xpcimports.obj
 0002:00002ea4       ??_C@_0BD@FPCJFMCC@xpcInpW?5not?5found?6?$AA@ 10065ea4     xpcruntime:xpcimports.obj
 0002:00002ebc       ??_C@_08KDIAJBOP@xpcInpDW?$AA@ 10065ebc     xpcruntime:xpcimports.obj
 0002:00002ec8       ??_C@_0BE@PIELDNIL@xpcInpDW?5not?5found?6?$AA@ 10065ec8     xpcruntime:xpcimports.obj
 0002:00002ee0       ??_C@_08PJFMOIGO@xpcOutpB?$AA@ 10065ee0     xpcruntime:xpcimports.obj
 0002:00002eec       ??_C@_0BE@HCKNCEKF@xpcOutpB?5not?5found?6?$AA@ 10065eec     xpcruntime:xpcimports.obj
 0002:00002f04       ??_C@_08MOOJAOHK@xpcOutpW?$AA@ 10065f04     xpcruntime:xpcimports.obj
 0002:00002f10       ??_C@_0BE@NLIFDBGM@xpcOutpW?5not?5found?6?$AA@ 10065f10     xpcruntime:xpcimports.obj
 0002:00002f28       ??_C@_09FLIEKHJG@xpcOutpDW?$AA@ 10065f28     xpcruntime:xpcimports.obj
 0002:00002f34       ??_C@_0BF@GJKLPNHB@xpcOutpDW?5not?5found?6?$AA@ 10065f34     xpcruntime:xpcimports.obj
 0002:00002f50       ??_C@_0BH@EHOLELHH@xpcReserveMemoryRegion?$AA@ 10065f50     xpcruntime:xpcimports.obj
 0002:00002f6c       ??_C@_0CC@KAAAGPI@xpcReserveMemoryRegion?5not?5found@ 10065f6c     xpcruntime:xpcimports.obj
 0002:00002f94       ??_C@_0BA@JGPMHGAF@rl32eShowPCIDev?$AA@ 10065f94     xpcruntime:xpcimports.obj
 0002:00002fa8       ??_C@_0BL@DDFFLNHI@rl32eShowPCIDev?5not?5found?6?$AA@ 10065fa8     xpcruntime:xpcimports.obj
 0002:00002fc8       ??_C@_0BB@KBCOJPFB@rl32eShowPCIInfo?$AA@ 10065fc8     xpcruntime:xpcimports.obj
 0002:00002fdc       ??_C@_0BM@IFDMAGLO@rl32eShowPCIInfo?5not?5found?6?$AA@ 10065fdc     xpcruntime:xpcimports.obj
 0002:00003000       ??_C@_0BA@BGPAADB@rl32eGetPCIInfo?$AA@ 10066000     xpcruntime:xpcimports.obj
 0002:00003014       ??_C@_0BL@IGOMLDCK@rl32eGetPCIInfo?5not?5found?6?$AA@ 10066014     xpcruntime:xpcimports.obj
 0002:00003034       ??_C@_0BG@NJPFKFDP@rl32eGetPCIInfoAtSlot?$AA@ 10066034     xpcruntime:xpcimports.obj
 0002:00003050       ??_C@_0CB@BBKIPMLA@rl32eGetPCIInfoAtSlot?5not?5found?6@ 10066050     xpcruntime:xpcimports.obj
 0002:00003078       ??_C@_0BH@OKBOPNFG@xpceAssignPCIInterrupt?$AA@ 10066078     xpcruntime:xpcimports.obj
 0002:00003094       ??_C@_0CC@CDNDNJBJ@xpceAssignPCIInterrupt?5not?5found@ 10066094     xpcruntime:xpcimports.obj
 0002:000030bc       ??_C@_0BD@PCKOKHO@xpceGetSignalValue?$AA@ 100660bc     xpcruntime:xpcimports.obj
 0002:000030d4       ??_C@_0BO@GCBDJHMB@xpceGetSignalValue?5not?5found?6?$AA@ 100660d4     xpcruntime:xpcimports.obj
 0002:000030f8       ??_C@_0BB@BJONJAGA@xpceSetParameter?$AA@ 100660f8     xpcruntime:xpcimports.obj
 0002:0000310c       ??_C@_0BM@BJIKDLHA@xpceSetParameter?5not?5found?6?$AA@ 1006610c     xpcruntime:xpcimports.obj
 0002:00003130       ??_C@_0BB@GNFDFMCM@xpceGetParameter?$AA@ 10066130     xpcruntime:xpcimports.obj
 0002:00003144       ??_C@_0BM@POHNKBC@xpceGetParameter?5not?5found?6?$AA@ 10066144     xpcruntime:xpcimports.obj
 0002:00003168       ??_C@_0BB@CEIJLFCD@xpceGetParamDims?$AA@ 10066168     xpcruntime:xpcimports.obj
 0002:0000317c       ??_C@_0BM@OABDBKAO@xpceGetParamDims?5not?5found?6?$AA@ 1006617c     xpcruntime:xpcimports.obj
 0002:000031a0       ??_C@_0L@OCBLLHBM@xpceGetTET?$AA@ 100661a0     xpcruntime:xpcimports.obj
 0002:000031b0       ??_C@_0BG@HNOFBOB@xpceGetTET?5not?5found?6?$AA@ 100661b0     xpcruntime:xpcimports.obj
 0002:000031cc       ??_C@_0P@OKGNGAGH@xpcIsModelInit?$AA@ 100661cc     xpcruntime:xpcimports.obj
 0002:000031e0       ??_C@_0BK@DHEMLBIM@xpcIsModelInit?5not?5found?6?$AA@ 100661e0     xpcruntime:xpcimports.obj
 0002:00003200       ??_C@_0BH@KJJLCAOJ@xpcAllocPhysicalMemory?$AA@ 10066200     xpcruntime:xpcimports.obj
 0002:0000321c       ??_C@_0CC@MOJPNHKL@xpcAllocPhysicalMemory?5not?5found@ 1006621c     xpcruntime:xpcimports.obj
 0002:00003244       ??_C@_0BG@CBNPGAEL@xpcFreePhysicalMemory?$AA@ 10066244     xpcruntime:xpcimports.obj
 0002:00003260       ??_C@_0CB@PKJEBPOG@xpcFreePhysicalMemory?5not?5found?6@ 10066260     xpcruntime:xpcimports.obj
 0002:00003288       ??_C@_0BC@JGKNLICL@xpcGetElapsedTime?$AA@ 10066288     xpcruntime:xpcimports.obj
 0002:000032a0       ??_C@_0BN@OEOAHCIO@xpcGetElapsedTime?5not?5found?6?$AA@ 100662a0     xpcruntime:xpcimports.obj
 0002:000032c4       ??_C@_0M@ICBLMODA@xpcBusyWait?$AA@ 100662c4     xpcruntime:xpcimports.obj
 0002:000032d4       ??_C@_0BH@FBOPECBI@xpcBusyWait?5not?5found?6?$AA@ 100662d4     xpcruntime:xpcimports.obj
 0002:000032f0       ??_C@_0N@LKKJEKKA@TBCreateSpin?$AA@ 100662f0     xpcruntime:xpcimports.obj
 0002:00003300       ??_C@_0BI@FHKMLKOE@TBCreateSpin?5not?5found?6?$AA@ 10066300     xpcruntime:xpcimports.obj
 0002:0000331c       ??_C@_0N@HOAJHNBD@TBDeleteSpin?$AA@ 1006631c     xpcruntime:xpcimports.obj
 0002:0000332c       ??_C@_0BI@BKCPAAG@TBDeleteSpin?5not?5found?6?$AA@ 1006632c     xpcruntime:xpcimports.obj
 0002:00003348       ??_C@_0P@DAHDDBJG@TBTakeSpinFast?$AA@ 10066348     xpcruntime:xpcimports.obj
 0002:0000335c       ??_C@_0BK@NKAIBHGB@TBTakeSpinFast?5not?5found?6?$AA@ 1006635c     xpcruntime:xpcimports.obj
 0002:0000337c       ??_C@_0P@FKNAAELA@TBGiveSpinFast?$AA@ 1006637c     xpcruntime:xpcimports.obj
 0002:00003390       ??_C@_0BK@KGPJBJND@TBGiveSpinFast?5not?5found?6?$AA@ 10066390     xpcruntime:xpcimports.obj
 0002:000033b0       ??_C@_0BE@IIGBFDHK@xpceCreateSemaphore?$AA@ 100663b0     xpcruntime:xpcimports.obj
 0002:000033c8       ??_C@_0BP@KFBAFFKJ@xpceCreateSemaphore?5not?5found?6?$AA@ 100663c8     xpcruntime:xpcimports.obj
 0002:000033f0       ??_C@_0BC@IFNIONKJ@xpceWaitSemaphore?$AA@ 100663f0     xpcruntime:xpcimports.obj
 0002:00003408       ??_C@_0BN@NMFAADIO@xpceWaitSemaphore?5not?5found?6?$AA@ 10066408     xpcruntime:xpcimports.obj
 0002:0000342c       ??_C@_0BE@NNDIOBKE@xpceSignalSemaphore?$AA@ 1006642c     xpcruntime:xpcimports.obj
 0002:00003444       ??_C@_0BP@LBANMHJP@xpceSignalSemaphore?5not?5found?6?$AA@ 10066444     xpcruntime:xpcimports.obj
 0002:0000346c       ??_C@_0BE@MEBEKOIM@xpceDeleteSemaphore?$AA@ 1006646c     xpcruntime:xpcimports.obj
 0002:00003484       ??_C@_0BP@OFNCKOJH@xpceDeleteSemaphore?5not?5found?6?$AA@ 10066484     xpcruntime:xpcimports.obj
 0002:000034ac       ??_C@_0BD@MFNDMBOF@FindUsbVideoDevice?$AA@ 100664ac     xpcruntime:xpcimports.obj
 0002:000034c4       ??_C@_0BO@POKLDHMI@FindUsbVideoDevice?5not?5found?6?$AA@ 100664c4     xpcruntime:xpcimports.obj
 0002:000034e8       ??_C@_0BA@PLPAPNAB@GetVideoConfigs?$AA@ 100664e8     xpcruntime:xpcimports.obj
 0002:000034fc       ??_C@_0BL@DALDHKHC@GetVideoConfigs?5not?5found?6?$AA@ 100664fc     xpcruntime:xpcimports.obj
 0002:0000351c       ??_C@_0L@GBAEMHMH@StartVideo?$AA@ 1006651c     xpcruntime:xpcimports.obj
 0002:0000352c       ??_C@_0BG@HDCELEBP@StartVideo?5not?5found?6?$AA@ 1006652c     xpcruntime:xpcimports.obj
 0002:00003548       ??_C@_0BA@FDNPOCLN@ReadFrameBuffer?$AA@ 10066548     xpcruntime:xpcimports.obj
 0002:0000355c       ??_C@_0BL@JHGHPNBI@ReadFrameBuffer?5not?5found?6?$AA@ 1006655c     xpcruntime:xpcimports.obj
 0002:0000357c       ??_C@_09FAHCLKAG@StopVideo?$AA@ 1006657c     xpcruntime:xpcimports.obj
 0002:00003588       ??_C@_0BF@NKGKKADL@StopVideo?5not?5found?6?$AA@ 10066588     xpcruntime:xpcimports.obj
 0002:000035a4       ??_C@_0O@MCPKDLLL@ConvertUImage?$AA@ 100665a4     xpcruntime:xpcimports.obj
 0002:000035b4       ??_C@_0BJ@PHJKOAFL@ConvertUImage?5not?5found?6?$AA@ 100665b4     xpcruntime:xpcimports.obj
 0002:000035d4       ??_C@_0BD@NKCBPBJJ@CreateVideoDisplay?$AA@ 100665d4     xpcruntime:xpcimports.obj
 0002:000035ec       ??_C@_0BO@HPPLLNFP@CreateVideoDisplay?5not?5found?6?$AA@ 100665ec     xpcruntime:xpcimports.obj
 0002:00003610       ??_C@_0BE@KJCKGPHA@DestroyVideoDisplay?$AA@ 10066610     xpcruntime:xpcimports.obj
 0002:00003628       ??_C@_0BP@FMGLJAIJ@DestroyVideoDisplay?5not?5found?6?$AA@ 10066628     xpcruntime:xpcimports.obj
 0002:00003650       ??_C@_0BC@HCMIMIDN@StartVideoDisplay?$AA@ 10066650     xpcruntime:xpcimports.obj
 0002:00003668       ??_C@_0BN@EFIEBGOO@StartVideoDisplay?5not?5found?6?$AA@ 10066668     xpcruntime:xpcimports.obj
 0002:0000368c       ??_C@_0BB@JBBLMILG@StopVideoDisplay?$AA@ 1006668c     xpcruntime:xpcimports.obj
 0002:000036a0       ??_C@_0BM@DBJBPLEL@StopVideoDisplay?5not?5found?6?$AA@ 100666a0     xpcruntime:xpcimports.obj
 0002:000036c4       ??_C@_0M@MFJEGMHC@StreamVideo?$AA@ 100666c4     xpcruntime:xpcimports.obj
 0002:000036d4       ??_C@_0BH@OINCDMLA@StreamVideo?5not?5found?6?$AA@ 100666d4     xpcruntime:xpcimports.obj
 0002:000036f0       ??_C@_0N@IGGLCIGE@xpceaddEvent?$AA@ 100666f0     xpcruntime:xpcimports.obj
 0002:00003700       ??_C@_0BI@NHJNFMKH@xpceaddEvent?5not?5found?6?$AA@ 10066700     xpcruntime:xpcimports.obj
 0002:0000371c       ??_C@_0BC@MLJODBHJ@slrtStartProfiler?$AA@ 1006671c     xpcruntime:xpcimports.obj
 0002:00003734       ??_C@_0BN@HLNCOKA@slrtStartProfiler?5not?5found?6?$AA@ 10066734     xpcruntime:xpcimports.obj
 0002:00003758       ??_C@_0BB@ONJONMCD@slrtStopProfiler?$AA@ 10066758     xpcruntime:xpcimports.obj
 0002:0000376c       ??_C@_0BM@GAKJEGBA@slrtStopProfiler?5not?5found?6?$AA@ 1006676c     xpcruntime:xpcimports.obj
 0002:00003790       ??_C@_0BF@EILBHBBF@slrtGetProfilerState?$AA@ 10066790     xpcruntime:xpcimports.obj
 0002:000037ac       ??_C@_0CA@EDDFOCLE@slrtGetProfilerState?5not?5found?6?$AA@ 100667ac     xpcruntime:xpcimports.obj
 0002:000037d4       ??_C@_0BB@HDPOIJAB@xpceDAQPostEvent?$AA@ 100667d4     xpcruntime:xpcimports.obj
 0002:000037e8       ??_C@_0BM@IHANBKGN@xpceDAQPostEvent?5not?5found?6?$AA@ 100667e8     xpcruntime:xpcimports.obj
 0002:0000380c       ??_C@_0BH@MBACMOD@xpceDAQUpdateTimeStamp?$AA@ 1006680c     xpcruntime:xpcimports.obj
 0002:00003828       ??_C@_0CC@DAKBBINL@xpceDAQUpdateTimeStamp?5not?5found@ 10066828     xpcruntime:xpcimports.obj
 0002:00003850       ??_C@_0BG@CCHICKPN@slrteSetStepSizeDelta?$AA@ 10066850     xpcruntime:xpcimports.obj
 0002:0000386c       ??_C@_0CB@MKHINEIJ@slrteSetStepSizeDelta?5not?5found?6@ 1006686c     xpcruntime:xpcimports.obj
 0002:00003894       ??_C@_0BI@CLNBLDKJ@slrteGetCurrentStepSize?$AA@ 10066894     xpcruntime:xpcimports.obj
 0002:000038b0       ??_C@_0CD@GIOJPGJA@slrteGetCurrentStepSize?5not?5foun@ 100668b0     xpcruntime:xpcimports.obj
 0002:000038dc       ??_C@_0BE@FCLCBOC@registerPTPTimeRead?$AA@ 100668dc     xpcruntime:xpcimports.obj
 0002:000038f4       ??_C@_0BP@LHPKAJIP@registerPTPTimeRead?5not?5found?6?$AA@ 100668f4     xpcruntime:xpcimports.obj
 0002:0000391c       ??_C@_0BG@KIGCDDJI@unRegisterPTPTimeRead?$AA@ 1006691c     xpcruntime:xpcimports.obj
 0002:00003938       ??_C@_0CB@MLFFBFCM@unRegisterPTPTimeRead?5not?5found?6@ 10066938     xpcruntime:xpcimports.obj
 0002:00003960       ??_C@_0BB@IPMDDBHK@slTestInitialize?$AA@ 10066960     xpcruntime:xpcimports.obj
 0002:00003974       ??_C@_0BM@LAJFCCJH@slTestInitialize?5not?5found?6?$AA@ 10066974     xpcruntime:xpcimports.obj
 0002:00003998       ??_C@_0BF@OOMPMEBC@slTestLogAssessments?$AA@ 10066998     xpcruntime:xpcimports.obj
 0002:000039b4       ??_C@_0CA@FGJCEBAG@slTestLogAssessments?5not?5found?6?$AA@ 100669b4     xpcruntime:xpcimports.obj
 0002:000039dc       ??_C@_0BB@HJHKONHO@slTestEvalOnFail?$AA@ 100669dc     xpcruntime:xpcimports.obj
 0002:000039f0       ??_C@_0BM@JIKCFFNJ@slTestEvalOnFail?5not?5found?6?$AA@ 100669f0     xpcruntime:xpcimports.obj
 0002:00003a14       ??_C@_0BA@LBHLABFP@slTestTerminate?$AA@ 10066a14     xpcruntime:xpcimports.obj
 0002:00003a28       ??_C@_0BL@EMFGKAPA@slTestTerminate?5not?5found?6?$AA@ 10066a28     xpcruntime:xpcimports.obj
 0002:00003a48       ??_C@_0BE@JPNPBBEO@slTestRegAssessment?$AA@ 10066a48     xpcruntime:xpcimports.obj
 0002:00003a60       ??_C@_0BP@FBDEJJJH@slTestRegAssessment?5not?5found?6?$AA@ 10066a60     xpcruntime:xpcimports.obj
 0002:00003a88       ??_C@_0O@NCLGDNIB@slrteSetupMSI?$AA@ 10066a88     xpcruntime:xpcimports.obj
 0002:00003a98       ??_C@_0BJ@HEFMECLM@slrteSetupMSI?5not?5found?6?$AA@ 10066a98     xpcruntime:xpcimports.obj
 0002:00003ab8       ??_C@_0BH@BPOLALHD@slrtGetCRBScratchSpace?$AA@ 10066ab8     xpcruntime:xpcimports.obj
 0002:00003ad4       ??_C@_0CC@KCKAJKKJ@slrtGetCRBScratchSpace?5not?5found@ 10066ad4     xpcruntime:xpcimports.obj
 0002:00003afc       ??_C@_0BC@MKFDAKOL@slrtGetSgCRBSpace?$AA@ 10066afc     xpcruntime:xpcimports.obj
 0002:00003b14       ??_C@_0BN@JDPHPLHL@slrtGetSgCRBSpace?5not?5found?6?$AA@ 10066b14     xpcruntime:xpcimports.obj
 0002:00003b38       ??_C@_0P@EPAPKLIF@slrtfsOpenFile?$AA@ 10066b38     xpcruntime:xpcimports.obj
 0002:00003b4c       ??_C@_0BK@FIHCBOHG@slrtfsOpenFile?5not?5found?6?$AA@ 10066b4c     xpcruntime:xpcimports.obj
 0002:00003b6c       ??_C@_0BA@LILAFDDL@slrtfsCloseFile?$AA@ 10066b6c     xpcruntime:xpcimports.obj
 0002:00003b80       ??_C@_0BL@DEGHJFIB@slrtfsCloseFile?5not?5found?6?$AA@ 10066b80     xpcruntime:xpcimports.obj
 0002:00003ba0       ??_C@_0BC@OKMJDIEH@slrtfsWriteToFile?$AA@ 10066ba0     xpcruntime:xpcimports.obj
 0002:00003bb8       ??_C@_0BN@KCFLCLAH@slrtfsWriteToFile?5not?5found?6?$AA@ 10066bb8     xpcruntime:xpcimports.obj
 0002:00003bdc       ??_C@_0BK@GIPNFFFF@slrtfsGetFileErrorMessage?$AA@ 10066bdc     xpcruntime:xpcimports.obj
 0002:00003bfc       ??_C@_0CF@BCBLMKLE@slrtfsGetFileErrorMessage?5not?5fo@ 10066bfc     xpcruntime:xpcimports.obj
 0002:00003c28       ??_C@_0BD@ICBOKMK@slrtfsGetFileError?$AA@ 10066c28     xpcruntime:xpcimports.obj
 0002:00003c40       ??_C@_0BO@FNBANAE@slrtfsGetFileError?5not?5found?6?$AA@ 10066c40     xpcruntime:xpcimports.obj
 0002:00003c64       ??_C@_0BE@PPAJMHJP@slrtfsOpenFileAsync?$AA@ 10066c64     xpcruntime:xpcimports.obj
 0002:00003c7c       ??_C@_0BP@HKBMMJOK@slrtfsOpenFileAsync?5not?5found?6?$AA@ 10066c7c     xpcruntime:xpcimports.obj
 0002:00003ca4       ??_C@_0BF@IGNDIBPF@slrtfsCloseFileAsync?$AA@ 10066ca4     xpcruntime:xpcimports.obj
 0002:00003cc0       ??_C@_0CA@GJPFDBKN@slrtfsCloseFileAsync?5not?5found?6?$AA@ 10066cc0     xpcruntime:xpcimports.obj
 0002:00003ce8       ??_C@_0BE@IOLEBNB@slrtfsGetFileStatus?$AA@ 10066ce8     xpcruntime:xpcimports.obj
 0002:00003d00       ??_C@_0BP@PEFHDGHL@slrtfsGetFileStatus?5not?5found?6?$AA@ 10066d00     xpcruntime:xpcimports.obj
 0002:00003d28       ??_C@_0M@HKIJIMG@slrtfsFread?$AA@ 10066d28     xpcruntime:xpcimports.obj
 0002:00003d38       ??_C@_0BH@OOKBGONO@slrtfsFread?5not?5found?6?$AA@ 10066d38     xpcruntime:xpcimports.obj
 0002:00003d54       ??_C@_0BE@OGCMPLAP@slrtGetDefaultDrive?$AA@ 10066d54     xpcruntime:xpcimports.obj
 0002:00003d6c       ??_C@_0BP@HKFGLHOE@slrtGetDefaultDrive?5not?5found?6?$AA@ 10066d6c     xpcruntime:xpcimports.obj
 0002:00003d94       ??_C@_0N@NAJIKFFI@slrtLogEvent?$AA@ 10066d94     xpcruntime:xpcimports.obj
 0002:00003da4       ??_C@_0BI@NKCEACND@slrtLogEvent?5not?5found?6?$AA@ 10066da4     xpcruntime:xpcimports.obj
 0002:00003dc0       ??_C@_0N@IDKFJOHI@getlasterror?$AA@ 10066dc0     xpcruntime:xpcimports.obj
 0002:00003dd0       ??_C@_0BI@MIHMCHGL@getlasterror?5not?5found?6?$AA@ 10066dd0     xpcruntime:xpcimports.obj
 0002:00003dec       ??_C@_0P@OKHGKJKN@geterrorstring?$AA@ 10066dec     xpcruntime:xpcimports.obj
 0002:00003e00       ??_C@_0BK@NOHFDMLP@geterrorstring?5not?5found?6?$AA@ 10066e00     xpcruntime:xpcimports.obj
 0002:00003e20       ??_C@_0BD@HNFFKMGJ@slrtGetCPUTCelsius?$AA@ 10066e20     xpcruntime:xpcimports.obj
 0002:00003e38       ??_C@_0BO@LHBFKLIH@slrtGetCPUTCelsius?5not?5found?6?$AA@ 10066e38     xpcruntime:xpcimports.obj
 0002:00003e5c       ??_C@_0M@OONCNCLM@slrtWarning?$AA@ 10066e5c     xpcruntime:xpcimports.obj
 0002:00003e6c       ??_C@_0BH@ICKGIEMB@slrtWarning?5not?5found?6?$AA@ 10066e6c     xpcruntime:xpcimports.obj
 0002:00003e88       ??_C@_0M@JACEPOPN@registerNIC?$AA@ 10066e88     xpcruntime:xpcimports.obj
 0002:00003e98       ??_C@_0BH@JMDHJIAC@registerNIC?5not?5found?6?$AA@ 10066e98     xpcruntime:xpcimports.obj
 0002:00003eb4       ??_C@_0M@KBKHECFH@NICSetIface?$AA@ 10066eb4     xpcruntime:xpcimports.obj
 0002:00003ec4       ??_C@_0BH@NJAHOBA@NICSetIface?5not?5found?6?$AA@ 10066ec4     xpcruntime:xpcimports.obj
 0002:00003ee0       ??_C@_0M@FAILFBCK@NICGetIface?$AA@ 10066ee0     xpcruntime:xpcimports.obj
 0002:00003ef0       ??_C@_0BH@KDLLDOGM@NICGetIface?5not?5found?6?$AA@ 10066ef0     xpcruntime:xpcimports.obj
 0002:00003f0c       ??_C@_0L@JNFPDPO@releaseNIC?$AA@ 10066f0c     xpcruntime:xpcimports.obj
 0002:00003f1c       ??_C@_0BG@EBGJANLA@releaseNIC?5not?5found?6?$AA@ 10066f1c     xpcruntime:xpcimports.obj
 0002:00003f38       ??_C@_0BC@HLDKJAG@SetIPTASKPriority?$AA@ 10066f38     xpcruntime:xpcimports.obj
 0002:00003f50       ??_C@_0BN@OGKMHHAE@SetIPTASKPriority?5not?5found?6?$AA@ 10066f50     xpcruntime:xpcimports.obj
 0002:00003f74       ??_C@_0O@LHENMBDD@OpenInterface?$AA@ 10066f74     xpcruntime:xpcimports.obj
 0002:00003f84       ??_C@_0BJ@PFGDBKHB@OpenInterface?5not?5found?6?$AA@ 10066f84     xpcruntime:xpcimports.obj
 0002:00003fa4       ??_C@_0P@IINFELKD@CloseInterface?$AA@ 10066fa4     xpcruntime:xpcimports.obj
 0002:00003fb8       ??_C@_0BK@PAPDNDBK@CloseInterface?5not?5found?6?$AA@ 10066fb8     xpcruntime:xpcimports.obj
 0002:00003fd8       ??_C@_05LEFIAAOI@SetIP?$AA@ 10066fd8     xpcruntime:xpcimports.obj
 0002:00003fe0       ??_C@_0BB@CGLIBAMM@SetIP?5not?5found?6?$AA@ 10066fe0     xpcruntime:xpcimports.obj
 0002:00003ff4       ??_C@_0BA@HIJJHHMD@AddGatewayRoute?$AA@ 10066ff4     xpcruntime:xpcimports.obj
 0002:00004008       ??_C@_0BL@BFCFMDMN@AddGatewayRoute?5not?5found?6?$AA@ 10067008     xpcruntime:xpcimports.obj
 0002:00004028       ??_C@_0M@PHMABFPI@DeleteRoute?$AA@ 10067028     xpcruntime:xpcimports.obj
 0002:00004038       ??_C@_0BH@JPJGLLID@DeleteRoute?5not?5found?6?$AA@ 10067038     xpcruntime:xpcimports.obj
 0002:00004054       ??_C@_0BA@FCDIMKIJ@GetHostTarIPAdd?$AA@ 10067054     xpcruntime:xpcimports.obj
 0002:00004068       ??_C@_0BL@MBKDGKBO@GetHostTarIPAdd?5not?5found?6?$AA@ 10067068     xpcruntime:xpcimports.obj
 0002:00004088       ??_C@_0M@HPMIPIBI@GetDCUUsage?$AA@ 10067088     xpcruntime:xpcimports.obj
 0002:00004098       ??_C@_0BH@EBLJKCJC@GetDCUUsage?5not?5found?6?$AA@ 10067098     xpcruntime:xpcimports.obj
 0002:000040b4       ??_C@_06MPKMECK@accept?$AA@ 100670b4     xpcruntime:xpcimports.obj
 0002:000040bc       ??_C@_0BC@GBGIEMNO@accept?5not?5found?6?$AA@ 100670bc     xpcruntime:xpcimports.obj
 0002:000040d4       ??_C@_04NPNJNMMP@bind?$AA@ 100670d4     xpcruntime:xpcimports.obj
 0002:000040dc       ??_C@_0BA@DAJNENLO@bind?5not?5found?6?$AA@ 100670dc     xpcruntime:xpcimports.obj
 0002:000040f0       ??_C@_0L@CKHNIFCM@setsockopt?$AA@ 100670f0     xpcruntime:xpcimports.obj
 0002:00004100       ??_C@_0BG@MFIIOMFE@setsockopt?5not?5found?6?$AA@ 10067100     xpcruntime:xpcimports.obj
 0002:0000411c       ??_C@_0M@ODDJDCDK@closesocket?$AA@ 1006711c     xpcruntime:xpcimports.obj
 0002:0000412c       ??_C@_0BH@JHGHMIL@closesocket?5not?5found?6?$AA@ 1006712c     xpcruntime:xpcimports.obj
 0002:00004148       ??_C@_07KAIBNCHO@connect?$AA@ 10067148     xpcruntime:xpcimports.obj
 0002:00004154       ??_C@_0BD@MKLLMBM@connect?5not?5found?6?$AA@ 10067154     xpcruntime:xpcimports.obj
 0002:0000416c       ??_C@_0M@PBPOCKDG@ioctlsocket?$AA@ 1006716c     xpcruntime:xpcimports.obj
 0002:0000417c       ??_C@_0BH@NFCNHHIH@ioctlsocket?5not?5found?6?$AA@ 1006717c     xpcruntime:xpcimports.obj
 0002:00004198       ??_C@_06OODDLKLE@listen?$AA@ 10067198     xpcruntime:xpcimports.obj
 0002:000041a0       ??_C@_0BC@NHBILEKI@listen?5not?5found?6?$AA@ 100671a0     xpcruntime:xpcimports.obj
 0002:000041b8       ??_C@_08HMBBGFHE@recvfrom?$AA@ 100671b8     xpcruntime:xpcimports.obj
 0002:000041c4       ??_C@_0BE@BJAJFFLF@recvfrom?5not?5found?6?$AA@ 100671c4     xpcruntime:xpcimports.obj
 0002:000041dc       ??_C@_06MEPBGKEC@sendto?$AA@ 100671dc     xpcruntime:xpcimports.obj
 0002:000041e4       ??_C@_0BC@BHPIMDJO@sendto?5not?5found?6?$AA@ 100671e4     xpcruntime:xpcimports.obj
 0002:000041fc       ??_C@_09JKBDEEOB@inet_addr?$AA@ 100671fc     xpcruntime:xpcimports.obj
 0002:00004208       ??_C@_0BF@HKJPGECN@inet_addr?5not?5found?6?$AA@ 10067208     xpcruntime:xpcimports.obj
 0002:00004224       ??_C@_06HBELJPBO@socket?$AA@ 10067224     xpcruntime:xpcimports.obj
 0002:0000422c       ??_C@_0BC@NAGFFJGA@socket?5not?5found?6?$AA@ 1006722c     xpcruntime:xpcimports.obj
 0002:00004244       ??_C@_09ICJIFGNC@GetSocket?$AA@ 10067244     xpcruntime:xpcimports.obj
 0002:00004250       ??_C@_0BF@KDBCKMOJ@GetSocket?5not?5found?6?$AA@ 10067250     xpcruntime:xpcimports.obj
 0002:0000426c       ??_C@_0P@KJEGJMJI@GetSocketState?$AA@ 1006726c     xpcruntime:xpcimports.obj
 0002:00004280       ??_C@_0BK@IALBJHEB@GetSocketState?5not?5found?6?$AA@ 10067280     xpcruntime:xpcimports.obj
 0002:000042a0       ??_C@_0L@MEAJHNHB@SocketSend?$AA@ 100672a0     xpcruntime:xpcimports.obj
 0002:000042b0       ??_C@_0BG@EOCMBFJA@SocketSend?5not?5found?6?$AA@ 100672b0     xpcruntime:xpcimports.obj
 0002:000042cc       ??_C@_0O@PFPCLEMF@SocketReceive?$AA@ 100672cc     xpcruntime:xpcimports.obj
 0002:000042dc       ??_C@_0BJ@HIBADDFO@SocketReceive?5not?5found?6?$AA@ 100672dc     xpcruntime:xpcimports.obj
 0002:000042fc       ??_C@_0BD@OOGFNAIK@CreateServerSocket?$AA@ 100672fc     xpcruntime:xpcimports.obj
 0002:00004314       ??_C@_0BO@GKIJHIPH@CreateServerSocket?5not?5found?6?$AA@ 10067314     xpcruntime:xpcimports.obj
 0002:00004338       ??_C@_0BB@KGHJGFFO@OpenServerListen?$AA@ 10067338     xpcruntime:xpcimports.obj
 0002:0000434c       ??_C@_0BM@NFMMLIO@OpenServerListen?5not?5found?6?$AA@ 1006734c     xpcruntime:xpcimports.obj
 0002:00004370       ??_C@_0BE@BAJLDJAH@ConnectServerSocket?$AA@ 10067370     xpcruntime:xpcimports.obj
 0002:00004388       ??_C@_0BP@KJNODIKE@ConnectServerSocket?5not?5found?6?$AA@ 10067388     xpcruntime:xpcimports.obj
 0002:000043b0       ??_C@_0BC@PLKKJDIM@CloseServerSocket?$AA@ 100673b0     xpcruntime:xpcimports.obj
 0002:000043c8       ??_C@_0BN@KEJEPNMB@CloseServerSocket?5not?5found?6?$AA@ 100673c8     xpcruntime:xpcimports.obj
 0002:000043ec       ??_C@_0BC@IHMNIGFJ@ResetServerSocket?$AA@ 100673ec     xpcruntime:xpcimports.obj
 0002:00004404       ??_C@_0BN@NIOGJLCG@ResetServerSocket?5not?5found?6?$AA@ 10067404     xpcruntime:xpcimports.obj
 0002:00004428       ??_C@_0BD@MCLPKCPP@CreateClientSocket?$AA@ 10067428     xpcruntime:xpcimports.obj
 0002:00004440       ??_C@_0BO@DILAGPFN@CreateClientSocket?5not?5found?6?$AA@ 10067440     xpcruntime:xpcimports.obj
 0002:00004464       ??_C@_0BB@DAPKNNLG@BindClientSocket?$AA@ 10067464     xpcruntime:xpcimports.obj
 0002:00004478       ??_C@_0BM@LLLMMDFN@BindClientSocket?5not?5found?6?$AA@ 10067478     xpcruntime:xpcimports.obj
 0002:0000449c       ??_C@_0BE@DMEBELHC@ConnectClientSocket?$AA@ 1006749c     xpcruntime:xpcimports.obj
 0002:000044b4       ??_C@_0BP@PLOHCPAO@ConnectClientSocket?5not?5found?6?$AA@ 100674b4     xpcruntime:xpcimports.obj
 0002:000044dc       ??_C@_0BC@NHHAOBPJ@CloseClientSocket?$AA@ 100674dc     xpcruntime:xpcimports.obj
 0002:000044f4       ??_C@_0BN@PGKNOKGL@CloseClientSocket?5not?5found?6?$AA@ 100674f4     xpcruntime:xpcimports.obj
 0002:00004518       ??_C@_0BC@KLBHPECM@ResetClientSocket?$AA@ 10067518     xpcruntime:xpcimports.obj
 0002:00004530       ??_C@_0BN@IKNPIMIM@ResetClientSocket?5not?5found?6?$AA@ 10067530     xpcruntime:xpcimports.obj
 0002:00004554       ??_C@_0M@IJOPFCCE@UDPOpenSend?$AA@ 10067554     xpcruntime:xpcimports.obj
 0002:00004564       ??_C@_0BH@CCHBDPG@UDPOpenSend?5not?5found?6?$AA@ 10067564     xpcruntime:xpcimports.obj
 0002:00004580       ??_C@_0P@MEPACHPD@UDPOpenReceive?$AA@ 10067580     xpcruntime:xpcimports.obj
 0002:00004594       ??_C@_0BK@PFMCPKIO@UDPOpenReceive?5not?5found?6?$AA@ 10067594     xpcruntime:xpcimports.obj
 0002:000045b4       ??_C@_0N@NMMOLOEM@UDPCloseSend?$AA@ 100675b4     xpcruntime:xpcimports.obj
 0002:000045c4       ??_C@_0BI@ENKCOCDG@UDPCloseSend?5not?5found?6?$AA@ 100675c4     xpcruntime:xpcimports.obj
 0002:000045e0       ??_C@_0BA@DMJGBBIA@UDPCloseReceive?$AA@ 100675e0     xpcruntime:xpcimports.obj
 0002:000045f4       ??_C@_0BL@PEBIMLNC@UDPCloseReceive?5not?5found?6?$AA@ 100675f4     xpcruntime:xpcimports.obj
 0002:000046c8       __pDefaultRawDllMain       100676c8     LIBCMT:dll_dllmain.obj
 0002:000046c8       __pRawDllMain              100676c8     LIBCMT:dll_dllmain.obj
 0002:000046e0       ??_C@_1BC@DNHGCMLG@?$AAa?$AAd?$AAv?$AAa?$AAp?$AAi?$AA3?$AA2?$AA?$AA@ 100676e0     libvcruntime:winapi_downlevel.obj
 0002:000046f8       ??_C@_1DM@KHCHBNEB@?$AAa?$AAp?$AAi?$AA?9?$AAm?$AAs?$AA?9?$AAw?$AAi?$AAn?$AA?9?$AAc?$AAo?$AAr?$AAe?$AA?9?$AAf?$AAi?$AAb?$AAe?$AAr?$AAs?$AA?9?$AAl?$AA1?$AA?9?$AA1?$AA?9?$AA1?$AA?$AA@ 100676f8     libvcruntime:winapi_downlevel.obj
 0002:00004740       ??_C@_1DK@LPPGFMPP@?$AAa?$AAp?$AAi?$AA?9?$AAm?$AAs?$AA?9?$AAw?$AAi?$AAn?$AA?9?$AAc?$AAo?$AAr?$AAe?$AA?9?$AAs?$AAy?$AAn?$AAc?$AAh?$AA?9?$AAl?$AA1?$AA?9?$AA2?$AA?9?$AA0?$AA?$AA@ 10067740     libvcruntime:winapi_downlevel.obj
 0002:00004788       ??_C@_1BC@GDMECMAK@?$AAk?$AAe?$AAr?$AAn?$AAe?$AAl?$AA3?$AA2?$AA?$AA@ 10067788     libvcruntime:winapi_downlevel.obj
 0002:000047a4       ??_C@_0O@BAMBGLIE@EventRegister?$AA@ 100677a4     libvcruntime:winapi_downlevel.obj
 0002:000047b8       ??_C@_0BE@BJEEGHGK@EventSetInformation?$AA@ 100677b8     libvcruntime:winapi_downlevel.obj
 0002:000047d4       ??_C@_0BA@FAKLIPIC@EventUnregister?$AA@ 100677d4     libvcruntime:winapi_downlevel.obj
 0002:000047ec       ??_C@_0BD@PKLHJPHD@EventWriteTransfer?$AA@ 100677ec     libvcruntime:winapi_downlevel.obj
 0002:00004810       ??_C@_08KNHFBNJ@FlsAlloc?$AA@ 10067810     libvcruntime:winapi_downlevel.obj
 0002:00004828       ??_C@_07PEJMOBNF@FlsFree?$AA@ 10067828     libvcruntime:winapi_downlevel.obj
 0002:00004840       ??_C@_0M@GDNOONDI@FlsGetValue?$AA@ 10067840     libvcruntime:winapi_downlevel.obj
 0002:0000485c       ??_C@_0M@JCPCPOEF@FlsSetValue?$AA@ 1006785c     libvcruntime:winapi_downlevel.obj
 0002:00004878       ??_C@_0BM@HCFOFFN@InitializeCriticalSectionEx?$AA@ 10067878     libvcruntime:winapi_downlevel.obj
 0002:00004a80       ??_C@_08EHJDFFNH@__based?$CI?$AA@ 10067a80     libvcruntime:undname.obj
 0002:00004a8c       ??_C@_07KOLFKCDI@__cdecl?$AA@ 10067a8c     libvcruntime:undname.obj
 0002:00004a98       ??_C@_08GHMPAG@__pascal?$AA@ 10067a98     libvcruntime:undname.obj
 0002:00004aa4       ??_C@_09IFJBGAPI@__stdcall?$AA@ 10067aa4     libvcruntime:undname.obj
 0002:00004ab0       ??_C@_0L@NPHFGOKO@__thiscall?$AA@ 10067ab0     libvcruntime:undname.obj
 0002:00004ac0       ??_C@_0L@JMKHOMEK@__fastcall?$AA@ 10067ac0     libvcruntime:undname.obj
 0002:00004ad0       ??_C@_0N@BCKKPABJ@__vectorcall?$AA@ 10067ad0     libvcruntime:undname.obj
 0002:00004ae0       ??_C@_09HIJEGCPM@__clrcall?$AA@ 10067ae0     libvcruntime:undname.obj
 0002:00004aec       ??_C@_06GHPCKEAG@__eabi?$AA@ 10067aec     libvcruntime:undname.obj
 0002:00004af4       ??_C@_07JOMMBBKO@__ptr64?$AA@ 10067af4     libvcruntime:undname.obj
 0002:00004b00       ??_C@_0L@PILCLIHE@__restrict?$AA@ 10067b00     libvcruntime:undname.obj
 0002:00004b10       ??_C@_0M@GFIIJFMG@__unaligned?$AA@ 10067b10     libvcruntime:undname.obj
 0002:00004b20       ??_C@_09DHDLOLLB@restrict?$CI?$AA@ 10067b20     libvcruntime:undname.obj
 0002:00004b2c       ??_C@_04NIHEBCM@?5new?$AA@ 10067b2c     libvcruntime:undname.obj
 0002:00004b34       ??_C@_07FPCDHGMM@?5delete?$AA@ 10067b34     libvcruntime:undname.obj
 0002:00004b40       ??_C@_01NEMOKFLO@?$DN?$AA@ 10067b40     libvcruntime:undname.obj
 0002:00004b44       ??_C@_02GPIOPFAK@?$DO?$DO?$AA@ 10067b44     libvcruntime:undname.obj
 0002:00004b48       ??_C@_02FODMEDOG@?$DM?$DM?$AA@ 10067b48     libvcruntime:undname.obj
 0002:00004b4c       ??_C@_01DCLJPIOD@?$CB?$AA@ 10067b4c     libvcruntime:undname.obj
 0002:00004b50       ??_C@_02EGOFBIJA@?$DN?$DN?$AA@ 10067b50     libvcruntime:undname.obj
 0002:00004b54       ??_C@_02FDNJECIE@?$CB?$DN?$AA@ 10067b54     libvcruntime:undname.obj
 0002:00004b58       ??_C@_02GPECMEKF@?$FL?$FN?$AA@ 10067b58     libvcruntime:undname.obj
 0002:00004b5c       ??_C@_08LHJFAFGD@operator?$AA@ 10067b5c     libvcruntime:undname.obj
 0002:00004b68       ??_C@_02HBOOOICD@?9?$DO?$AA@ 10067b68     libvcruntime:undname.obj
 0002:00004b6c       ??_C@_01NBENCBCI@?$CK?$AA@ 10067b6c     libvcruntime:undname.obj
 0002:00004b70       ??_C@_02ECNGHCIF@?$CL?$CL?$AA@ 10067b70     libvcruntime:undname.obj
 0002:00004b74       ??_C@_02BAABKJLB@?9?9?$AA@ 10067b74     libvcruntime:undname.obj
 0002:00004b78       ??_C@_01JOAMLHOP@?9?$AA@   10067b78     libvcruntime:undname.obj
 0002:00004b7c       ??_C@_01MIFGBAGJ@?$CL?$AA@ 10067b7c     libvcruntime:undname.obj
 0002:00004b80       ??_C@_01HNPIGOCE@?$CG?$AA@ 10067b80     libvcruntime:undname.obj
 0002:00004b84       ??_C@_03MNHNFDLC@?9?$DO?$CK?$AA@ 10067b84     libvcruntime:undname.obj
 0002:00004b88       ??_C@_01KMDKNFGN@?1?$AA@   10067b88     libvcruntime:undname.obj
 0002:00004b8c       ??_C@_01FGNFDNOH@?$CF?$AA@ 10067b8c     libvcruntime:undname.obj
 0002:00004b90       ??_C@_01MNNFJEPP@?$DM?$AA@ 10067b90     libvcruntime:undname.obj
 0002:00004b94       ??_C@_02EHCHHCKH@?$DM?$DN?$AA@ 10067b94     libvcruntime:undname.obj
 0002:00004b98       ??_C@_01PPODPGHN@?$DO?$AA@ 10067b98     libvcruntime:undname.obj
 0002:00004b9c       ??_C@_02EEKDKGMJ@?$DO?$DN?$AA@ 10067b9c     libvcruntime:undname.obj
 0002:00004ba0       ??_C@_01IHBHIGKO@?0?$AA@   10067ba0     libvcruntime:undname.obj
 0002:00004ba4       ??_C@_02HCKGKOFO@?$CI?$CJ?$AA@ 10067ba4     libvcruntime:undname.obj
 0002:00004ba8       ??_C@_01PJKLJHI@?$HO?$AA@  10067ba8     libvcruntime:undname.obj
 0002:00004bac       ??_C@_01JKBOJNNK@?$FO?$AA@ 10067bac     libvcruntime:undname.obj
 0002:00004bb0       ??_C@_01DNKMNLPK@?$HM?$AA@ 10067bb0     libvcruntime:undname.obj
 0002:00004bb4       ??_C@_02PPKAJPJL@?$CG?$CG?$AA@ 10067bb4     libvcruntime:undname.obj
 0002:00004bb8       ??_C@_02NONPIBCD@?$HM?$HM?$AA@ 10067bb8     libvcruntime:undname.obj
 0002:00004bbc       ??_C@_02FPIMKNGF@?$CK?$DN?$AA@ 10067bbc     libvcruntime:undname.obj
 0002:00004bc0       ??_C@_02FOEOMHFC@?$CL?$DN?$AA@ 10067bc0     libvcruntime:undname.obj
 0002:00004bc4       ??_C@_02FKMDLLOA@?9?$DN?$AA@ 10067bc4     libvcruntime:undname.obj
 0002:00004bc8       ??_C@_02FJEHGPIO@?1?$DN?$AA@ 10067bc8     libvcruntime:undname.obj
 0002:00004bcc       ??_C@_02FENAOKFI@?$CF?$DN?$AA@ 10067bcc     libvcruntime:undname.obj
 0002:00004bd0       ??_C@_03IKFCCPFF@?$DO?$DO?$DN?$AA@ 10067bd0     libvcruntime:undname.obj
 0002:00004bd4       ??_C@_03CDNPDDLA@?$DM?$DM?$DN?$AA@ 10067bd4     libvcruntime:undname.obj
 0002:00004bd8       ??_C@_02FGJGFEAB@?$CG?$DN?$AA@ 10067bd8     libvcruntime:undname.obj
 0002:00004bdc       ??_C@_02DHLNPPGH@?$HM?$DN?$AA@ 10067bdc     libvcruntime:undname.obj
 0002:00004be0       ??_C@_02MHEGNOJ@?$FO?$DN?$AA@ 10067be0     libvcruntime:undname.obj
 0002:00004be4       ??_C@_09IFPLHPGF@?$GAvftable?8?$AA@ 10067be4     libvcruntime:undname.obj
 0002:00004bf0       ??_C@_09BLBHBJP@?$GAvbtable?8?$AA@ 10067bf0     libvcruntime:undname.obj
 0002:00004bfc       ??_C@_07FEEIOKP@?$GAvcall?8?$AA@ 10067bfc     libvcruntime:undname.obj
 0002:00004c08       ??_C@_08LLFFHHDJ@?$GAtypeof?8?$AA@ 10067c08     libvcruntime:undname.obj
 0002:00004c14       ??_C@_0BF@KDPPACIK@?$GAlocal?5static?5guard?8?$AA@ 10067c14     libvcruntime:undname.obj
 0002:00004c30       ??_C@_08OBABFOLI@?$GAstring?8?$AA@ 10067c30     libvcruntime:undname.obj
 0002:00004c3c       ??_C@_0BD@JDLKDPAB@?$GAvbase?5destructor?8?$AA@ 10067c3c     libvcruntime:undname.obj
 0002:00004c54       ??_C@_0BN@DEGPLNFK@?$GAvector?5deleting?5destructor?8?$AA@ 10067c54     libvcruntime:undname.obj
 0002:00004c78       ??_C@_0BO@OBMKPJIG@?$GAdefault?5constructor?5closure?8?$AA@ 10067c78     libvcruntime:undname.obj
 0002:00004c9c       ??_C@_0BN@IMDCHIKM@?$GAscalar?5deleting?5destructor?8?$AA@ 10067c9c     libvcruntime:undname.obj
 0002:00004cc0       ??_C@_0BO@PFGOCPJJ@?$GAvector?5constructor?5iterator?8?$AA@ 10067cc0     libvcruntime:undname.obj
 0002:00004ce4       ??_C@_0BN@LFPFMEDL@?$GAvector?5destructor?5iterator?8?$AA@ 10067ce4     libvcruntime:undname.obj
 0002:00004d08       ??_C@_0CE@IKBNEHA@?$GAvector?5vbase?5constructor?5iterat@ 10067d08     libvcruntime:undname.obj
 0002:00004d34       ??_C@_0BL@NILFHHPC@?$GAvirtual?5displacement?5map?8?$AA@ 10067d34     libvcruntime:undname.obj
 0002:00004d54       ??_C@_0CB@JONCMFFK@?$GAeh?5vector?5constructor?5iterator?8@ 10067d54     libvcruntime:undname.obj
 0002:00004d7c       ??_C@_0CA@GCEOPDGL@?$GAeh?5vector?5destructor?5iterator?8?$AA@ 10067d7c     libvcruntime:undname.obj
 0002:00004da4       ??_C@_0CH@OOJPLCPH@?$GAeh?5vector?5vbase?5constructor?5ite@ 10067da4     libvcruntime:undname.obj
 0002:00004dd4       ??_C@_0BL@LLKPOHJI@?$GAcopy?5constructor?5closure?8?$AA@ 10067dd4     libvcruntime:undname.obj
 0002:00004df4       ??_C@_0BA@KBCDOMBN@?$GAudt?5returning?8?$AA@ 10067df4     libvcruntime:undname.obj
 0002:00004e08       ??_C@_03KLGMFNMG@?$GAEH?$AA@ 10067e08     libvcruntime:undname.obj
 0002:00004e0c       ??_C@_05KHLCHHI@?$GARTTI?$AA@ 10067e0c     libvcruntime:undname.obj
 0002:00004e14       ??_C@_0BA@KKLDJDLB@?$GAlocal?5vftable?8?$AA@ 10067e14     libvcruntime:undname.obj
 0002:00004e28       ??_C@_0CE@IIHCMGGL@?$GAlocal?5vftable?5constructor?5closu@ 10067e28     libvcruntime:undname.obj
 0002:00004e54       ??_C@_06FHBGPFGH@?5new?$FL?$FN?$AA@ 10067e54     libvcruntime:undname.obj
 0002:00004e5c       ??_C@_09LBNFPBCA@?5delete?$FL?$FN?$AA@ 10067e5c     libvcruntime:undname.obj
 0002:00004e68       ??_C@_0P@HJKNJFNN@?$GAomni?5callsig?8?$AA@ 10067e68     libvcruntime:undname.obj
 0002:00004e7c       ??_C@_0BL@CNOONJFP@?$GAplacement?5delete?5closure?8?$AA@ 10067e7c     libvcruntime:undname.obj
 0002:00004e9c       ??_C@_0BN@CKNJLHMB@?$GAplacement?5delete?$FL?$FN?5closure?8?$AA@ 10067e9c     libvcruntime:undname.obj
 0002:00004ec0       ??_C@_0CG@CFDHKGGD@?$GAmanaged?5vector?5constructor?5iter@ 10067ec0     libvcruntime:undname.obj
 0002:00004ef0       ??_C@_0CF@IMGKMJNO@?$GAmanaged?5vector?5destructor?5itera@ 10067ef0     libvcruntime:undname.obj
 0002:00004f1c       ??_C@_0CG@HLDDJMAG@?$GAeh?5vector?5copy?5constructor?5iter@ 10067f1c     libvcruntime:undname.obj
 0002:00004f4c       ??_C@_0CM@FCBBDIGB@?$GAeh?5vector?5vbase?5copy?5constructo@ 10067f4c     libvcruntime:undname.obj
 0002:00004f80       ??_C@_0BL@CLIPGLGB@?$GAdynamic?5initializer?5for?5?8?$AA@ 10067f80     libvcruntime:undname.obj
 0002:00004fa0       ??_C@_0CB@PDBIFEP@?$GAdynamic?5atexit?5destructor?5for?5?8@ 10067fa0     libvcruntime:undname.obj
 0002:00004fc8       ??_C@_0CD@CGAJBKEJ@?$GAvector?5copy?5constructor?5iterato@ 10067fc8     libvcruntime:undname.obj
 0002:00004ff4       ??_C@_0CJ@GJELGAMM@?$GAvector?5vbase?5copy?5constructor?5i@ 10067ff4     libvcruntime:undname.obj
 0002:00005028       ??_C@_0CL@FGIJHLCE@?$GAmanaged?5vector?5copy?5constructor@ 10068028     libvcruntime:undname.obj
 0002:0000505c       ??_C@_0BM@PMGGMLDN@?$GAlocal?5static?5thread?5guard?8?$AA@ 1006805c     libvcruntime:undname.obj
 0002:00005080       ??_C@_0N@BDNMDMOL@operator?5?$CC?$CC?5?$AA@ 10068080     libvcruntime:undname.obj
 0002:00005090       ??_C@_0BC@DAFEJGAK@?5Type?5Descriptor?8?$AA@ 10068090     libvcruntime:undname.obj
 0002:000050a8       ??_C@_0BM@LDKODKLH@?5Base?5Class?5Descriptor?5at?5?$CI?$AA@ 100680a8     libvcruntime:undname.obj
 0002:000050cc       ??_C@_0BD@LGICGFMM@?5Base?5Class?5Array?8?$AA@ 100680cc     libvcruntime:undname.obj
 0002:000050e4       ??_C@_0BN@MECKDCOJ@?5Class?5Hierarchy?5Descriptor?8?$AA@ 100680e4     libvcruntime:undname.obj
 0002:00005108       ??_C@_0BK@CFCOFLF@?5Complete?5Object?5Locator?8?$AA@ 10068108     libvcruntime:undname.obj
 0002:00005128       ??_C@_04HEJADOOB@CV?3?5?$AA@ 10068128     libvcruntime:undname.obj
 0002:00005130       ??_C@_02MOLJINC@?3?3?$AA@  10068130     libvcruntime:undname.obj
 0002:00005134       ??_C@_0BE@JAEOCHPE@template?9parameter?9?$AA@ 10068134     libvcruntime:undname.obj
 0002:0000514c       ??_C@_0O@KHGCOMHP@generic?9type?9?$AA@ 1006814c     libvcruntime:undname.obj
 0002:0000515c       ??_C@_01NLNLIGKH@?$GA?$AA@ 1006815c     libvcruntime:undname.obj
 0002:00005160       ??_C@_01GEODFPGF@?8?$AA@   10068160     libvcruntime:undname.obj
 0002:00005164       ??_C@_0BG@JNJLAMPM@?$GAanonymous?5namespace?8?$AA@ 10068164     libvcruntime:undname.obj
 0002:00005180       ??_C@_02OHHJMEON@?8?8?$AA@ 10068180     libvcruntime:undname.obj
 0002:00005184       ??_C@_0BN@IBLMMFAP@?$GAnon?9type?9template?9parameter?$AA@ 10068184     libvcruntime:undname.obj
 0002:000051a8       ??_C@_04GKJNKENE@void?$AA@ 100681a8     libvcruntime:undname.obj
 0002:000051b0       ??_C@_0BE@EODMJLIF@?$GAtemplate?9parameter?$AA@ 100681b0     libvcruntime:undname.obj
 0002:000051c8       ??_C@_03KHICJKCI@?4?4?4?$AA@ 100681c8     libvcruntime:undname.obj
 0002:000051cc       ??_C@_04HIBGFPH@NULL?$AA@  100681cc     libvcruntime:undname.obj
 0002:000051d4       ??_C@_02DPKJAMEF@?$CFd?$AA@ 100681d4     libvcruntime:undname.obj
 0002:000051d8       ??_C@_0BK@IHCCFNEL@?$GAtemplate?9type?9parameter?9?$AA@ 100681d8     libvcruntime:undname.obj
 0002:000051f8       ??_C@_0BK@OFCNNNKO@?$GAgeneric?9class?9parameter?9?$AA@ 100681f8     libvcruntime:undname.obj
 0002:00005218       ??_C@_0BL@NGJBLFIL@?$GAgeneric?9method?9parameter?9?$AA@ 10068218     libvcruntime:undname.obj
 0002:00005238       ??_C@_03OPGICMGF@?$HN?8?5?$AA@ 10068238     libvcruntime:undname.obj
 0002:0000523c       ??_C@_02IGFCGPIL@?$HN?8?$AA@ 1006823c     libvcruntime:undname.obj
 0002:00005240       ??_C@_01CLKCMJKC@?5?$AA@   10068240     libvcruntime:undname.obj
 0002:00005244       ??_C@_0N@CBHHHENL@?$GAvtordispex?$HL?$AA@ 10068244     libvcruntime:undname.obj
 0002:00005254       ??_C@_0L@GHPFDFH@?$GAvtordisp?$HL?$AA@ 10068254     libvcruntime:undname.obj
 0002:00005264       ??_C@_0L@HNGCOGAE@?$GAadjustor?$HL?$AA@ 10068264     libvcruntime:undname.obj
 0002:00005274       ??_C@_0CB@KJDOOODE@?$GAlocal?5static?5destructor?5helper?8@ 10068274     libvcruntime:undname.obj
 0002:0000529c       ??_C@_0DB@ILEFOCIJ@?$GAtemplate?5static?5data?5member?5con@ 1006829c     libvcruntime:undname.obj
 0002:000052d8       ??_C@_0DA@HGFJFBBE@?$GAtemplate?5static?5data?5member?5des@ 100682d8     libvcruntime:undname.obj
 0002:00005314       ??_C@_07PGOEDBHP@static?5?$AA@ 10068314     libvcruntime:undname.obj
 0002:00005320       ??_C@_08NIEOINHE@virtual?5?$AA@ 10068320     libvcruntime:undname.obj
 0002:0000532c       ??_C@_09LAPHOOG@private?3?5?$AA@ 1006832c     libvcruntime:undname.obj
 0002:00005338       ??_C@_0M@GAIFPFIP@protected?3?5?$AA@ 10068338     libvcruntime:undname.obj
 0002:00005348       ??_C@_08GPDDCMKI@public?3?5?$AA@ 10068348     libvcruntime:undname.obj
 0002:00005354       ??_C@_08KJLFOPNE@?$FLthunk?$FN?3?$AA@ 10068354     libvcruntime:undname.obj
 0002:00005360       ??_C@_0M@DHNBOJMP@extern?5?$CCC?$CC?5?$AA@ 10068360     libvcruntime:undname.obj
 0002:00005370       ??_C@_02KCKGHPCA@?$CJ?5?$AA@ 10068370     libvcruntime:undname.obj
 0002:00005374       ??_C@_05CIHEBHNO@char?5?$AA@ 10068374     libvcruntime:undname.obj
 0002:0000537c       ??_C@_06EHJMALKF@short?5?$AA@ 1006837c     libvcruntime:undname.obj
 0002:00005384       ??_C@_04LAHKHJMA@int?5?$AA@ 10068384     libvcruntime:undname.obj
 0002:0000538c       ??_C@_05CJIMAING@long?5?$AA@ 1006838c     libvcruntime:undname.obj
 0002:00005394       ??_C@_09EBBEKKIH@unsigned?5?$AA@ 10068394     libvcruntime:undname.obj
 0002:000053a0       ??_C@_05BEFAKPML@void?5?$AA@ 100683a0     libvcruntime:undname.obj
 0002:000053a8       ??_C@_08PABEKFH@volatile?$AA@ 100683a8     libvcruntime:undname.obj
 0002:000053b4       ??_C@_0BA@LKIJLKPP@std?3?3nullptr_t?5?$AA@ 100683b4     libvcruntime:undname.obj
 0002:000053c8       ??_C@_0P@GCOCNKDM@std?3?3nullptr_t?$AA@ 100683c8     libvcruntime:undname.obj
 0002:000053dc       ??_C@_0L@EGPHHEKN@?$DMellipsis?$DO?$AA@ 100683dc     libvcruntime:undname.obj
 0002:000053ec       ??_C@_04EENFHACM@?0?4?4?4?$AA@ 100683ec     libvcruntime:undname.obj
 0002:000053f4       ??_C@_0M@ELJOJFFH@?0?$DMellipsis?$DO?$AA@ 100683f4     libvcruntime:undname.obj
 0002:00005404       ??_C@_07HDJPLPEK@?5throw?$CI?$AA@ 10068404     libvcruntime:undname.obj
 0002:00005410       ??_C@_03PBJBJNON@cpu?$AA@  10068410     libvcruntime:undname.obj
 0002:00005414       ??_C@_03DCBBJBAA@amp?$AA@  10068414     libvcruntime:undname.obj
 0002:00005418       ??_C@_02KEGNLNML@?0?5?$AA@ 10068418     libvcruntime:undname.obj
 0002:0000541c       ??_C@_04ENMBGAPA@char?$AA@ 1006841c     libvcruntime:undname.obj
 0002:00005424       ??_C@_05BFKKPKCG@short?$AA@ 10068424     libvcruntime:undname.obj
 0002:0000542c       ??_C@_03JBIPMCLC@int?$AA@  1006842c     libvcruntime:undname.obj
 0002:00005430       ??_C@_04GOKPGOLB@long?$AA@ 10068430     libvcruntime:undname.obj
 0002:00005438       ??_C@_04DDKJGDCM@bool?$AA@ 10068438     libvcruntime:undname.obj
 0002:00005440       ??_C@_06EBGKOKIG@__int8?$AA@ 10068440     libvcruntime:undname.obj
 0002:00005448       ??_C@_07ICFHOGAF@__int16?$AA@ 10068448     libvcruntime:undname.obj
 0002:00005454       ??_C@_07OFLPPHGP@__int32?$AA@ 10068454     libvcruntime:undname.obj
 0002:00005460       ??_C@_07LFCOJCAC@__int64?$AA@ 10068460     libvcruntime:undname.obj
 0002:0000546c       ??_C@_08GAHOLHEO@__int128?$AA@ 1006846c     libvcruntime:undname.obj
 0002:00005478       ??_C@_09EEKGDCPH@?$DMunknown?$DO?$AA@ 10068478     libvcruntime:undname.obj
 0002:00005484       ??_C@_08HBIPOFJB@char16_t?$AA@ 10068484     libvcruntime:undname.obj
 0002:00005490       ??_C@_08IECNCBKG@char32_t?$AA@ 10068490     libvcruntime:undname.obj
 0002:0000549c       ??_C@_07CLGGIAMF@wchar_t?$AA@ 1006849c     libvcruntime:undname.obj
 0002:000054a8       ??_C@_06GCICPBLB@__w64?5?$AA@ 100684a8     libvcruntime:undname.obj
 0002:000054b0       ??_C@_07NFANNNEC@UNKNOWN?$AA@ 100684b0     libvcruntime:undname.obj
 0002:000054bc       ??_C@_07EDHNAJHC@signed?5?$AA@ 100684bc     libvcruntime:undname.obj
 0002:000054c8       ??_C@_05BNCCCJPP@const?$AA@ 100684c8     libvcruntime:undname.obj
 0002:000054d0       ??_C@_09EFNPDFFP@?5volatile?$AA@ 100684d0     libvcruntime:undname.obj
 0002:000054dc       ??_C@_0P@GCIFDJCJ@?$GAunknown?5ecsu?8?$AA@ 100684dc     libvcruntime:undname.obj
 0002:000054f0       ??_C@_06MOJHIBMG@union?5?$AA@ 100684f0     libvcruntime:undname.obj
 0002:000054f8       ??_C@_07DIBCDNGL@struct?5?$AA@ 100684f8     libvcruntime:undname.obj
 0002:00005504       ??_C@_06LJBABKPM@class?5?$AA@ 10068504     libvcruntime:undname.obj
 0002:0000550c       ??_C@_08KOFANOFK@coclass?5?$AA@ 1006850c     libvcruntime:undname.obj
 0002:00005518       ??_C@_0N@DLIEFKNA@cointerface?5?$AA@ 10068518     libvcruntime:undname.obj
 0002:00005528       ??_C@_05LJGMCFOG@enum?5?$AA@ 10068528     libvcruntime:undname.obj
 0002:00005530       ??_C@_09GAIEOBLP@volatile?5?$AA@ 10068530     libvcruntime:undname.obj
 0002:0000553c       ??_C@_06LIJLOJAG@const?5?$AA@ 1006853c     libvcruntime:undname.obj
 0002:00005544       ??_C@_02KJPKDIBN@?$CG?5?$AA@ 10068544     libvcruntime:undname.obj
 0002:00005548       ??_C@_03PCKGMOPB@?$CG?$CG?5?$AA@ 10068548     libvcruntime:undname.obj
 0002:0000554c       ??_C@_0M@EALIELKG@cli?3?3array?$DM?$AA@ 1006854c     libvcruntime:undname.obj
 0002:0000555c       ??_C@_0O@GKABPPIF@cli?3?3pin_ptr?$DM?$AA@ 1006855c     libvcruntime:undname.obj
 0002:0000556c       ??_C@_02GOGNNPBN@?$CJ?$FL?$AA@ 1006856c     libvcruntime:undname.obj
 0002:00005570       ??_C@_06EEGAIFAK@?$HLflat?$HN?$AA@ 10068570     libvcruntime:undname.obj
 0002:00005578       ??_C@_05JIBOFOHK@?$HLfor?5?$AA@ 10068578     libvcruntime:undname.obj
 0002:00005580       ??_C@_02MDINNEEG@s?5?$AA@  10068580     libvcruntime:undname.obj
 0002:00005588       ??_7DNameNode@@6B@         10068588     libvcruntime:undname.obj
 0002:0000559c       ??_7charNode@@6B@          1006859c     libvcruntime:undname.obj
 0002:000055b0       ??_7pcharNode@@6B@         100685b0     libvcruntime:undname.obj
 0002:000055c4       ??_7pDNameNode@@6B@        100685c4     libvcruntime:undname.obj
 0002:000055d8       ??_7DNameStatusNode@@6B@   100685d8     libvcruntime:undname.obj
 0002:000055ec       ??_7pairNode@@6B@          100685ec     libvcruntime:undname.obj
 0002:000055fc       ??_C@_04OKOHEJBO@?5?$DP?$DP?5?$AA@ 100685fc     libvcruntime:undname.obj
 0002:00005604       _RtlNtPathSeperatorString  10068604     libucrt:exit.obj
 0002:00005610       ??_C@_13FPGAJAPJ@?$AA?2?$AA?$AA@ 10068610     libucrt:exit.obj
 0002:00005614       _RtlDosPathSeperatorsString 10068614     libucrt:exit.obj
 0002:00005620       ??_C@_15MNCACJLI@?$AA?2?$AA?1?$AA?$AA@ 10068620     libucrt:exit.obj
 0002:00005628       _RtlAlternateDosPathSeperatorString 10068628     libucrt:exit.obj
 0002:00005634       ??_C@_13CGOKJPIL@?$AA?1?$AA?$AA@ 10068634     libucrt:exit.obj
 0002:00005638       ??_C@_1BI@BGOHAHKC@?$AAm?$AAs?$AAc?$AAo?$AAr?$AAe?$AAe?$AA?4?$AAd?$AAl?$AAl?$AA?$AA@ 10068638     libucrt:exit.obj
 0002:00005654       ??_C@_0P@MIGLKIOC@CorExitProcess?$AA@ 10068654     libucrt:exit.obj
 0002:00005668       _standard_lookup_table     10068668     libucrt:output.obj
 0002:000056d8       _format_validation_lookup_table 100686d8     libucrt:output.obj
 0002:00005748       ??_C@_06OJHGLDPL@?$CInull?$CJ?$AA@ 10068748     libucrt:output.obj
 0002:00005750       ??_C@_1O@CEDCILHN@?$AA?$CI?$AAn?$AAu?$AAl?$AAl?$AA?$CJ?$AA?$AA@ 10068750     libucrt:output.obj
 0002:00005760       ??_C@_0CF@GOGNBNAK@Microsoft?5Visual?5C?$CL?$CL?5Runtime?5Lib@ 10068760     libucrt:assert.obj
 0002:00005790       ??_C@_1EK@MBDPDCGA@?$AAM?$AAi?$AAc?$AAr?$AAo?$AAs?$AAo?$AAf?$AAt?$AA?5?$AAV?$AAi?$AAs?$AAu?$AAa?$AAl?$AA?5?$AAC?$AA?$CL?$AA?$CL?$AA?5?$AAR?$AAu?$AAn?$AAt?$AAi?$AAm?$AAe?$AA?5?$AAL?$AAi?$AAb@ 10068790     libucrt:assert.obj
 0002:000057e8       ??_C@_0CK@CFPGFGGO@Assertion?5failed?3?5?$CFTs?0?5file?5?$CFTs?0@ 100687e8     libucrt:assert.obj
 0002:00005820       ??_C@_1FE@LHBLIKM@?$AAA?$AAs?$AAs?$AAe?$AAr?$AAt?$AAi?$AAo?$AAn?$AA?5?$AAf?$AAa?$AAi?$AAl?$AAe?$AAd?$AA?3?$AA?5?$AA?$CF?$AAT?$AAs?$AA?0?$AA?5?$AAf?$AAi?$AAl?$AAe?$AA?5?$AA?$CF?$AAT?$AAs?$AA?0@ 10068820     libucrt:assert.obj
 0002:00005884       ??_C@_0BC@LAIDCHCH@Assertion?5failed?$CB?$AA@ 10068884     libucrt:assert.obj
 0002:0000589c       ??_C@_1CE@OJBNHDMO@?$AAA?$AAs?$AAs?$AAe?$AAr?$AAt?$AAi?$AAo?$AAn?$AA?5?$AAf?$AAa?$AAi?$AAl?$AAe?$AAd?$AA?$CB?$AA?$AA@ 1006889c     libucrt:assert.obj
 0002:000058c8       ??_C@_09KLGCKDOD@Program?3?5?$AA@ 100688c8     libucrt:assert.obj
 0002:000058d4       ??_C@_1BE@PHKBBGE@?$AAP?$AAr?$AAo?$AAg?$AAr?$AAa?$AAm?$AA?3?$AA?5?$AA?$AA@ 100688d4     libucrt:assert.obj
 0002:000058ec       ??_C@_06IGPBOHMJ@File?3?5?$AA@ 100688ec     libucrt:assert.obj
 0002:000058f4       ??_C@_1O@HEMHKNDC@?$AAF?$AAi?$AAl?$AAe?$AA?3?$AA?5?$AA?$AA@ 100688f4     libucrt:assert.obj
 0002:00005904       ??_C@_06FIEBOLOH@Line?3?5?$AA@ 10068904     libucrt:assert.obj
 0002:0000590c       ??_C@_1O@KCAFKHJE@?$AAL?$AAi?$AAn?$AAe?$AA?3?$AA?5?$AA?$AA@ 1006890c     libucrt:assert.obj
 0002:0000591c       ??_C@_0N@MEECIJGN@Expression?3?5?$AA@ 1006891c     libucrt:assert.obj
 0002:0000592c       ??_C@_1BK@PEDCIPMA@?$AAE?$AAx?$AAp?$AAr?$AAe?$AAs?$AAs?$AAi?$AAo?$AAn?$AA?3?$AA?5?$AA?$AA@ 1006892c     libucrt:assert.obj
 0002:00005950       ??_C@_0HA@OJHAGA@For?5information?5on?5how?5your?5prog@ 10068950     libucrt:assert.obj
 0002:000059d8       ??_C@_1OA@EGMLFBHJ@?$AAF?$AAo?$AAr?$AA?5?$AAi?$AAn?$AAf?$AAo?$AAr?$AAm?$AAa?$AAt?$AAi?$AAo?$AAn?$AA?5?$AAo?$AAn?$AA?5?$AAh?$AAo?$AAw?$AA?5?$AAy?$AAo?$AAu?$AAr?$AA?5?$AAp?$AAr?$AAo?$AAg@ 100689d8     libucrt:assert.obj
 0002:00005ae4       ??_C@_0DN@EBBNMLME@?$CIPress?5Retry?5to?5debug?5the?5applic@ 10068ae4     libucrt:assert.obj
 0002:00005b30       ??_C@_1HK@POCJMFGK@?$AA?$CI?$AAP?$AAr?$AAe?$AAs?$AAs?$AA?5?$AAR?$AAe?$AAt?$AAr?$AAy?$AA?5?$AAt?$AAo?$AA?5?$AAd?$AAe?$AAb?$AAu?$AAg?$AA?5?$AAt?$AAh?$AAe?$AA?5?$AAa?$AAp?$AAp?$AAl?$AAi?$AAc@ 10068b30     libucrt:assert.obj
 0002:00005bc4       ??_C@_17LGKOMLJ@?$AA?4?$AA?4?$AA?4?$AA?$AA@ 10068bc4     libucrt:assert.obj
 0002:00005bd0       ??_C@_01EEMJAFIK@?6?$AA@   10068bd0     libucrt:assert.obj
 0002:00005bd4       ??_C@_13LBAGMAIH@?$AA?6?$AA?$AA@ 10068bd4     libucrt:assert.obj
 0002:00005bd8       ??_C@_02PHMGELLB@?6?6?$AA@ 10068bd8     libucrt:assert.obj
 0002:00005bdc       ??_C@_15IABLJNFO@?$AA?6?$AA?6?$AA?$AA@ 10068bdc     libucrt:assert.obj
 0002:00005be4       ??_C@_0BH@DNAGHKFM@?$DMprogram?5name?5unknown?$DO?$AA@ 10068be4     libucrt:assert.obj
 0002:00005c00       ??_C@_1CO@EAEJAADC@?$AA?$DM?$AAp?$AAr?$AAo?$AAg?$AAr?$AAa?$AAm?$AA?5?$AAn?$AAa?$AAm?$AAe?$AA?5?$AAu?$AAn?$AAk?$AAn?$AAo?$AAw?$AAn?$AA?$DO?$AA?$AA@ 10068c00     libucrt:assert.obj
 0002:00005c38       ??_C@_04FJHINJAO@tanh?$AA@ 10068c38     libucrt:fpexcept.obj
 0002:00005c40       ??_C@_04FIHNOPOL@asin?$AA@ 10068c40     libucrt:fpexcept.obj
 0002:00005c48       ??_C@_04PDIFKINK@acos?$AA@ 10068c48     libucrt:fpexcept.obj
 0002:00005c50       ??_C@_04MLLJIGOK@atan?$AA@ 10068c50     libucrt:fpexcept.obj
 0002:00005c58       ??_C@_05KNGEOGJB@atan2?$AA@ 10068c58     libucrt:fpexcept.obj
 0002:00005c60       ??_C@_04EIAKFFMI@sqrt?$AA@ 10068c60     libucrt:fpexcept.obj
 0002:00005c68       ??_C@_03BLEJJJBH@sin?$AA@  10068c68     libucrt:fpexcept.obj
 0002:00005c6c       ??_C@_03LALBNOCG@cos?$AA@  10068c6c     libucrt:fpexcept.obj
 0002:00005c70       ??_C@_03IIINPABG@tan?$AA@  10068c70     libucrt:fpexcept.obj
 0002:00005c74       ??_C@_04GFPJNGEK@ceil?$AA@ 10068c74     libucrt:fpexcept.obj
 0002:00005c7c       ??_C@_05PBJFFIGL@floor?$AA@ 10068c7c     libucrt:fpexcept.obj
 0002:00005c84       ??_C@_04ODHECPBC@fabs?$AA@ 10068c84     libucrt:fpexcept.obj
 0002:00005c8c       ??_C@_04EHEDPDJG@modf?$AA@ 10068c8c     libucrt:fpexcept.obj
 0002:00005c94       ??_C@_05CEJMAHNP@ldexp?$AA@ 10068c94     libucrt:fpexcept.obj
 0002:00005c9c       ??_C@_05KBKMEMPO@_cabs?$AA@ 10068c9c     libucrt:fpexcept.obj
 0002:00005ca4       ??_C@_06MEIMCGCF@_hypot?$AA@ 10068ca4     libucrt:fpexcept.obj
 0002:00005cac       ??_C@_04KEPJIHGP@fmod?$AA@ 10068cac     libucrt:fpexcept.obj
 0002:00005cb4       ??_C@_05GKKHEGJL@frexp?$AA@ 10068cb4     libucrt:fpexcept.obj
 0002:00005cbc       ??_C@_03MJLDFKDL@_y0?$AA@  10068cbc     libucrt:fpexcept.obj
 0002:00005cc0       ??_C@_03NAKIGLHK@_y1?$AA@  10068cc0     libucrt:fpexcept.obj
 0002:00005cc4       ??_C@_03ONILCKOB@_yn?$AA@  10068cc4     libucrt:fpexcept.obj
 0002:00005cc8       ??_C@_05JGDBENOH@_logb?$AA@ 10068cc8     libucrt:fpexcept.obj
 0002:00005cd0       ??_C@_0L@KDOEJCKC@_nextafter?$AA@ 10068cd0     libucrt:fpexcept.obj
 0002:00005df8       ??_C@_03KHJOGHMM@exp?$AA@  10068df8     libucrt:fpexcept.obj
 0002:00005dfc       ??_C@_03JGHBODFD@pow?$AA@  10068dfc     libucrt:fpexcept.obj
 0002:00005e00       ??_C@_03MGHMBJCF@log?$AA@  10068e00     libucrt:fpexcept.obj
 0002:00005e04       ??_C@_05HGHHAHAP@log10?$AA@ 10068e04     libucrt:fpexcept.obj
 0002:00005e0c       ??_C@_04COOMCNPB@sinh?$AA@ 10068e0c     libucrt:fpexcept.obj
 0002:00005e14       ??_C@_04HPJJNFIM@cosh?$AA@ 10068e14     libucrt:fpexcept.obj
 0002:00005e20       ___acrt_exception_action_table 10068e20     libucrt:exception_filter.obj
 0002:00005ecc       ___acrt_signal_action_table_count 10068ecc     libucrt:exception_filter.obj
 0002:00005ed0       ___acrt_signal_action_table_size 10068ed0     libucrt:exception_filter.obj
 0002:00005ed4       ___acrt_signal_action_first_fpe_index 10068ed4     libucrt:exception_filter.obj
 0002:00005ed8       ___acrt_signal_action_fpe_count 10068ed8     libucrt:exception_filter.obj
 0002:00005f70       ??_C@_1BG@HHIFPOEK@?$AAm?$AAs?$AAv?$AAc?$AAr?$AAt?$AA?4?$AAd?$AAl?$AAl?$AA?$AA@ 10068f70     libucrt:free_base.obj
 0002:00005f8c       __Fenv0                    10068f8c     libucrt:atox.obj
 0002:00005ff8       ??_C@_1EG@CNNIPFIM@?$AAa?$AAp?$AAi?$AA?9?$AAm?$AAs?$AA?9?$AAw?$AAi?$AAn?$AA?9?$AAa?$AAp?$AAp?$AAm?$AAo?$AAd?$AAe?$AAl?$AA?9?$AAr?$AAu?$AAn?$AAt?$AAi?$AAm?$AAe?$AA?9?$AAl?$AA1?$AA?9?$AA1@ 10068ff8     libucrt:winapi_thunks.obj
 0002:00006050       ??_C@_1EA@JGEFHKEI@?$AAa?$AAp?$AAi?$AA?9?$AAm?$AAs?$AA?9?$AAw?$AAi?$AAn?$AA?9?$AAc?$AAo?$AAr?$AAe?$AA?9?$AAd?$AAa?$AAt?$AAe?$AAt?$AAi?$AAm?$AAe?$AA?9?$AAl?$AA1?$AA?9?$AA1?$AA?9?$AA1?$AA?$AA@ 10069050     libucrt:winapi_thunks.obj
 0002:0000609c       ??_C@_1DI@GCIAAENM@?$AAa?$AAp?$AAi?$AA?9?$AAm?$AAs?$AA?9?$AAw?$AAi?$AAn?$AA?9?$AAc?$AAo?$AAr?$AAe?$AA?9?$AAf?$AAi?$AAl?$AAe?$AA?9?$AAl?$AA2?$AA?9?$AA1?$AA?9?$AA1?$AA?$AA@ 1006909c     libucrt:winapi_thunks.obj
 0002:000060e0       ??_C@_1EI@MPIAOHOC@?$AAa?$AAp?$AAi?$AA?9?$AAm?$AAs?$AA?9?$AAw?$AAi?$AAn?$AA?9?$AAc?$AAo?$AAr?$AAe?$AA?9?$AAl?$AAo?$AAc?$AAa?$AAl?$AAi?$AAz?$AAa?$AAt?$AAi?$AAo?$AAn?$AA?9?$AAl?$AA1?$AA?9@ 100690e0     libucrt:winapi_thunks.obj
 0002:00006138       ??_C@_1FK@FPHCKFIE@?$AAa?$AAp?$AAi?$AA?9?$AAm?$AAs?$AA?9?$AAw?$AAi?$AAn?$AA?9?$AAc?$AAo?$AAr?$AAe?$AA?9?$AAl?$AAo?$AAc?$AAa?$AAl?$AAi?$AAz?$AAa?$AAt?$AAi?$AAo?$AAn?$AA?9?$AAo?$AAb?$AAs@ 10069138     libucrt:winapi_thunks.obj
 0002:000061a8       ??_C@_1EM@DILCGIIO@?$AAa?$AAp?$AAi?$AA?9?$AAm?$AAs?$AA?9?$AAw?$AAi?$AAn?$AA?9?$AAc?$AAo?$AAr?$AAe?$AA?9?$AAp?$AAr?$AAo?$AAc?$AAe?$AAs?$AAs?$AAt?$AAh?$AAr?$AAe?$AAa?$AAd?$AAs?$AA?9?$AAl@ 100691a8     libucrt:winapi_thunks.obj
 0002:00006204       ??_C@_1DM@LNCGDDPN@?$AAa?$AAp?$AAi?$AA?9?$AAm?$AAs?$AA?9?$AAw?$AAi?$AAn?$AA?9?$AAc?$AAo?$AAr?$AAe?$AA?9?$AAs?$AAt?$AAr?$AAi?$AAn?$AAg?$AA?9?$AAl?$AA1?$AA?9?$AA1?$AA?9?$AA0?$AA?$AA@ 10069204     libucrt:winapi_thunks.obj
 0002:0000624c       ??_C@_1DO@FPAPJEMD@?$AAa?$AAp?$AAi?$AA?9?$AAm?$AAs?$AA?9?$AAw?$AAi?$AAn?$AA?9?$AAc?$AAo?$AAr?$AAe?$AA?9?$AAs?$AAy?$AAs?$AAi?$AAn?$AAf?$AAo?$AA?9?$AAl?$AA1?$AA?9?$AA2?$AA?9?$AA1?$AA?$AA@ 1006924c     libucrt:winapi_thunks.obj
 0002:00006298       ??_C@_1DK@NDHNAHIO@?$AAa?$AAp?$AAi?$AA?9?$AAm?$AAs?$AA?9?$AAw?$AAi?$AAn?$AA?9?$AAc?$AAo?$AAr?$AAe?$AA?9?$AAw?$AAi?$AAn?$AAr?$AAt?$AA?9?$AAl?$AA1?$AA?9?$AA1?$AA?9?$AA0?$AA?$AA@ 10069298     libucrt:winapi_thunks.obj
 0002:000062e0       ??_C@_1DM@KGHDGBCM@?$AAa?$AAp?$AAi?$AA?9?$AAm?$AAs?$AA?9?$AAw?$AAi?$AAn?$AA?9?$AAc?$AAo?$AAr?$AAe?$AA?9?$AAx?$AAs?$AAt?$AAa?$AAt?$AAe?$AA?9?$AAl?$AA2?$AA?9?$AA1?$AA?9?$AA0?$AA?$AA@ 100692e0     libucrt:winapi_thunks.obj
 0002:00006328       ??_C@_1EO@IJIOEFOH@?$AAa?$AAp?$AAi?$AA?9?$AAm?$AAs?$AA?9?$AAw?$AAi?$AAn?$AA?9?$AAr?$AAt?$AAc?$AAo?$AAr?$AAe?$AA?9?$AAn?$AAt?$AAu?$AAs?$AAe?$AAr?$AA?9?$AAw?$AAi?$AAn?$AAd?$AAo?$AAw?$AA?9@ 10069328     libucrt:winapi_thunks.obj
 0002:00006388       ??_C@_1FG@HHGEKANL@?$AAa?$AAp?$AAi?$AA?9?$AAm?$AAs?$AA?9?$AAw?$AAi?$AAn?$AA?9?$AAs?$AAe?$AAc?$AAu?$AAr?$AAi?$AAt?$AAy?$AA?9?$AAs?$AAy?$AAs?$AAt?$AAe?$AAm?$AAf?$AAu?$AAn?$AAc?$AAt?$AAi@ 10069388     libucrt:winapi_thunks.obj
 0002:000063f0       ??_C@_1FG@NCKKOLKO@?$AAe?$AAx?$AAt?$AA?9?$AAm?$AAs?$AA?9?$AAw?$AAi?$AAn?$AA?9?$AAk?$AAe?$AAr?$AAn?$AAe?$AAl?$AA3?$AA2?$AA?9?$AAp?$AAa?$AAc?$AAk?$AAa?$AAg?$AAe?$AA?9?$AAc?$AAu?$AAr?$AAr@ 100693f0     libucrt:winapi_thunks.obj
 0002:00006458       ??_C@_1EG@DBIOJECG@?$AAe?$AAx?$AAt?$AA?9?$AAm?$AAs?$AA?9?$AAw?$AAi?$AAn?$AA?9?$AAn?$AAt?$AAu?$AAs?$AAe?$AAr?$AA?9?$AAd?$AAi?$AAa?$AAl?$AAo?$AAg?$AAb?$AAo?$AAx?$AA?9?$AAl?$AA1?$AA?9?$AA1@ 10069458     libucrt:winapi_thunks.obj
 0002:000064b0       ??_C@_1EO@FIHMJCLF@?$AAe?$AAx?$AAt?$AA?9?$AAm?$AAs?$AA?9?$AAw?$AAi?$AAn?$AA?9?$AAn?$AAt?$AAu?$AAs?$AAe?$AAr?$AA?9?$AAw?$AAi?$AAn?$AAd?$AAo?$AAw?$AAs?$AAt?$AAa?$AAt?$AAi?$AAo?$AAn?$AA?9@ 100694b0     libucrt:winapi_thunks.obj
 0002:00006510       ??_C@_1O@BCCLBEOE@?$AAu?$AAs?$AAe?$AAr?$AA3?$AA2?$AA?$AA@ 10069510     libucrt:winapi_thunks.obj
 0002:00006524       ??_C@_0BA@FHFNEAED@AreFileApisANSI?$AA@ 10069524     libucrt:winapi_thunks.obj
 0002:00006544       ??_C@_0BA@IHGNDAEB@CompareStringEx?$AA@ 10069544     libucrt:winapi_thunks.obj
 0002:00006564       ??_C@_0BE@LJANKFHF@EnumSystemLocalesEx?$AA@ 10069564     libucrt:winapi_thunks.obj
 0002:000065b8       ??_C@_0BA@HNOPNCHB@GetActiveWindow?$AA@ 100695b8     libucrt:winapi_thunks.obj
 0002:000065d8       ??_C@_0BE@JOGNEJCI@GetCurrentPackageId?$AA@ 100695d8     libucrt:winapi_thunks.obj
 0002:000065fc       ??_C@_0BA@EPCJIIPD@GetDateFormatEx?$AA@ 100695fc     libucrt:winapi_thunks.obj
 0002:0000661c       ??_C@_0BJ@DIBIJBHA@GetEnabledXStateFeatures?$AA@ 1006961c     libucrt:winapi_thunks.obj
 0002:00006648       ??_C@_0BN@NEEHBBPO@GetFileInformationByHandleEx?$AA@ 10069648     libucrt:winapi_thunks.obj
 0002:00006678       ??_C@_0BD@HHGDFDBJ@GetLastActivePopup?$AA@ 10069678     libucrt:winapi_thunks.obj
 0002:0000669c       ??_C@_0BA@ONOKGCMP@GetLocaleInfoEx?$AA@ 1006969c     libucrt:winapi_thunks.obj
 0002:000066bc       ??_C@_0BI@DFKBFLJE@GetProcessWindowStation?$AA@ 100696bc     libucrt:winapi_thunks.obj
 0002:000066dc       ??_C@_0BP@FPNJPEJC@GetSystemTimePreciseAsFileTime?$AA@ 100696dc     libucrt:winapi_thunks.obj
 0002:00006710       ??_C@_0BA@CIJJKCJJ@GetTimeFormatEx?$AA@ 10069710     libucrt:winapi_thunks.obj
 0002:00006730       ??_C@_0BJ@PBCCBIPI@GetUserDefaultLocaleName?$AA@ 10069730     libucrt:winapi_thunks.obj
 0002:0000675c       ??_C@_0BK@DEKFELLI@GetUserObjectInformationW?$AA@ 1006975c     libucrt:winapi_thunks.obj
 0002:00006788       ??_C@_0BG@IKLDMBLM@GetXStateFeaturesMask?$AA@ 10069788     libucrt:winapi_thunks.obj
 0002:000067bc       ??_C@_0BC@CELBKLLA@IsValidLocaleName?$AA@ 100697bc     libucrt:winapi_thunks.obj
 0002:000067e0       ??_C@_0O@KKBNKAPF@LCMapStringEx?$AA@ 100697e0     libucrt:winapi_thunks.obj
 0002:000067fc       ??_C@_0BB@CDHDDLLP@LCIDToLocaleName?$AA@ 100697fc     libucrt:winapi_thunks.obj
 0002:0000681c       ??_C@_0BB@HBDEELFH@LocaleNameToLCID?$AA@ 1006981c     libucrt:winapi_thunks.obj
 0002:0000683c       ??_C@_0BE@KINNKFDA@LocateXStateFeature?$AA@ 1006983c     libucrt:winapi_thunks.obj
 0002:00006860       ??_C@_0M@CHKKJDAI@MessageBoxA?$AA@ 10069860     libucrt:winapi_thunks.obj
 0002:0000687c       ??_C@_0M@DLDCCGNP@MessageBoxW?$AA@ 1006987c     libucrt:winapi_thunks.obj
 0002:00006890       ??_C@_0N@PPOMPGGK@RoInitialize?$AA@ 10069890     libucrt:winapi_thunks.obj
 0002:000068a4       ??_C@_0P@LLFHBIJD@RoUninitialize?$AA@ 100698a4     libucrt:winapi_thunks.obj
 0002:000068c4       ??_C@_0BI@BKLFFAPO@SetThreadStackGuarantee?$AA@ 100698c4     libucrt:winapi_thunks.obj
 0002:000068ec       ??_C@_0BC@JEAENNKH@SystemFunction036?$AA@ 100698ec     libucrt:winapi_thunks.obj
 0002:00006ab8       ?ccs@?BL@???$__acrt_stdio_parse_mode@D@@YA?AU__acrt_stdio_stream_mode@@QBD@Z@4QBDB 10069ab8     libucrt:openfile.obj
 0002:00006abc       ?utf8_encoding@?BL@???$__acrt_stdio_parse_mode@D@@YA?AU__acrt_stdio_stream_mode@@QBD@Z@4QBDB 10069abc     libucrt:openfile.obj
 0002:00006ac4       ?utf16_encoding@?BL@???$__acrt_stdio_parse_mode@D@@YA?AU__acrt_stdio_stream_mode@@QBD@Z@4QBDB 10069ac4     libucrt:openfile.obj
 0002:00006ad0       ?unicode_encoding@?BL@???$__acrt_stdio_parse_mode@D@@YA?AU__acrt_stdio_stream_mode@@QBD@Z@4QBDB 10069ad0     libucrt:openfile.obj
 0002:00006ad8       ?ccs@?BL@???$__acrt_stdio_parse_mode@_W@@YA?AU__acrt_stdio_stream_mode@@QB_W@Z@4QB_WB 10069ad8     libucrt:openfile.obj
 0002:00006ae0       ?utf8_encoding@?BL@???$__acrt_stdio_parse_mode@_W@@YA?AU__acrt_stdio_stream_mode@@QB_W@Z@4QB_WB 10069ae0     libucrt:openfile.obj
 0002:00006aec       ?utf16_encoding@?BL@???$__acrt_stdio_parse_mode@_W@@YA?AU__acrt_stdio_stream_mode@@QB_W@Z@4QB_WB 10069aec     libucrt:openfile.obj
 0002:00006b00       ?unicode_encoding@?BL@???$__acrt_stdio_parse_mode@_W@@YA?AU__acrt_stdio_stream_mode@@QB_W@Z@4QB_WB 10069b00     libucrt:openfile.obj
 0002:00006b10       ??_C@_03OEIAHPBN@INF?$AA@  10069b10     libucrt:cvt.obj
 0002:00006b14       ??_C@_03OJHLLCGB@inf?$AA@  10069b14     libucrt:cvt.obj
 0002:00006b18       ??_C@_03LKNCIKJB@NAN?$AA@  10069b18     libucrt:cvt.obj
 0002:00006b1c       ??_C@_03LHCJEHON@nan?$AA@  10069b1c     libucrt:cvt.obj
 0002:00006b20       ??_C@_09OFJJIMPC@NAN?$CISNAN?$CJ?$AA@ 10069b20     libucrt:cvt.obj
 0002:00006b2c       ??_C@_09IPFBKMDL@nan?$CIsnan?$CJ?$AA@ 10069b2c     libucrt:cvt.obj
 0002:00006b38       ??_C@_08IKHNHAJ@NAN?$CIIND?$CJ?$AA@ 10069b38     libucrt:cvt.obj
 0002:00006b44       ??_C@_08OFCDMILK@nan?$CIind?$CJ?$AA@ 10069b44     libucrt:cvt.obj
 0002:00006b50       ??_C@_05KLBDPFGC@e?$CL000?$AA@ 10069b50     libucrt:cvt.obj
 0002:00006b58       ___lc_category             10069b58     libucrt:wsetlocale.obj
 0002:00006bb0       ??_C@_1O@GIFLHMA@?$AAL?$AAC?$AA_?$AAA?$AAL?$AAL?$AA?$AA@ 10069bb0     libucrt:wsetlocale.obj
 0002:00006bc0       ??_C@_1BG@PPOMIBNJ@?$AAL?$AAC?$AA_?$AAC?$AAO?$AAL?$AAL?$AAA?$AAT?$AAE?$AA?$AA@ 10069bc0     libucrt:wsetlocale.obj
 0002:00006bdc       ??_C@_1BC@FFJGAPJM@?$AAL?$AAC?$AA_?$AAC?$AAT?$AAY?$AAP?$AAE?$AA?$AA@ 10069bdc     libucrt:wsetlocale.obj
 0002:00006bf4       ??_C@_1BI@PCKFNJFB@?$AAL?$AAC?$AA_?$AAM?$AAO?$AAN?$AAE?$AAT?$AAA?$AAR?$AAY?$AA?$AA@ 10069bf4     libucrt:wsetlocale.obj
 0002:00006c10       ??_C@_1BG@ENIEDKID@?$AAL?$AAC?$AA_?$AAN?$AAU?$AAM?$AAE?$AAR?$AAI?$AAC?$AA?$AA@ 10069c10     libucrt:wsetlocale.obj
 0002:00006c2c       ??_C@_1BA@HAAOMIIG@?$AAL?$AAC?$AA_?$AAT?$AAI?$AAM?$AAE?$AA?$AA@ 10069c2c     libucrt:wsetlocale.obj
 0002:00006cd8       ??_C@_15NBPDDFIP@?$AA?$DN?$AA?$DL?$AA?$AA@ 10069cd8     libucrt:wsetlocale.obj
 0002:00006ce0       ??_C@_13PJJBFPED@?$AA?$DL?$AA?$AA@ 10069ce0     libucrt:wsetlocale.obj
 0002:00006ce4       ??_C@_13NMPKAAJP@?$AA?$DN?$AA?$AA@ 10069ce4     libucrt:wsetlocale.obj
 0002:00006ce8       ??_C@_13FHBKNHDA@?$AAC?$AA?$AA@ 10069ce8     libucrt:wsetlocale.obj
 0002:00006cec       ??_C@_17MBJJLFDM@?$AA_?$AA?4?$AA?0?$AA?$AA@ 10069cec     libucrt:wsetlocale.obj
 0002:00006cf8       ??_C@_13ENNFDPBH@?$AA_?$AA?$AA@ 10069cf8     libucrt:wsetlocale.obj
 0002:00006cfc       ??_C@_13JOFGPIOO@?$AA?4?$AA?$AA@ 10069cfc     libucrt:wsetlocale.obj
 0002:00006d00       ??_C@_03KOEHGMDN@Sun?$AA@  10069d00     libucrt:nlsdata.obj
 0002:00006d04       ??_C@_03PDAGKDH@Mon?$AA@   10069d04     libucrt:nlsdata.obj
 0002:00006d08       ??_C@_03NAGEINEP@Tue?$AA@  10069d08     libucrt:nlsdata.obj
 0002:00006d0c       ??_C@_03MHOMLAJA@Wed?$AA@  10069d0c     libucrt:nlsdata.obj
 0002:00006d10       ??_C@_03IOFIKPDN@Thu?$AA@  10069d10     libucrt:nlsdata.obj
 0002:00006d14       ??_C@_03IDIOELNC@Fri?$AA@  10069d14     libucrt:nlsdata.obj
 0002:00006d18       ??_C@_03FEFJNEK@Sat?$AA@   10069d18     libucrt:nlsdata.obj
 0002:00006d1c       ??_C@_06OOPIFAJ@Sunday?$AA@ 10069d1c     libucrt:nlsdata.obj
 0002:00006d24       ??_C@_06JLEDEDGH@Monday?$AA@ 10069d24     libucrt:nlsdata.obj
 0002:00006d2c       ??_C@_07BAAGCFCM@Tuesday?$AA@ 10069d2c     libucrt:nlsdata.obj
 0002:00006d38       ??_C@_09DLIGFAKA@Wednesday?$AA@ 10069d38     libucrt:nlsdata.obj
 0002:00006d44       ??_C@_08HACCIKIA@Thursday?$AA@ 10069d44     libucrt:nlsdata.obj
 0002:00006d50       ??_C@_06JECMNKMI@Friday?$AA@ 10069d50     libucrt:nlsdata.obj
 0002:00006d58       ??_C@_08INBOOONO@Saturday?$AA@ 10069d58     libucrt:nlsdata.obj
 0002:00006d64       ??_C@_03JIHJHPIE@Jan?$AA@  10069d64     libucrt:nlsdata.obj
 0002:00006d68       ??_C@_03HJBDCHOM@Feb?$AA@  10069d68     libucrt:nlsdata.obj
 0002:00006d6c       ??_C@_03ODNJBKGA@Mar?$AA@  10069d6c     libucrt:nlsdata.obj
 0002:00006d70       ??_C@_03LEOLGMJP@Apr?$AA@  10069d70     libucrt:nlsdata.obj
 0002:00006d74       ??_C@_03CNMDKL@May?$AA@    10069d74     libucrt:nlsdata.obj
 0002:00006d78       ??_C@_03IDFGHECI@Jun?$AA@  10069d78     libucrt:nlsdata.obj
 0002:00006d7c       ??_C@_03LBGABGKK@Jul?$AA@  10069d7c     libucrt:nlsdata.obj
 0002:00006d80       ??_C@_03IFJFEIGA@Aug?$AA@  10069d80     libucrt:nlsdata.obj
 0002:00006d84       ??_C@_03GGCAPAJC@Sep?$AA@  10069d84     libucrt:nlsdata.obj
 0002:00006d88       ??_C@_03BMAOKBAD@Oct?$AA@  10069d88     libucrt:nlsdata.obj
 0002:00006d8c       ??_C@_03JPJOFNIA@Nov?$AA@  10069d8c     libucrt:nlsdata.obj
 0002:00006d90       ??_C@_03MKABNOCG@Dec?$AA@  10069d90     libucrt:nlsdata.obj
 0002:00006d94       ??_C@_07CGJPFGJA@January?$AA@ 10069d94     libucrt:nlsdata.obj
 0002:00006da0       ??_C@_08GNJGEPFN@February?$AA@ 10069da0     libucrt:nlsdata.obj
 0002:00006dac       ??_C@_05HPCKOFNC@March?$AA@ 10069dac     libucrt:nlsdata.obj
 0002:00006db4       ??_C@_05DMJDNLEJ@April?$AA@ 10069db4     libucrt:nlsdata.obj
 0002:00006dbc       ??_C@_04CNLMGBGM@June?$AA@ 10069dbc     libucrt:nlsdata.obj
 0002:00006dc4       ??_C@_04MIEPOIFP@July?$AA@ 10069dc4     libucrt:nlsdata.obj
 0002:00006dcc       ??_C@_06LBBHFDDG@August?$AA@ 10069dcc     libucrt:nlsdata.obj
 0002:00006dd4       ??_C@_09BHHEALKD@September?$AA@ 10069dd4     libucrt:nlsdata.obj
 0002:00006de0       ??_C@_07JJNFCEND@October?$AA@ 10069de0     libucrt:nlsdata.obj
 0002:00006dec       ??_C@_08HCHEGEOA@November?$AA@ 10069dec     libucrt:nlsdata.obj
 0002:00006df8       ??_C@_08EDHMEBNP@December?$AA@ 10069df8     libucrt:nlsdata.obj
 0002:00006e04       ??_C@_02DEDBPAFC@AM?$AA@   10069e04     libucrt:nlsdata.obj
 0002:00006e08       ??_C@_02CJNFDJBF@PM?$AA@   10069e08     libucrt:nlsdata.obj
 0002:00006e0c       ??_C@_08BPBNCDIB@MM?1dd?1yy?$AA@ 10069e0c     libucrt:nlsdata.obj
 0002:00006e18       ??_C@_0BE@CKGJFCPC@dddd?0?5MMMM?5dd?0?5yyyy?$AA@ 10069e18     libucrt:nlsdata.obj
 0002:00006e30       ??_C@_08JCCMCCIL@HH?3mm?3ss?$AA@ 10069e30     libucrt:nlsdata.obj
 0002:00006e3c       ??_C@_17MBGCMIPB@?$AAS?$AAu?$AAn?$AA?$AA@ 10069e3c     libucrt:nlsdata.obj
 0002:00006e48       ??_C@_17KBOMKBF@?$AAM?$AAo?$AAn?$AA?$AA@ 10069e48     libucrt:nlsdata.obj
 0002:00006e54       ??_C@_17BMKGEGOJ@?$AAT?$AAu?$AAe?$AA?$AA@ 10069e54     libucrt:nlsdata.obj
 0002:00006e60       ??_C@_17CJEDCEPE@?$AAW?$AAe?$AAd?$AA?$AA@ 10069e60     libucrt:nlsdata.obj
 0002:00006e6c       ??_C@_17PDPHAADD@?$AAT?$AAh?$AAu?$AA?$AA@ 10069e6c     libucrt:nlsdata.obj
 0002:00006e78       ??_C@_17HFOLPPLP@?$AAF?$AAr?$AAi?$AA?$AA@ 10069e78     libucrt:nlsdata.obj
 0002:00006e84       ??_C@_17GGIBDPIH@?$AAS?$AAa?$AAt?$AA?$AA@ 10069e84     libucrt:nlsdata.obj
 0002:00006e90       ??_C@_1O@IHNHDHPB@?$AAS?$AAu?$AAn?$AAd?$AAa?$AAy?$AA?$AA@ 10069e90     libucrt:nlsdata.obj
 0002:00006ea0       ??_C@_1O@MMNBFLIA@?$AAM?$AAo?$AAn?$AAd?$AAa?$AAy?$AA?$AA@ 10069ea0     libucrt:nlsdata.obj
 0002:00006eb0       ??_C@_1BA@ENFBFFEK@?$AAT?$AAu?$AAe?$AAs?$AAd?$AAa?$AAy?$AA?$AA@ 10069eb0     libucrt:nlsdata.obj
 0002:00006ec4       ??_C@_1BE@EBOGMDOH@?$AAW?$AAe?$AAd?$AAn?$AAe?$AAs?$AAd?$AAa?$AAy?$AA?$AA@ 10069ec4     libucrt:nlsdata.obj
 0002:00006edc       ??_C@_1BC@HHMNLIHE@?$AAT?$AAh?$AAu?$AAr?$AAs?$AAd?$AAa?$AAy?$AA?$AA@ 10069edc     libucrt:nlsdata.obj
 0002:00006ef4       ??_C@_1O@PDICJHAG@?$AAF?$AAr?$AAi?$AAd?$AAa?$AAy?$AA?$AA@ 10069ef4     libucrt:nlsdata.obj
 0002:00006f04       ??_C@_1BC@ENMNNPAJ@?$AAS?$AAa?$AAt?$AAu?$AAr?$AAd?$AAa?$AAy?$AA?$AA@ 10069f04     libucrt:nlsdata.obj
 0002:00006f1c       ??_C@_17DKNBKCHM@?$AAJ?$AAa?$AAn?$AA?$AA@ 10069f1c     libucrt:nlsdata.obj
 0002:00006f28       ??_C@_17LMDJEKJN@?$AAF?$AAe?$AAb?$AA?$AA@ 10069f28     libucrt:nlsdata.obj
 0002:00006f34       ??_C@_17CKNLEDEC@?$AAM?$AAa?$AAr?$AA?$AA@ 10069f34     libucrt:nlsdata.obj
 0002:00006f40       ??_C@_17LFPOIHDD@?$AAA?$AAp?$AAr?$AA?$AA@ 10069f40     libucrt:nlsdata.obj
 0002:00006f4c       ??_C@_17PNNKMEED@?$AAM?$AAa?$AAy?$AA?$AA@ 10069f4c     libucrt:nlsdata.obj
 0002:00006f58       ??_C@_17KCJGOCPB@?$AAJ?$AAu?$AAn?$AA?$AA@ 10069f58     libucrt:nlsdata.obj
 0002:00006f64       ??_C@_17IJPCKHK@?$AAJ?$AAu?$AAl?$AA?$AA@ 10069f64     libucrt:nlsdata.obj
 0002:00006f70       ??_C@_17ICPELBCN@?$AAA?$AAu?$AAg?$AA?$AA@ 10069f70     libucrt:nlsdata.obj
 0002:00006f7c       ??_C@_17HCHCOKMG@?$AAS?$AAe?$AAp?$AA?$AA@ 10069f7c     libucrt:nlsdata.obj
 0002:00006f88       ??_C@_17FNLKOI@?$AAO?$AAc?$AAt?$AA?$AA@ 10069f88     libucrt:nlsdata.obj
 0002:00006f94       ??_C@_17BBDMLCIG@?$AAN?$AAo?$AAv?$AA?$AA@ 10069f94     libucrt:nlsdata.obj
 0002:00006fa0       ??_C@_17EGKACKIF@?$AAD?$AAe?$AAc?$AA?$AA@ 10069fa0     libucrt:nlsdata.obj
 0002:00006fac       ??_C@_1BA@EFMEIEBA@?$AAJ?$AAa?$AAn?$AAu?$AAa?$AAr?$AAy?$AA?$AA@ 10069fac     libucrt:nlsdata.obj
 0002:00006fc0       ??_C@_1BC@JGDDFFAM@?$AAF?$AAe?$AAb?$AAr?$AAu?$AAa?$AAr?$AAy?$AA?$AA@ 10069fc0     libucrt:nlsdata.obj
 0002:00006fd8       ??_C@_1M@IKEENEDF@?$AAM?$AAa?$AAr?$AAc?$AAh?$AA?$AA@ 10069fd8     libucrt:nlsdata.obj
 0002:00006fe8       ??_C@_1M@GJNLMHFD@?$AAA?$AAp?$AAr?$AAi?$AAl?$AA?$AA@ 10069fe8     libucrt:nlsdata.obj
 0002:00006ff8       ??_C@_19EPFLPGAP@?$AAJ?$AAu?$AAn?$AAe?$AA?$AA@ 10069ff8     libucrt:nlsdata.obj
 0002:00007004       ??_C@_19BIFMLPCD@?$AAJ?$AAu?$AAl?$AAy?$AA?$AA@ 1006a004     libucrt:nlsdata.obj
 0002:00007010       ??_C@_1O@PAHLKOAC@?$AAA?$AAu?$AAg?$AAu?$AAs?$AAt?$AA?$AA@ 1006a010     libucrt:nlsdata.obj
 0002:00007020       ??_C@_1BE@DKAAMBJL@?$AAS?$AAe?$AAp?$AAt?$AAe?$AAm?$AAb?$AAe?$AAr?$AA?$AA@ 1006a020     libucrt:nlsdata.obj
 0002:00007038       ??_C@_1BA@EPANDLNG@?$AAO?$AAc?$AAt?$AAo?$AAb?$AAe?$AAr?$AA?$AA@ 1006a038     libucrt:nlsdata.obj
 0002:0000704c       ??_C@_1BC@BGLIFPF@?$AAN?$AAo?$AAv?$AAe?$AAm?$AAb?$AAe?$AAr?$AA?$AA@ 1006a04c     libucrt:nlsdata.obj
 0002:00007064       ??_C@_1BC@FEMKIFH@?$AAD?$AAe?$AAc?$AAe?$AAm?$AAb?$AAe?$AAr?$AA?$AA@ 1006a064     libucrt:nlsdata.obj
 0002:0000707c       ??_C@_15ODEHAHHF@?$AAA?$AAM?$AA?$AA@ 1006a07c     libucrt:nlsdata.obj
 0002:00007084       ??_C@_15CLMNNGEL@?$AAP?$AAM?$AA?$AA@ 1006a084     libucrt:nlsdata.obj
 0002:0000708c       ??_C@_1BC@IEBCMHCM@?$AAM?$AAM?$AA?1?$AAd?$AAd?$AA?1?$AAy?$AAy?$AA?$AA@ 1006a08c     libucrt:nlsdata.obj
 0002:000070a4       ??_C@_1CI@KNAKOEBC@?$AAd?$AAd?$AAd?$AAd?$AA?0?$AA?5?$AAM?$AAM?$AAM?$AAM?$AA?5?$AAd?$AAd?$AA?0?$AA?5?$AAy?$AAy?$AAy?$AAy?$AA?$AA@ 1006a0a4     libucrt:nlsdata.obj
 0002:000070d4       ??_C@_1BC@GDGBMEMK@?$AAH?$AAH?$AA?3?$AAm?$AAm?$AA?3?$AAs?$AAs?$AA?$AA@ 1006a0d4     libucrt:nlsdata.obj
 0002:000070ec       ??_C@_1M@BMHNFIME@?$AAe?$AAn?$AA?9?$AAU?$AAS?$AA?$AA@ 1006a0ec     libucrt:nlsdata.obj
 0002:00007100       ___lc_time_c               1006a100     libucrt:nlsdata.obj
 0002:000072b0       __d_inf                    1006a2b0     libucrt:util.obj
 0002:000072c0       __d_ind                    1006a2c0     libucrt:util.obj
 0002:000072d0       __d_max                    1006a2d0     libucrt:util.obj
 0002:000072e0       __d_min                    1006a2e0     libucrt:util.obj
 0002:000072f0       __d_mzero                  1006a2f0     libucrt:util.obj
 0002:0000731c       ??_C@_1DE@JNGNBFGO@?$AAR?$AAu?$AAn?$AAt?$AAi?$AAm?$AAe?$AA?5?$AAE?$AAr?$AAr?$AAo?$AAr?$AA?$CB?$AA?6?$AA?6?$AAP?$AAr?$AAo?$AAg?$AAr?$AAa?$AAm?$AA?3?$AA?5?$AA?$AA@ 1006a31c     libucrt:report_runtime_error.obj
 0002:00007370       ??_C@_1M@HPNHIDJI@?$AAj?$AAa?$AA?9?$AAJ?$AAP?$AA?$AA@ 1006a370     libucrt:mbctype.obj
 0002:00007380       ??_C@_1M@BIBDDEMK@?$AAz?$AAh?$AA?9?$AAC?$AAN?$AA?$AA@ 1006a380     libucrt:mbctype.obj
 0002:00007390       ??_C@_1M@JLOOOEGK@?$AAk?$AAo?$AA?9?$AAK?$AAR?$AA?$AA@ 1006a390     libucrt:mbctype.obj
 0002:000073a0       ??_C@_1M@CLNBBOPM@?$AAz?$AAh?$AA?9?$AAT?$AAW?$AA?$AA@ 1006a3a0     libucrt:mbctype.obj
 0002:000073b0       __wctype                   1006a3b0     libucrt:ctype.obj
 0002:00007620       ___newctype                1006a620     libucrt:ctype.obj
 0002:000079c0       ___newclmap                1006a9c0     libucrt:ctype.obj
 0002:00007b90       ___newcumap                1006ab90     libucrt:ctype.obj
 0002:000085ec       ??_C@_15EMKDOKLE@?$AAa?$AAr?$AA?$AA@ 1006b5ec     libucrt:lcidtoname_downlevel.obj
 0002:000085f4       ??_C@_15KNPADPLH@?$AAb?$AAg?$AA?$AA@ 1006b5f4     libucrt:lcidtoname_downlevel.obj
 0002:000085fc       ??_C@_15EDMHLDMO@?$AAc?$AAa?$AA?$AA@ 1006b5fc     libucrt:lcidtoname_downlevel.obj
 0002:00008604       ??_C@_1O@BPEAJADD@?$AAz?$AAh?$AA?9?$AAC?$AAH?$AAS?$AA?$AA@ 1006b604     libucrt:lcidtoname_downlevel.obj
 0002:00008614       ??_C@_15LJNHCMNK@?$AAc?$AAs?$AA?$AA@ 1006b614     libucrt:lcidtoname_downlevel.obj
 0002:0000861c       ??_C@_15FOMCIDHG@?$AAd?$AAa?$AA?$AA@ 1006b61c     libucrt:lcidtoname_downlevel.obj
 0002:00008624       ??_C@_15NBKABECB@?$AAd?$AAe?$AA?$AA@ 1006b624     libucrt:lcidtoname_downlevel.obj
 0002:0000862c       ??_C@_15GHPEIIAO@?$AAe?$AAl?$AA?$AA@ 1006b62c     libucrt:lcidtoname_downlevel.obj
 0002:00008634       ??_C@_15MNPNEAIF@?$AAe?$AAn?$AA?$AA@ 1006b634     libucrt:lcidtoname_downlevel.obj
 0002:0000863c       ??_C@_15GPIOMPMH@?$AAe?$AAs?$AA?$AA@ 1006b63c     libucrt:lcidtoname_downlevel.obj
 0002:00008644       ??_C@_15NGLOAKJC@?$AAf?$AAi?$AA?$AA@ 1006b644     libucrt:lcidtoname_downlevel.obj
 0002:0000864c       ??_C@_15FBKGNKAM@?$AAf?$AAr?$AA?$AA@ 1006b64c     libucrt:lcidtoname_downlevel.obj
 0002:00008654       ??_C@_15KGGCNEFK@?$AAh?$AAe?$AA?$AA@ 1006b654     libucrt:lcidtoname_downlevel.obj
 0002:0000865c       ??_C@_15PGHLIDMF@?$AAh?$AAu?$AA?$AA@ 1006b65c     libucrt:lcidtoname_downlevel.obj
 0002:00008664       ??_C@_15BIEMAPLM@?$AAi?$AAs?$AA?$AA@ 1006b664     libucrt:lcidtoname_downlevel.obj
 0002:0000866c       ??_C@_15IFJLDHAF@?$AAi?$AAt?$AA?$AA@ 1006b66c     libucrt:lcidtoname_downlevel.obj
 0002:00008674       ??_C@_15GEMIOCAG@?$AAj?$AAa?$AA?$AA@ 1006b674     libucrt:lcidtoname_downlevel.obj
 0002:0000867c       ??_C@_15EPELEGJA@?$AAk?$AAo?$AA?$AA@ 1006b67c     libucrt:lcidtoname_downlevel.obj
 0002:00008684       ??_C@_15NDDHIMN@?$AAn?$AAl?$AA?$AA@ 1006b684     libucrt:lcidtoname_downlevel.obj
 0002:0000868c       ??_C@_15BPIGNHCD@?$AAn?$AAo?$AA?$AA@ 1006b68c     libucrt:lcidtoname_downlevel.obj
 0002:00008694       ??_C@_15DEOPBLCG@?$AAp?$AAl?$AA?$AA@ 1006b694     libucrt:lcidtoname_downlevel.obj
 0002:0000869c       ??_C@_15KBECGEFG@?$AAp?$AAt?$AA?$AA@ 1006b69c     libucrt:lcidtoname_downlevel.obj
 0002:000086a4       ??_C@_15GLJCBFMD@?$AAr?$AAo?$AA?$AA@ 1006b6a4     libucrt:lcidtoname_downlevel.obj
 0002:000086ac       ??_C@_15FEDGKCDI@?$AAr?$AAu?$AA?$AA@ 1006b6ac     libucrt:lcidtoname_downlevel.obj
 0002:000086b4       ??_C@_15GLKMLLHM@?$AAh?$AAr?$AA?$AA@ 1006b6b4     libucrt:lcidtoname_downlevel.obj
 0002:000086bc       ??_C@_15CPKMFBDB@?$AAs?$AAk?$AA?$AA@ 1006b6bc     libucrt:lcidtoname_downlevel.obj
 0002:000086c4       ??_C@_15BAAIOGMK@?$AAs?$AAq?$AA?$AA@ 1006b6c4     libucrt:lcidtoname_downlevel.obj
 0002:000086cc       ??_C@_15INNPNOHD@?$AAs?$AAv?$AA?$AA@ 1006b6cc     libucrt:lcidtoname_downlevel.obj
 0002:000086d4       ??_C@_15CABMMOGH@?$AAt?$AAh?$AA?$AA@ 1006b6d4     libucrt:lcidtoname_downlevel.obj
 0002:000086dc       ??_C@_15BPLIHJJM@?$AAt?$AAr?$AA?$AA@ 1006b6dc     libucrt:lcidtoname_downlevel.obj
 0002:000086e4       ??_C@_15NEOEKKDJ@?$AAu?$AAr?$AA?$AA@ 1006b6e4     libucrt:lcidtoname_downlevel.obj
 0002:000086ec       ??_C@_15NFICGAJK@?$AAi?$AAd?$AA?$AA@ 1006b6ec     libucrt:lcidtoname_downlevel.obj
 0002:000086f4       ??_C@_15PJPFLCCM@?$AAu?$AAk?$AA?$AA@ 1006b6f4     libucrt:lcidtoname_downlevel.obj
 0002:000086fc       ??_C@_15HPJPHDM@?$AAb?$AAe?$AA?$AA@ 1006b6fc     libucrt:lcidtoname_downlevel.obj
 0002:00008704       ??_C@_15LCHLGJII@?$AAs?$AAl?$AA?$AA@ 1006b704     libucrt:lcidtoname_downlevel.obj
 0002:0000870c       ??_C@_15PCFJPHHO@?$AAe?$AAt?$AA?$AA@ 1006b70c     libucrt:lcidtoname_downlevel.obj
 0002:00008714       ??_C@_15HPFPGODN@?$AAl?$AAv?$AA?$AA@ 1006b714     libucrt:lcidtoname_downlevel.obj
 0002:0000871c       ??_C@_15NFFGKGLG@?$AAl?$AAt?$AA?$AA@ 1006b71c     libucrt:lcidtoname_downlevel.obj
 0002:00008724       ??_C@_15BDAKCCHN@?$AAf?$AAa?$AA?$AA@ 1006b724     libucrt:lcidtoname_downlevel.obj
 0002:0000872c       ??_C@_15NFGIAIAJ@?$AAv?$AAi?$AA?$AA@ 1006b72c     libucrt:lcidtoname_downlevel.obj
 0002:00008734       ??_C@_15LMKNDMHN@?$AAh?$AAy?$AA?$AA@ 1006b734     libucrt:lcidtoname_downlevel.obj
 0002:0000873c       ??_C@_15IJBHMCFL@?$AAa?$AAz?$AA?$AA@ 1006b73c     libucrt:lcidtoname_downlevel.obj
 0002:00008744       ??_C@_15EKOFJABL@?$AAe?$AAu?$AA?$AA@ 1006b744     libucrt:lcidtoname_downlevel.obj
 0002:0000874c       ??_C@_15BGHADCNK@?$AAm?$AAk?$AA?$AA@ 1006b74c     libucrt:lcidtoname_downlevel.obj
 0002:00008754       ??_C@_15JDNICKHM@?$AAa?$AAf?$AA?$AA@ 1006b754     libucrt:lcidtoname_downlevel.obj
 0002:0000875c       ??_C@_15KPJEDBKD@?$AAk?$AAa?$AA?$AA@ 1006b75c     libucrt:lcidtoname_downlevel.obj
 0002:00008764       ??_C@_15PDNFFFEO@?$AAf?$AAo?$AA?$AA@ 1006b764     libucrt:lcidtoname_downlevel.obj
 0002:0000876c       ??_C@_15OMLEGLOC@?$AAh?$AAi?$AA?$AA@ 1006b76c     libucrt:lcidtoname_downlevel.obj
 0002:00008774       ??_C@_15IDNNENKK@?$AAm?$AAs?$AA?$AA@ 1006b774     libucrt:lcidtoname_downlevel.obj
 0002:0000877c       ??_C@_15MACJNBMH@?$AAk?$AAk?$AA?$AA@ 1006b77c     libucrt:lcidtoname_downlevel.obj
 0002:00008784       ??_C@_15DKDJEOND@?$AAk?$AAy?$AA?$AA@ 1006b784     libucrt:lcidtoname_downlevel.obj
 0002:0000878c       ??_C@_15DFGDLJBG@?$AAs?$AAw?$AA?$AA@ 1006b78c     libucrt:lcidtoname_downlevel.obj
 0002:00008794       ??_C@_15BBFAICNG@?$AAu?$AAz?$AA?$AA@ 1006b794     libucrt:lcidtoname_downlevel.obj
 0002:0000879c       ??_C@_15DKNDCGEA@?$AAt?$AAt?$AA?$AA@ 1006b79c     libucrt:lcidtoname_downlevel.obj
 0002:000087a4       ??_C@_15MGIFMDPL@?$AAp?$AAa?$AA?$AA@ 1006b7a4     libucrt:lcidtoname_downlevel.obj
 0002:000087ac       ??_C@_15HCNDBBA@?$AAg?$AAu?$AA?$AA@ 1006b7ac     libucrt:lcidtoname_downlevel.obj
 0002:000087b4       ??_C@_15FNBEIBON@?$AAt?$AAa?$AA?$AA@ 1006b7b4     libucrt:lcidtoname_downlevel.obj
 0002:000087bc       ??_C@_15NCHGBGLK@?$AAt?$AAe?$AA?$AA@ 1006b7bc     libucrt:lcidtoname_downlevel.obj
 0002:000087c4       ??_C@_15PHPHCBPF@?$AAk?$AAn?$AA?$AA@ 1006b7c4     libucrt:lcidtoname_downlevel.obj
 0002:000087cc       ??_C@_15DLGBCKMP@?$AAm?$AAr?$AA?$AA@ 1006b7cc     libucrt:lcidtoname_downlevel.obj
 0002:000087d4       ??_C@_15EABBLBFF@?$AAs?$AAa?$AA?$AA@ 1006b7d4     libucrt:lcidtoname_downlevel.obj
 0002:000087dc       ??_C@_15CBKOMCOI@?$AAm?$AAn?$AA?$AA@ 1006b7dc     libucrt:lcidtoname_downlevel.obj
 0002:000087e4       ??_C@_15CKDMCJAF@?$AAg?$AAl?$AA?$AA@ 1006b7e4     libucrt:lcidtoname_downlevel.obj
 0002:000087ec       ??_C@_17CNJFBPG@?$AAk?$AAo?$AAk?$AA?$AA@ 1006b7ec     libucrt:lcidtoname_downlevel.obj
 0002:000087f8       ??_C@_17FFBJICPL@?$AAs?$AAy?$AAr?$AA?$AA@ 1006b7f8     libucrt:lcidtoname_downlevel.obj
 0002:00008804       ??_C@_17KPNDCPAF@?$AAd?$AAi?$AAv?$AA?$AA@ 1006b804     libucrt:lcidtoname_downlevel.obj
 0002:00008810       ??_C@_11LOCGONAA@?$AA?$AA@ 1006b810     libucrt:lcidtoname_downlevel.obj
 0002:00008814       ??_C@_1M@OKAHONE@?$AAa?$AAr?$AA?9?$AAS?$AAA?$AA?$AA@ 1006b814     libucrt:lcidtoname_downlevel.obj
 0002:00008824       ??_C@_1M@FFFIGIGK@?$AAb?$AAg?$AA?9?$AAB?$AAG?$AA?$AA@ 1006b824     libucrt:lcidtoname_downlevel.obj
 0002:00008834       ??_C@_1M@BJNKEDC@?$AAc?$AAa?$AA?9?$AAE?$AAS?$AA?$AA@ 1006b834     libucrt:lcidtoname_downlevel.obj
 0002:00008844       ??_C@_1M@IJJHFJHA@?$AAc?$AAs?$AA?9?$AAC?$AAZ?$AA?$AA@ 1006b844     libucrt:lcidtoname_downlevel.obj
 0002:00008854       ??_C@_1M@CLPEOBGI@?$AAd?$AAa?$AA?9?$AAD?$AAK?$AA?$AA@ 1006b854     libucrt:lcidtoname_downlevel.obj
 0002:00008864       ??_C@_1M@MCMADGCB@?$AAd?$AAe?$AA?9?$AAD?$AAE?$AA?$AA@ 1006b864     libucrt:lcidtoname_downlevel.obj
 0002:00008874       ??_C@_1M@OOCKEMAM@?$AAe?$AAl?$AA?9?$AAG?$AAR?$AA?$AA@ 1006b874     libucrt:lcidtoname_downlevel.obj
 0002:00008884       ??_C@_1M@DDNJFGID@?$AAf?$AAi?$AA?9?$AAF?$AAI?$AA?$AA@ 1006b884     libucrt:lcidtoname_downlevel.obj
 0002:00008894       ??_C@_1M@GLIPPMAC@?$AAf?$AAr?$AA?9?$AAF?$AAR?$AA?$AA@ 1006b894     libucrt:lcidtoname_downlevel.obj
 0002:000088a4       ??_C@_1M@GFMCHPE@?$AAh?$AAe?$AA?9?$AAI?$AAL?$AA?$AA@ 1006b8a4     libucrt:lcidtoname_downlevel.obj
 0002:000088b4       ??_C@_1M@MHLPGNKM@?$AAh?$AAu?$AA?9?$AAH?$AAU?$AA?$AA@ 1006b8b4     libucrt:lcidtoname_downlevel.obj
 0002:000088c4       ??_C@_1M@LPDDNNPN@?$AAi?$AAs?$AA?9?$AAI?$AAS?$AA?$AA@ 1006b8c4     libucrt:lcidtoname_downlevel.obj
 0002:000088d4       ??_C@_1M@MADIPODN@?$AAi?$AAt?$AA?9?$AAI?$AAT?$AA?$AA@ 1006b8d4     libucrt:lcidtoname_downlevel.obj
 0002:000088e4       ??_C@_1M@IHBJJGG@?$AAn?$AAl?$AA?9?$AAN?$AAL?$AA?$AA@ 1006b8e4     libucrt:lcidtoname_downlevel.obj
 0002:000088f4       ??_C@_1M@EANAGDL@?$AAn?$AAb?$AA?9?$AAN?$AAO?$AA?$AA@ 1006b8f4     libucrt:lcidtoname_downlevel.obj
 0002:00008904       ??_C@_1M@NEIEMEGP@?$AAp?$AAl?$AA?9?$AAP?$AAL?$AA?$AA@ 1006b904     libucrt:lcidtoname_downlevel.obj
 0002:00008914       ??_C@_1M@BOCFIGEP@?$AAp?$AAt?$AA?9?$AAB?$AAR?$AA?$AA@ 1006b914     libucrt:lcidtoname_downlevel.obj
 0002:00008924       ??_C@_1M@IMPFOPBG@?$AAr?$AAo?$AA?9?$AAR?$AAO?$AA?$AA@ 1006b924     libucrt:lcidtoname_downlevel.obj
 0002:00008934       ??_C@_1M@IDNNEJMM@?$AAr?$AAu?$AA?9?$AAR?$AAU?$AA?$AA@ 1006b934     libucrt:lcidtoname_downlevel.obj
 0002:00008944       ??_C@_1M@LILEEOGM@?$AAh?$AAr?$AA?9?$AAH?$AAR?$AA?$AA@ 1006b944     libucrt:lcidtoname_downlevel.obj
 0002:00008954       ??_C@_1M@FKIFEHPB@?$AAs?$AAk?$AA?9?$AAS?$AAK?$AA?$AA@ 1006b954     libucrt:lcidtoname_downlevel.obj
 0002:00008964       ??_C@_1M@LJMAMNPJ@?$AAs?$AAq?$AA?9?$AAA?$AAL?$AA?$AA@ 1006b964     libucrt:lcidtoname_downlevel.obj
 0002:00008974       ??_C@_1M@GIAKDKJK@?$AAs?$AAv?$AA?9?$AAS?$AAE?$AA?$AA@ 1006b974     libucrt:lcidtoname_downlevel.obj
 0002:00008984       ??_C@_1M@MKJKIKCL@?$AAt?$AAh?$AA?9?$AAT?$AAH?$AA?$AA@ 1006b984     libucrt:lcidtoname_downlevel.obj
 0002:00008994       ??_C@_1M@MFLCCMPB@?$AAt?$AAr?$AA?9?$AAT?$AAR?$AA?$AA@ 1006b994     libucrt:lcidtoname_downlevel.obj
 0002:000089a4       ??_C@_1M@OIJHDKJN@?$AAu?$AAr?$AA?9?$AAP?$AAK?$AA?$AA@ 1006b9a4     libucrt:lcidtoname_downlevel.obj
 0002:000089b4       ??_C@_1M@LHIPCIEK@?$AAi?$AAd?$AA?9?$AAI?$AAD?$AA?$AA@ 1006b9b4     libucrt:lcidtoname_downlevel.obj
 0002:000089c4       ??_C@_1M@MFMOBGI@?$AAu?$AAk?$AA?9?$AAU?$AAA?$AA?$AA@ 1006b9c4     libucrt:lcidtoname_downlevel.obj
 0002:000089d4       ??_C@_1M@OBGLJIPL@?$AAb?$AAe?$AA?9?$AAB?$AAY?$AA?$AA@ 1006b9d4     libucrt:lcidtoname_downlevel.obj
 0002:000089e4       ??_C@_1M@BCFAJEAD@?$AAs?$AAl?$AA?9?$AAS?$AAI?$AA?$AA@ 1006b9e4     libucrt:lcidtoname_downlevel.obj
 0002:000089f4       ??_C@_1M@FKFFEDDN@?$AAe?$AAt?$AA?9?$AAE?$AAE?$AA?$AA@ 1006b9f4     libucrt:lcidtoname_downlevel.obj
 0002:00008a04       ??_C@_1M@KGKKAACI@?$AAl?$AAv?$AA?9?$AAL?$AAV?$AA?$AA@ 1006ba04     libucrt:lcidtoname_downlevel.obj
 0002:00008a14       ??_C@_1M@IFGBIJO@?$AAl?$AAt?$AA?9?$AAL?$AAT?$AA?$AA@ 1006ba14     libucrt:lcidtoname_downlevel.obj
 0002:00008a24       ??_C@_1M@FGEAHEDM@?$AAf?$AAa?$AA?9?$AAI?$AAR?$AA?$AA@ 1006ba24     libucrt:lcidtoname_downlevel.obj
 0002:00008a34       ??_C@_1M@KBMAIBFN@?$AAv?$AAi?$AA?9?$AAV?$AAN?$AA?$AA@ 1006ba34     libucrt:lcidtoname_downlevel.obj
 0002:00008a44       ??_C@_1M@GPCBKDJK@?$AAh?$AAy?$AA?9?$AAA?$AAM?$AA?$AA@ 1006ba44     libucrt:lcidtoname_downlevel.obj
 0002:00008a54       ??_C@_1BG@BECMDDJB@?$AAa?$AAz?$AA?9?$AAA?$AAZ?$AA?9?$AAL?$AAa?$AAt?$AAn?$AA?$AA@ 1006ba54     libucrt:lcidtoname_downlevel.obj
 0002:00008a70       ??_C@_1M@MAOFCAEA@?$AAe?$AAu?$AA?9?$AAE?$AAS?$AA?$AA@ 1006ba70     libucrt:lcidtoname_downlevel.obj
 0002:00008a80       ??_C@_1M@IGHABKPI@?$AAm?$AAk?$AA?9?$AAM?$AAK?$AA?$AA@ 1006ba80     libucrt:lcidtoname_downlevel.obj
 0002:00008a90       ??_C@_1M@IAIGNEJG@?$AAt?$AAn?$AA?9?$AAZ?$AAA?$AA?$AA@ 1006ba90     libucrt:lcidtoname_downlevel.obj
 0002:00008aa0       ??_C@_1M@IIJCOJFA@?$AAx?$AAh?$AA?9?$AAZ?$AAA?$AA?$AA@ 1006baa0     libucrt:lcidtoname_downlevel.obj
 0002:00008ab0       ??_C@_1M@LGPJHNJH@?$AAz?$AAu?$AA?9?$AAZ?$AAA?$AA?$AA@ 1006bab0     libucrt:lcidtoname_downlevel.obj
 0002:00008ac0       ??_C@_1M@HOKAOIO@?$AAa?$AAf?$AA?9?$AAZ?$AAA?$AA?$AA@ 1006bac0     libucrt:lcidtoname_downlevel.obj
 0002:00008ad0       ??_C@_1M@DPCLHLIE@?$AAk?$AAa?$AA?9?$AAG?$AAE?$AA?$AA@ 1006bad0     libucrt:lcidtoname_downlevel.obj
 0002:00008ae0       ??_C@_1M@BLKMHJBI@?$AAf?$AAo?$AA?9?$AAF?$AAO?$AA?$AA@ 1006bae0     libucrt:lcidtoname_downlevel.obj
 0002:00008af0       ??_C@_1M@LGGJAPPB@?$AAh?$AAi?$AA?9?$AAI?$AAN?$AA?$AA@ 1006baf0     libucrt:lcidtoname_downlevel.obj
 0002:00008b00       ??_C@_1M@FIKPIHFE@?$AAm?$AAt?$AA?9?$AAM?$AAT?$AA?$AA@ 1006bb00     libucrt:lcidtoname_downlevel.obj
 0002:00008b10       ??_C@_1M@HEGGPBFA@?$AAs?$AAe?$AA?9?$AAN?$AAO?$AA?$AA@ 1006bb10     libucrt:lcidtoname_downlevel.obj
 0002:00008b20       ??_C@_1M@EIBJEEPA@?$AAm?$AAs?$AA?9?$AAM?$AAY?$AA?$AA@ 1006bb20     libucrt:lcidtoname_downlevel.obj
 0002:00008b30       ??_C@_1M@FHLBGMPP@?$AAk?$AAk?$AA?9?$AAK?$AAZ?$AA?$AA@ 1006bb30     libucrt:lcidtoname_downlevel.obj
 0002:00008b40       ??_C@_1M@NGJJLCGI@?$AAk?$AAy?$AA?9?$AAK?$AAG?$AA?$AA@ 1006bb40     libucrt:lcidtoname_downlevel.obj
 0002:00008b50       ??_C@_1M@GIENNBFC@?$AAs?$AAw?$AA?9?$AAK?$AAE?$AA?$AA@ 1006bb50     libucrt:lcidtoname_downlevel.obj
 0002:00008b60       ??_C@_1BG@NDGMJIMJ@?$AAu?$AAz?$AA?9?$AAU?$AAZ?$AA?9?$AAL?$AAa?$AAt?$AAn?$AA?$AA@ 1006bb60     libucrt:lcidtoname_downlevel.obj
 0002:00008b7c       ??_C@_1M@IDCCIHBC@?$AAt?$AAt?$AA?9?$AAR?$AAU?$AA?$AA@ 1006bb7c     libucrt:lcidtoname_downlevel.obj
 0002:00008b8c       ??_C@_1M@LOICPMOJ@?$AAb?$AAn?$AA?9?$AAI?$AAN?$AA?$AA@ 1006bb8c     libucrt:lcidtoname_downlevel.obj
 0002:00008b9c       ??_C@_1M@KPKKNEAH@?$AAp?$AAa?$AA?9?$AAI?$AAN?$AA?$AA@ 1006bb9c     libucrt:lcidtoname_downlevel.obj
 0002:00008bac       ??_C@_1M@PJGPPBOG@?$AAg?$AAu?$AA?9?$AAI?$AAN?$AA?$AA@ 1006bbac     libucrt:lcidtoname_downlevel.obj
 0002:00008bbc       ??_C@_1M@KMKMOPHI@?$AAt?$AAa?$AA?9?$AAI?$AAN?$AA?$AA@ 1006bbbc     libucrt:lcidtoname_downlevel.obj
 0002:00008bcc       ??_C@_1M@KFEHEPAC@?$AAt?$AAe?$AA?9?$AAI?$AAN?$AA?$AA@ 1006bbcc     libucrt:lcidtoname_downlevel.obj
 0002:00008bdc       ??_C@_1M@CDCLMGHI@?$AAk?$AAn?$AA?9?$AAI?$AAN?$AA?$AA@ 1006bbdc     libucrt:lcidtoname_downlevel.obj
 0002:00008bec       ??_C@_1M@MIODLDKF@?$AAm?$AAl?$AA?9?$AAI?$AAN?$AA?$AA@ 1006bbec     libucrt:lcidtoname_downlevel.obj
 0002:00008bfc       ??_C@_1M@PBIEACPO@?$AAm?$AAr?$AA?9?$AAI?$AAN?$AA?$AA@ 1006bbfc     libucrt:lcidtoname_downlevel.obj
 0002:00008c0c       ??_C@_1M@NIDEAGPH@?$AAs?$AAa?$AA?9?$AAI?$AAN?$AA?$AA@ 1006bc0c     libucrt:lcidtoname_downlevel.obj
 0002:00008c1c       ??_C@_1M@FHIHCBIO@?$AAm?$AAn?$AA?9?$AAM?$AAN?$AA?$AA@ 1006bc1c     libucrt:lcidtoname_downlevel.obj
 0002:00008c2c       ??_C@_1M@JAIJPENP@?$AAc?$AAy?$AA?9?$AAG?$AAB?$AA?$AA@ 1006bc2c     libucrt:lcidtoname_downlevel.obj
 0002:00008c3c       ??_C@_1M@PHGFBEPN@?$AAg?$AAl?$AA?9?$AAE?$AAS?$AA?$AA@ 1006bc3c     libucrt:lcidtoname_downlevel.obj
 0002:00008c4c       ??_C@_1O@KPIPDNCP@?$AAk?$AAo?$AAk?$AA?9?$AAI?$AAN?$AA?$AA@ 1006bc4c     libucrt:lcidtoname_downlevel.obj
 0002:00008c5c       ??_C@_1O@KNHJLDJA@?$AAs?$AAy?$AAr?$AA?9?$AAS?$AAY?$AA?$AA@ 1006bc5c     libucrt:lcidtoname_downlevel.obj
 0002:00008c6c       ??_C@_1O@MKEKBLAH@?$AAd?$AAi?$AAv?$AA?9?$AAM?$AAV?$AA?$AA@ 1006bc6c     libucrt:lcidtoname_downlevel.obj
 0002:00008c7c       ??_C@_1O@OHDCKDDF@?$AAq?$AAu?$AAz?$AA?9?$AAB?$AAO?$AA?$AA@ 1006bc7c     libucrt:lcidtoname_downlevel.obj
 0002:00008c8c       ??_C@_1M@LEPJNLFD@?$AAn?$AAs?$AA?9?$AAZ?$AAA?$AA?$AA@ 1006bc8c     libucrt:lcidtoname_downlevel.obj
 0002:00008c9c       ??_C@_1M@OMLEIIJB@?$AAm?$AAi?$AA?9?$AAN?$AAZ?$AA?$AA@ 1006bc9c     libucrt:lcidtoname_downlevel.obj
 0002:00008cac       ??_C@_1M@PMPEAILG@?$AAa?$AAr?$AA?9?$AAI?$AAQ?$AA?$AA@ 1006bcac     libucrt:lcidtoname_downlevel.obj
 0002:00008cbc       ??_C@_1M@CNKPNOEE@?$AAd?$AAe?$AA?9?$AAC?$AAH?$AA?$AA@ 1006bcbc     libucrt:lcidtoname_downlevel.obj
 0002:00008ccc       ??_C@_1M@LKMGMLKO@?$AAe?$AAn?$AA?9?$AAG?$AAB?$AA?$AA@ 1006bccc     libucrt:lcidtoname_downlevel.obj
 0002:00008cdc       ??_C@_1M@PGKJFFGL@?$AAe?$AAs?$AA?9?$AAM?$AAX?$AA?$AA@ 1006bcdc     libucrt:lcidtoname_downlevel.obj
 0002:00008cec       ??_C@_1M@DNNANBDC@?$AAf?$AAr?$AA?9?$AAB?$AAE?$AA?$AA@ 1006bcec     libucrt:lcidtoname_downlevel.obj
 0002:00008cfc       ??_C@_1M@HLGMDFHM@?$AAi?$AAt?$AA?9?$AAC?$AAH?$AA?$AA@ 1006bcfc     libucrt:lcidtoname_downlevel.obj
 0002:00008d0c       ??_C@_1M@CLLBGJH@?$AAn?$AAl?$AA?9?$AAB?$AAE?$AA?$AA@ 1006bd0c     libucrt:lcidtoname_downlevel.obj
 0002:00008d1c       ??_C@_1M@BODBOGLF@?$AAn?$AAn?$AA?9?$AAN?$AAO?$AA?$AA@ 1006bd1c     libucrt:lcidtoname_downlevel.obj
 0002:00008d2c       ??_C@_1M@HFFAHKAD@?$AAp?$AAt?$AA?9?$AAP?$AAT?$AA?$AA@ 1006bd2c     libucrt:lcidtoname_downlevel.obj
 0002:00008d3c       ??_C@_1BG@LNOAKHIE@?$AAs?$AAr?$AA?9?$AAS?$AAP?$AA?9?$AAL?$AAa?$AAt?$AAn?$AA?$AA@ 1006bd3c     libucrt:lcidtoname_downlevel.obj
 0002:00008d58       ??_C@_1M@HBMHBGAK@?$AAs?$AAv?$AA?9?$AAF?$AAI?$AA?$AA@ 1006bd58     libucrt:lcidtoname_downlevel.obj
 0002:00008d68       ??_C@_1BG@DGCJGJBE@?$AAa?$AAz?$AA?9?$AAA?$AAZ?$AA?9?$AAC?$AAy?$AAr?$AAl?$AA?$AA@ 1006bd68     libucrt:lcidtoname_downlevel.obj
 0002:00008d84       ??_C@_1M@KEJDAAHB@?$AAs?$AAe?$AA?9?$AAS?$AAE?$AA?$AA@ 1006bd84     libucrt:lcidtoname_downlevel.obj
 0002:00008d94       ??_C@_1M@HEIBJJAD@?$AAm?$AAs?$AA?9?$AAB?$AAN?$AA?$AA@ 1006bd94     libucrt:lcidtoname_downlevel.obj
 0002:00008da4       ??_C@_1BG@PBGJMCEM@?$AAu?$AAz?$AA?9?$AAU?$AAZ?$AA?9?$AAC?$AAy?$AAr?$AAl?$AA?$AA@ 1006bda4     libucrt:lcidtoname_downlevel.obj
 0002:00008dc0       ??_C@_1O@LAOBCMDF@?$AAq?$AAu?$AAz?$AA?9?$AAE?$AAC?$AA?$AA@ 1006bdc0     libucrt:lcidtoname_downlevel.obj
 0002:00008dd0       ??_C@_1M@POEEMAIO@?$AAa?$AAr?$AA?9?$AAE?$AAG?$AA?$AA@ 1006bdd0     libucrt:lcidtoname_downlevel.obj
 0002:00008de0       ??_C@_1M@EFAKDEDL@?$AAz?$AAh?$AA?9?$AAH?$AAK?$AA?$AA@ 1006bde0     libucrt:lcidtoname_downlevel.obj
 0002:00008df0       ??_C@_1M@HKKIJHGI@?$AAd?$AAe?$AA?9?$AAA?$AAT?$AA?$AA@ 1006bdf0     libucrt:lcidtoname_downlevel.obj
 0002:00008e00       ??_C@_1M@KBFBEHJF@?$AAe?$AAn?$AA?9?$AAA?$AAU?$AA?$AA@ 1006be00     libucrt:lcidtoname_downlevel.obj
 0002:00008e10       ??_C@_1M@MNPLFAAH@?$AAe?$AAs?$AA?9?$AAE?$AAS?$AA?$AA@ 1006be10     libucrt:lcidtoname_downlevel.obj
 0002:00008e20       ??_C@_1M@HJOOJFMA@?$AAf?$AAr?$AA?9?$AAC?$AAA?$AA?$AA@ 1006be20     libucrt:lcidtoname_downlevel.obj
 0002:00008e30       ??_C@_1BG@JPOFPNAB@?$AAs?$AAr?$AA?9?$AAS?$AAP?$AA?9?$AAC?$AAy?$AAr?$AAl?$AA?$AA@ 1006be30     libucrt:lcidtoname_downlevel.obj
 0002:00008e4c       ??_C@_1M@LNFOCMOB@?$AAs?$AAe?$AA?9?$AAF?$AAI?$AA?$AA@ 1006be4c     libucrt:lcidtoname_downlevel.obj
 0002:00008e5c       ??_C@_1O@MGJBOAMB@?$AAq?$AAu?$AAz?$AA?9?$AAP?$AAE?$AA?$AA@ 1006be5c     libucrt:lcidtoname_downlevel.obj
 0002:00008e6c       ??_C@_1M@GJINLBOK@?$AAa?$AAr?$AA?9?$AAL?$AAY?$AA?$AA@ 1006be6c     libucrt:lcidtoname_downlevel.obj
 0002:00008e7c       ??_C@_1M@GGMNHJNL@?$AAz?$AAh?$AA?9?$AAS?$AAG?$AA?$AA@ 1006be7c     libucrt:lcidtoname_downlevel.obj
 0002:00008e8c       ??_C@_1M@HOIKODND@?$AAd?$AAe?$AA?9?$AAL?$AAU?$AA?$AA@ 1006be8c     libucrt:lcidtoname_downlevel.obj
 0002:00008e9c       ??_C@_1M@DDOCCGFG@?$AAe?$AAn?$AA?9?$AAC?$AAA?$AA?$AA@ 1006be9c     libucrt:lcidtoname_downlevel.obj
 0002:00008eac       ??_C@_1M@BNOEMJLF@?$AAe?$AAs?$AA?9?$AAG?$AAT?$AA?$AA@ 1006beac     libucrt:lcidtoname_downlevel.obj
 0002:00008ebc       ??_C@_1M@EOGNKEK@?$AAf?$AAr?$AA?9?$AAC?$AAH?$AA?$AA@ 1006bebc     libucrt:lcidtoname_downlevel.obj
 0002:00008ecc       ??_C@_1M@FLIDJFHL@?$AAh?$AAr?$AA?9?$AAB?$AAA?$AA?$AA@ 1006becc     libucrt:lcidtoname_downlevel.obj
 0002:00008edc       ??_C@_1O@FMCELNAJ@?$AAs?$AAm?$AAj?$AA?9?$AAN?$AAO?$AA?$AA@ 1006bedc     libucrt:lcidtoname_downlevel.obj
 0002:00008eec       ??_C@_1M@JHGLJMGJ@?$AAa?$AAr?$AA?9?$AAD?$AAZ?$AA?$AA@ 1006beec     libucrt:lcidtoname_downlevel.obj
 0002:00008efc       ??_C@_1M@JKKFDCNP@?$AAz?$AAh?$AA?9?$AAM?$AAO?$AA?$AA@ 1006befc     libucrt:lcidtoname_downlevel.obj
 0002:00008f0c       ??_C@_1M@GEEFALPE@?$AAd?$AAe?$AA?9?$AAL?$AAI?$AA?$AA@ 1006bf0c     libucrt:lcidtoname_downlevel.obj
 0002:00008f1c       ??_C@_1M@IGEOFBG@?$AAe?$AAn?$AA?9?$AAN?$AAZ?$AA?$AA@ 1006bf1c     libucrt:lcidtoname_downlevel.obj
 0002:00008f2c       ??_C@_1M@KDBONEHP@?$AAe?$AAs?$AA?9?$AAC?$AAR?$AA?$AA@ 1006bf2c     libucrt:lcidtoname_downlevel.obj
 0002:00008f3c       ??_C@_1M@FHMDOHNN@?$AAf?$AAr?$AA?9?$AAL?$AAU?$AA?$AA@ 1006bf3c     libucrt:lcidtoname_downlevel.obj
 0002:00008f4c       ??_C@_1BG@NFKKMAFG@?$AAb?$AAs?$AA?9?$AAB?$AAA?$AA?9?$AAL?$AAa?$AAt?$AAn?$AA?$AA@ 1006bf4c     libucrt:lcidtoname_downlevel.obj
 0002:00008f68       ??_C@_1O@IMNBEMCI@?$AAs?$AAm?$AAj?$AA?9?$AAS?$AAE?$AA?$AA@ 1006bf68     libucrt:lcidtoname_downlevel.obj
 0002:00008f78       ??_C@_1M@DHHMBNDP@?$AAa?$AAr?$AA?9?$AAM?$AAA?$AA?$AA@ 1006bf78     libucrt:lcidtoname_downlevel.obj
 0002:00008f88       ??_C@_1M@BNBLJCGH@?$AAe?$AAn?$AA?9?$AAI?$AAE?$AA?$AA@ 1006bf88     libucrt:lcidtoname_downlevel.obj
 0002:00008f98       ??_C@_1M@GEPAFMDL@?$AAe?$AAs?$AA?9?$AAP?$AAA?$AA?$AA@ 1006bf98     libucrt:lcidtoname_downlevel.obj
 0002:00008fa8       ??_C@_1M@OJONDMDL@?$AAf?$AAr?$AA?9?$AAM?$AAC?$AA?$AA@ 1006bfa8     libucrt:lcidtoname_downlevel.obj
 0002:00008fb8       ??_C@_1BG@OBCNFJB@?$AAs?$AAr?$AA?9?$AAB?$AAA?$AA?9?$AAL?$AAa?$AAt?$AAn?$AA?$AA@ 1006bfb8     libucrt:lcidtoname_downlevel.obj
 0002:00008fd4       ??_C@_1O@KEMEEGPO@?$AAs?$AAm?$AAa?$AA?9?$AAN?$AAO?$AA?$AA@ 1006bfd4     libucrt:lcidtoname_downlevel.obj
 0002:00008fe4       ??_C@_1M@ELMGFODK@?$AAa?$AAr?$AA?9?$AAT?$AAN?$AA?$AA@ 1006bfe4     libucrt:lcidtoname_downlevel.obj
 0002:00008ff4       ??_C@_1M@BHDLHFAF@?$AAe?$AAn?$AA?9?$AAZ?$AAA?$AA?$AA@ 1006bff4     libucrt:lcidtoname_downlevel.obj
 0002:00009004       ??_C@_1M@BMGIGLIF@?$AAe?$AAs?$AA?9?$AAD?$AAO?$AA?$AA@ 1006c004     libucrt:lcidtoname_downlevel.obj
 0002:00009014       ??_C@_1BG@CMBHIPBE@?$AAs?$AAr?$AA?9?$AAB?$AAA?$AA?9?$AAC?$AAy?$AAr?$AAl?$AA?$AA@ 1006c014     libucrt:lcidtoname_downlevel.obj
 0002:00009030       ??_C@_1O@HEDBLHNP@?$AAs?$AAm?$AAa?$AA?9?$AAS?$AAE?$AA?$AA@ 1006c030     libucrt:lcidtoname_downlevel.obj
 0002:00009040       ??_C@_1M@DAGCADIM@?$AAa?$AAr?$AA?9?$AAO?$AAM?$AA?$AA@ 1006c040     libucrt:lcidtoname_downlevel.obj
 0002:00009050       ??_C@_1M@FODLMICG@?$AAe?$AAn?$AA?9?$AAJ?$AAM?$AA?$AA@ 1006c050     libucrt:lcidtoname_downlevel.obj
 0002:00009060       ??_C@_1M@DNMLCIHB@?$AAe?$AAs?$AA?9?$AAV?$AAE?$AA?$AA@ 1006c060     libucrt:lcidtoname_downlevel.obj
 0002:00009070       ??_C@_1O@EOKHMKJK@?$AAs?$AAm?$AAs?$AA?9?$AAF?$AAI?$AA?$AA@ 1006c070     libucrt:lcidtoname_downlevel.obj
 0002:00009080       ??_C@_1M@CAFJMKOF@?$AAa?$AAr?$AA?9?$AAY?$AAE?$AA?$AA@ 1006c080     libucrt:lcidtoname_downlevel.obj
 0002:00009090       ??_C@_1M@CBFHIJLI@?$AAe?$AAn?$AA?9?$AAC?$AAB?$AA?$AA@ 1006c090     libucrt:lcidtoname_downlevel.obj
 0002:000090a0       ??_C@_1M@BGNFLDN@?$AAe?$AAs?$AA?9?$AAC?$AAO?$AA?$AA@ 1006c0a0     libucrt:lcidtoname_downlevel.obj
 0002:000090b0       ??_C@_1O@JMPHMAMC@?$AAs?$AAm?$AAn?$AA?9?$AAF?$AAI?$AA?$AA@ 1006c0b0     libucrt:lcidtoname_downlevel.obj
 0002:000090c0       ??_C@_1M@JLANABKE@?$AAa?$AAr?$AA?9?$AAS?$AAY?$AA?$AA@ 1006c0c0     libucrt:lcidtoname_downlevel.obj
 0002:000090d0       ??_C@_1M@HPKGCFGN@?$AAe?$AAn?$AA?9?$AAB?$AAZ?$AA?$AA@ 1006c0d0     libucrt:lcidtoname_downlevel.obj
 0002:000090e0       ??_C@_1M@OLJCMLGM@?$AAe?$AAs?$AA?9?$AAP?$AAE?$AA?$AA@ 1006c0e0     libucrt:lcidtoname_downlevel.obj
 0002:000090f0       ??_C@_1M@MKKGFKLE@?$AAa?$AAr?$AA?9?$AAJ?$AAO?$AA?$AA@ 1006c0f0     libucrt:lcidtoname_downlevel.obj
 0002:00009100       ??_C@_1M@EKPGLDNI@?$AAe?$AAn?$AA?9?$AAT?$AAT?$AA?$AA@ 1006c100     libucrt:lcidtoname_downlevel.obj
 0002:00009110       ??_C@_1M@OONGHFHE@?$AAe?$AAs?$AA?9?$AAA?$AAR?$AA?$AA@ 1006c110     libucrt:lcidtoname_downlevel.obj
 0002:00009120       ??_C@_1M@OOJFGBHE@?$AAa?$AAr?$AA?9?$AAL?$AAB?$AA?$AA@ 1006c120     libucrt:lcidtoname_downlevel.obj
 0002:00009130       ??_C@_1M@GCEJHNEG@?$AAe?$AAn?$AA?9?$AAZ?$AAW?$AA?$AA@ 1006c130     libucrt:lcidtoname_downlevel.obj
 0002:00009140       ??_C@_1M@JNOCAHJI@?$AAe?$AAs?$AA?9?$AAE?$AAC?$AA?$AA@ 1006c140     libucrt:lcidtoname_downlevel.obj
 0002:00009150       ??_C@_1M@JEFHPGGB@?$AAa?$AAr?$AA?9?$AAK?$AAW?$AA?$AA@ 1006c150     libucrt:lcidtoname_downlevel.obj
 0002:00009160       ??_C@_1M@MLKIBJOJ@?$AAe?$AAn?$AA?9?$AAP?$AAH?$AA?$AA@ 1006c160     libucrt:lcidtoname_downlevel.obj
 0002:00009170       ??_C@_1M@BDNIPEND@?$AAe?$AAs?$AA?9?$AAC?$AAL?$AA?$AA@ 1006c170     libucrt:lcidtoname_downlevel.obj
 0002:00009180       ??_C@_1M@MPNMEKBD@?$AAa?$AAr?$AA?9?$AAA?$AAE?$AA?$AA@ 1006c180     libucrt:lcidtoname_downlevel.obj
 0002:00009190       ??_C@_1M@KBJALCPI@?$AAe?$AAs?$AA?9?$AAU?$AAY?$AA?$AA@ 1006c190     libucrt:lcidtoname_downlevel.obj
 0002:000091a0       ??_C@_1M@LLCCOAGA@?$AAa?$AAr?$AA?9?$AAB?$AAH?$AA?$AA@ 1006c1a0     libucrt:lcidtoname_downlevel.obj
 0002:000091b0       ??_C@_1M@PBFNCDEL@?$AAe?$AAs?$AA?9?$AAP?$AAY?$AA?$AA@ 1006c1b0     libucrt:lcidtoname_downlevel.obj
 0002:000091c0       ??_C@_1M@EDGINPNP@?$AAa?$AAr?$AA?9?$AAQ?$AAA?$AA?$AA@ 1006c1c0     libucrt:lcidtoname_downlevel.obj
 0002:000091d0       ??_C@_1M@MKDBIIJI@?$AAe?$AAs?$AA?9?$AAB?$AAO?$AA?$AA@ 1006c1d0     libucrt:lcidtoname_downlevel.obj
 0002:000091e0       ??_C@_1M@CPKKEBLD@?$AAe?$AAs?$AA?9?$AAS?$AAV?$AA?$AA@ 1006c1e0     libucrt:lcidtoname_downlevel.obj
 0002:000091f0       ??_C@_1M@NDBGMMJL@?$AAe?$AAs?$AA?9?$AAH?$AAN?$AA?$AA@ 1006c1f0     libucrt:lcidtoname_downlevel.obj
 0002:00009200       ??_C@_1M@JIJIBHDP@?$AAe?$AAs?$AA?9?$AAN?$AAI?$AA?$AA@ 1006c200     libucrt:lcidtoname_downlevel.obj
 0002:00009210       ??_C@_1M@CGFMKEEK@?$AAe?$AAs?$AA?9?$AAP?$AAR?$AA?$AA@ 1006c210     libucrt:lcidtoname_downlevel.obj
 0002:00009220       ??_C@_1O@ICJHKIIK@?$AAz?$AAh?$AA?9?$AAC?$AAH?$AAT?$AA?$AA@ 1006c220     libucrt:lcidtoname_downlevel.obj
 0002:00009230       ??_C@_15CLNEJCE@?$AAs?$AAr?$AA?$AA@ 1006c230     libucrt:lcidtoname_downlevel.obj
 0002:00009ac4       ??_C@_1M@KAHEKEIG@?$AAa?$AAf?$AA?9?$AAz?$AAa?$AA?$AA@ 1006cac4     libucrt:lcidtoname_downlevel.obj
 0002:00009ad4       ??_C@_1M@GIECOABL@?$AAa?$AAr?$AA?9?$AAa?$AAe?$AA?$AA@ 1006cad4     libucrt:lcidtoname_downlevel.obj
 0002:00009ae4       ??_C@_1M@BMLMEKGI@?$AAa?$AAr?$AA?9?$AAb?$AAh?$AA?$AA@ 1006cae4     libucrt:lcidtoname_downlevel.obj
 0002:00009af4       ??_C@_1M@DAPFDGGB@?$AAa?$AAr?$AA?9?$AAd?$AAz?$AA?$AA@ 1006caf4     libucrt:lcidtoname_downlevel.obj
 0002:00009b04       ??_C@_1M@FJNKGKIG@?$AAa?$AAr?$AA?9?$AAe?$AAg?$AA?$AA@ 1006cb04     libucrt:lcidtoname_downlevel.obj
 0002:00009b14       ??_C@_1M@FLGKKCLO@?$AAa?$AAr?$AA?9?$AAi?$AAq?$AA?$AA@ 1006cb14     libucrt:lcidtoname_downlevel.obj
 0002:00009b24       ??_C@_1M@GNDIPALM@?$AAa?$AAr?$AA?9?$AAj?$AAo?$AA?$AA@ 1006cb24     libucrt:lcidtoname_downlevel.obj
 0002:00009b34       ??_C@_1M@DDMJFMGJ@?$AAa?$AAr?$AA?9?$AAk?$AAw?$AA?$AA@ 1006cb34     libucrt:lcidtoname_downlevel.obj
 0002:00009b44       ??_C@_1M@EJALMLHM@?$AAa?$AAr?$AA?9?$AAl?$AAb?$AA?$AA@ 1006cb44     libucrt:lcidtoname_downlevel.obj
 0002:00009b54       ??_C@_1M@MOBDBLOC@?$AAa?$AAr?$AA?9?$AAl?$AAy?$AA?$AA@ 1006cb54     libucrt:lcidtoname_downlevel.obj
 0002:00009b64       ??_C@_1M@JAOCLHDH@?$AAa?$AAr?$AA?9?$AAm?$AAa?$AA?$AA@ 1006cb64     libucrt:lcidtoname_downlevel.obj
 0002:00009b74       ??_C@_1M@JHPMKJIE@?$AAa?$AAr?$AA?9?$AAo?$AAm?$AA?$AA@ 1006cb74     libucrt:lcidtoname_downlevel.obj
 0002:00009b84       ??_C@_1M@OEPGHFNH@?$AAa?$AAr?$AA?9?$AAq?$AAa?$AA?$AA@ 1006cb84     libucrt:lcidtoname_downlevel.obj
 0002:00009b94       ??_C@_1M@KJDONENM@?$AAa?$AAr?$AA?9?$AAs?$AAa?$AA?$AA@ 1006cb94     libucrt:lcidtoname_downlevel.obj
 0002:00009ba4       ??_C@_1M@DMJDKLKM@?$AAa?$AAr?$AA?9?$AAs?$AAy?$AA?$AA@ 1006cba4     libucrt:lcidtoname_downlevel.obj
 0002:00009bb4       ??_C@_1M@OMFIPEDC@?$AAa?$AAr?$AA?9?$AAt?$AAn?$AA?$AA@ 1006cbb4     libucrt:lcidtoname_downlevel.obj
 0002:00009bc4       ??_C@_1M@IHMHGAON@?$AAa?$AAr?$AA?9?$AAy?$AAe?$AA?$AA@ 1006cbc4     libucrt:lcidtoname_downlevel.obj
 0002:00009bd4       ??_C@_1BG@KDCPGJGB@?$AAa?$AAz?$AA?9?$AAa?$AAz?$AA?9?$AAc?$AAy?$AAr?$AAl?$AA?$AA@ 1006cbd4     libucrt:lcidtoname_downlevel.obj
 0002:00009bf0       ??_C@_1BG@IBCKDDOE@?$AAa?$AAz?$AA?9?$AAa?$AAz?$AA?9?$AAl?$AAa?$AAt?$AAn?$AA?$AA@ 1006cbf0     libucrt:lcidtoname_downlevel.obj
 0002:00009c0c       ??_C@_1M@EGPFDCPD@?$AAb?$AAe?$AA?9?$AAb?$AAy?$AA?$AA@ 1006cc0c     libucrt:lcidtoname_downlevel.obj
 0002:00009c1c       ??_C@_1M@PCMGMCGC@?$AAb?$AAg?$AA?9?$AAb?$AAg?$AA?$AA@ 1006cc1c     libucrt:lcidtoname_downlevel.obj
 0002:00009c2c       ??_C@_1M@BJBMFGOB@?$AAb?$AAn?$AA?9?$AAi?$AAn?$AA?$AA@ 1006cc2c     libucrt:lcidtoname_downlevel.obj
 0002:00009c3c       ??_C@_1BG@EAKMMACD@?$AAb?$AAs?$AA?9?$AAb?$AAa?$AA?9?$AAl?$AAa?$AAt?$AAn?$AA?$AA@ 1006cc3c     libucrt:lcidtoname_downlevel.obj
 0002:00009c58       ??_C@_1M@KGADAODK@?$AAc?$AAa?$AA?9?$AAe?$AAs?$AA?$AA@ 1006cc58     libucrt:lcidtoname_downlevel.obj
 0002:00009c68       ??_C@_1M@COAJPDHI@?$AAc?$AAs?$AA?9?$AAc?$AAz?$AA?$AA@ 1006cc68     libucrt:lcidtoname_downlevel.obj
 0002:00009c78       ??_C@_1M@DHBHFONH@?$AAc?$AAy?$AA?9?$AAg?$AAb?$AA?$AA@ 1006cc78     libucrt:lcidtoname_downlevel.obj
 0002:00009c88       ??_C@_1M@IMGKELGA@?$AAd?$AAa?$AA?9?$AAd?$AAk?$AA?$AA@ 1006cc88     libucrt:lcidtoname_downlevel.obj
 0002:00009c98       ??_C@_1M@NNDGDNGA@?$AAd?$AAe?$AA?9?$AAa?$AAt?$AA?$AA@ 1006cc98     libucrt:lcidtoname_downlevel.obj
 0002:00009ca8       ??_C@_1M@IKDBHEEM@?$AAd?$AAe?$AA?9?$AAc?$AAh?$AA?$AA@ 1006cca8     libucrt:lcidtoname_downlevel.obj
 0002:00009cb8       ??_C@_1M@GFFOJMCJ@?$AAd?$AAe?$AA?9?$AAd?$AAe?$AA?$AA@ 1006ccb8     libucrt:lcidtoname_downlevel.obj
 0002:00009cc8       ??_C@_1M@MDNLKBPM@?$AAd?$AAe?$AA?9?$AAl?$AAi?$AA?$AA@ 1006ccc8     libucrt:lcidtoname_downlevel.obj
 0002:00009cd8       ??_C@_1M@NJBEEJNL@?$AAd?$AAe?$AA?9?$AAl?$AAu?$AA?$AA@ 1006ccd8     libucrt:lcidtoname_downlevel.obj
 0002:00009ce8       ??_C@_1O@GNNELBAP@?$AAd?$AAi?$AAv?$AA?9?$AAm?$AAv?$AA?$AA@ 1006cce8     libucrt:lcidtoname_downlevel.obj
 0002:00009cf8       ??_C@_1M@EJLEOGAE@?$AAe?$AAl?$AA?9?$AAg?$AAr?$AA?$AA@ 1006ccf8     libucrt:lcidtoname_downlevel.obj
 0002:00009d08       ??_C@_1M@GMPONJN@?$AAe?$AAn?$AA?9?$AAa?$AAu?$AA?$AA@ 1006cd08     libucrt:lcidtoname_downlevel.obj
 0002:00009d18       ??_C@_1M@NIDIIPGF@?$AAe?$AAn?$AA?9?$AAb?$AAz?$AA?$AA@ 1006cd18     libucrt:lcidtoname_downlevel.obj
 0002:00009d28       ??_C@_1M@JEHMIMFO@?$AAe?$AAn?$AA?9?$AAc?$AAa?$AA?$AA@ 1006cd28     libucrt:lcidtoname_downlevel.obj
 0002:00009d38       ??_C@_1M@IGMJCDLA@?$AAe?$AAn?$AA?9?$AAc?$AAb?$AA?$AA@ 1006cd38     libucrt:lcidtoname_downlevel.obj
 0002:00009d48       ??_C@_1M@BNFIGBKG@?$AAe?$AAn?$AA?9?$AAg?$AAb?$AA?$AA@ 1006cd48     libucrt:lcidtoname_downlevel.obj
 0002:00009d58       ??_C@_1M@LKIFDIGP@?$AAe?$AAn?$AA?9?$AAi?$AAe?$AA?$AA@ 1006cd58     libucrt:lcidtoname_downlevel.obj
 0002:00009d68       ??_C@_1M@PJKFGCCO@?$AAe?$AAn?$AA?9?$AAj?$AAm?$AA?$AA@ 1006cd68     libucrt:lcidtoname_downlevel.obj
 0002:00009d78       ??_C@_1M@KPPKEPBO@?$AAe?$AAn?$AA?9?$AAn?$AAz?$AA?$AA@ 1006cd78     libucrt:lcidtoname_downlevel.obj
 0002:00009d88       ??_C@_1M@GMDGLDOB@?$AAe?$AAn?$AA?9?$AAp?$AAh?$AA?$AA@ 1006cd88     libucrt:lcidtoname_downlevel.obj
 0002:00009d98       ??_C@_1M@ONGIBJNA@?$AAe?$AAn?$AA?9?$AAt?$AAt?$AA?$AA@ 1006cd98     libucrt:lcidtoname_downlevel.obj
 0002:00009da8       ??_C@_1M@LLODPCMM@?$AAe?$AAn?$AA?9?$AAu?$AAs?$AA?$AA@ 1006cda8     libucrt:lcidtoname_downlevel.obj
 0002:00009db8       ??_C@_1M@LAKFNPAN@?$AAe?$AAn?$AA?9?$AAz?$AAa?$AA?$AA@ 1006cdb8     libucrt:lcidtoname_downlevel.obj
 0002:00009dc8       ??_C@_1M@MFNHNHEO@?$AAe?$AAn?$AA?9?$AAz?$AAw?$AA?$AA@ 1006cdc8     libucrt:lcidtoname_downlevel.obj
 0002:00009dd8       ??_C@_1M@EJEINPHM@?$AAe?$AAs?$AA?9?$AAa?$AAr?$AA?$AA@ 1006cdd8     libucrt:lcidtoname_downlevel.obj
 0002:00009de8       ??_C@_1M@GNKPCCJA@?$AAe?$AAs?$AA?9?$AAb?$AAo?$AA?$AA@ 1006cde8     libucrt:lcidtoname_downlevel.obj
 0002:00009df8       ??_C@_1M@LEEGFONL@?$AAe?$AAs?$AA?9?$AAc?$AAl?$AA?$AA@ 1006cdf8     libucrt:lcidtoname_downlevel.obj
 0002:00009e08       ??_C@_1M@KGPDPBDF@?$AAe?$AAs?$AA?9?$AAc?$AAo?$AA?$AA@ 1006ce08     libucrt:lcidtoname_downlevel.obj
 0002:00009e18       ??_C@_1M@EIAHOHH@?$AAe?$AAs?$AA?9?$AAc?$AAr?$AA?$AA@ 1006ce18     libucrt:lcidtoname_downlevel.obj
 0002:00009e28       ??_C@_1M@LLPGMBIN@?$AAe?$AAs?$AA?9?$AAd?$AAo?$AA?$AA@ 1006ce28     libucrt:lcidtoname_downlevel.obj
 0002:00009e38       ??_C@_1M@DKHMKNJA@?$AAe?$AAs?$AA?9?$AAe?$AAc?$AA?$AA@ 1006ce38     libucrt:lcidtoname_downlevel.obj
 0002:00009e48       ??_C@_1M@GKGFPKAP@?$AAe?$AAs?$AA?9?$AAe?$AAs?$AA?$AA@ 1006ce48     libucrt:lcidtoname_downlevel.obj
 0002:00009e58       ??_C@_1M@LKHKGDLN@?$AAe?$AAs?$AA?9?$AAg?$AAt?$AA?$AA@ 1006ce58     libucrt:lcidtoname_downlevel.obj
 0002:00009e68       ??_C@_1M@HEIIGGJD@?$AAe?$AAs?$AA?9?$AAh?$AAn?$AA?$AA@ 1006ce68     libucrt:lcidtoname_downlevel.obj
 0002:00009e78       ??_C@_1M@FBDHPPGD@?$AAe?$AAs?$AA?9?$AAm?$AAx?$AA?$AA@ 1006ce78     libucrt:lcidtoname_downlevel.obj
